

Microchip MPLAB XC8 Assembler V2.10 build 88905656 
                                                                                               Tue Oct 19 20:08:52 2021

Microchip MPLAB XC8 C Compiler v2.10 (Free license) build 20190730164152 Og1 
     1                           	processor	18F4431
     2                           	fnconf	rparam,??,?,0
     3                           	opt	pw 120
     4                           	opt	flic
     5                           	psect	idataBANK0,global,class=CODE,delta=1,noexec
     6                           	psect	smallconst,global,reloc=2,class=SMALLCONST,delta=1,noexec
     7                           	psect	cinit,global,reloc=2,class=CODE,delta=1
     8                           	psect	bssBANK0,global,class=BANK0,space=1,delta=1,lowdata,noexec
     9                           	psect	dataBANK0,global,class=BANK0,space=1,delta=1,lowdata,noexec
    10                           	psect	bssBANK1,global,class=BANK1,space=1,delta=1,lowdata,noexec
    11                           	psect	cstackBANK1,global,class=BANK1,space=1,delta=1,noexec
    12                           	psect	cstackBANK0,global,class=BANK0,space=1,delta=1,noexec
    13                           	psect	cstackCOMRAM,global,class=COMRAM,space=1,delta=1,noexec
    14                           	psect	text0,global,reloc=2,class=CODE,delta=1
    15                           	psect	text1,global,reloc=2,class=CODE,delta=1
    16                           	psect	text2,global,reloc=2,class=CODE,delta=1
    17                           	psect	text3,global,reloc=2,class=CODE,delta=1
    18                           	psect	text4,global,reloc=2,class=CODE,delta=1
    19                           	psect	text5,global,reloc=2,class=CODE,delta=1
    20                           	psect	text6,global,reloc=2,class=CODE,delta=1,group=1
    21                           	psect	text7,global,reloc=2,class=CODE,delta=1
    22                           	psect	text8,global,reloc=2,class=CODE,delta=1
    23                           	psect	text9,global,reloc=2,class=CODE,delta=1,group=2
    24                           	psect	text10,global,reloc=2,class=CODE,delta=1,group=2
    25                           	psect	text11,global,reloc=2,class=CODE,delta=1
    26                           	psect	text12,global,reloc=2,class=CODE,delta=1
    27                           	psect	text13,global,reloc=2,class=CODE,delta=1
    28                           	psect	text14,global,reloc=2,class=CODE,delta=1
    29                           	psect	text15,global,reloc=2,class=CODE,delta=1
    30                           	psect	text16,global,reloc=2,class=CODE,delta=1
    31                           	psect	text17,global,reloc=2,class=CODE,delta=1,group=1
    32                           	psect	text18,global,reloc=2,class=CODE,delta=1,group=1
    33                           	psect	text19,global,reloc=2,class=CODE,delta=1
    34                           	psect	text20,global,reloc=2,class=CODE,delta=1
    35                           	psect	text21,global,reloc=2,class=CODE,delta=1,group=1
    36                           	psect	text22,global,reloc=2,class=CODE,delta=1,group=1
    37                           	psect	text23,global,reloc=2,class=CODE,delta=1
    38                           	psect	text24,global,reloc=2,class=CODE,delta=1,group=1
    39                           	psect	text25,global,reloc=2,class=CODE,delta=1
    40                           	psect	text26,global,reloc=2,class=CODE,delta=1
    41                           	psect	text27,global,reloc=2,class=CODE,delta=1
    42                           	psect	text28,global,reloc=2,class=CODE,delta=1
    43                           	psect	text29,global,reloc=2,class=CODE,delta=1
    44                           	psect	text30,global,reloc=2,class=CODE,delta=1
    45                           	psect	text31,global,reloc=2,class=CODE,delta=1
    46                           	psect	text32,global,reloc=2,class=CODE,delta=1
    47                           	psect	text33,global,reloc=2,class=CODE,delta=1
    48                           	psect	intcode,global,reloc=2,class=CODE,delta=1
    49                           	psect	text35,global,reloc=2,class=CODE,delta=1
    50                           	psect	text36,global,reloc=2,class=CODE,delta=1
    51                           	psect	text37,global,reloc=2,class=CODE,delta=1
    52                           	psect	text38,global,reloc=2,class=CODE,delta=1
    53                           	psect	text39,global,reloc=2,class=CODE,delta=1
    54                           	psect	text40,global,reloc=2,class=CODE,delta=1,group=1
    55                           	psect	text41,global,reloc=2,class=CODE,delta=1
    56                           	psect	text42,global,reloc=2,class=CODE,delta=1
    57                           	psect	text43,global,reloc=2,class=CODE,delta=1
    58                           	psect	text44,global,reloc=2,class=CODE,delta=1
    59                           	psect	text45,global,reloc=2,class=CODE,delta=1
    60                           	psect	text46,global,reloc=2,class=CODE,delta=1
    61                           	psect	text47,global,reloc=2,class=CODE,delta=1
    62                           	psect	text48,global,reloc=2,class=CODE,delta=1,group=1
    63                           	psect	text49,global,reloc=2,class=CODE,delta=1,group=1
    64                           	psect	text50,global,reloc=2,class=CODE,delta=1,group=1
    65                           	psect	text51,global,reloc=2,class=CODE,delta=1
    66                           	psect	text52,global,reloc=2,class=CODE,delta=1
    67                           	psect	text53,global,reloc=2,class=CODE,delta=1
    68                           	psect	text54,global,reloc=2,class=CODE,delta=1
    69                           	psect	text55,global,reloc=2,class=CODE,delta=1
    70                           	psect	text56,global,reloc=2,class=CODE,delta=1
    71                           	psect	text57,global,reloc=2,class=CODE,delta=1
    72                           	psect	text58,global,reloc=2,class=CODE,delta=1,group=1
    73                           	psect	text59,global,reloc=2,class=CODE,delta=1
    74                           	psect	text60,global,reloc=2,class=CODE,delta=1
    75                           	psect	intsave_regs,global,class=BIGRAM,space=1,delta=1,noexec
    76                           	psect	rparam,global,class=COMRAM,space=1,delta=1,noexec
    77                           	psect	temp,global,ovrld,common,class=COMRAM,space=1,delta=1
    78  0000                     
    79                           ; Version 2.10
    80                           ; Generated 31/07/2019 GMT
    81                           ; 
    82                           ; Copyright © 2019, Microchip Technology Inc. and its subsidiaries ("Microchip")
    83                           ; All rights reserved.
    84                           ; 
    85                           ; This software is developed by Microchip Technology Inc. and its subsidiaries ("Microch
      +                          ip").
    86                           ; 
    87                           ; Redistribution and use in source and binary forms, with or without modification, are
    88                           ; permitted provided that the following conditions are met:
    89                           ; 
    90                           ;     1. Redistributions of source code must retain the above copyright notice, this lis
      +                          t of
    91                           ;        conditions and the following disclaimer.
    92                           ; 
    93                           ;     2. Redistributions in binary form must reproduce the above copyright notice, this 
      +                          list
    94                           ;        of conditions and the following disclaimer in the documentation and/or other
    95                           ;        materials provided with the distribution.
    96                           ; 
    97                           ;     3. Microchip's name may not be used to endorse or promote products derived from th
      +                          is
    98                           ;        software without specific prior written permission.
    99                           ; 
   100                           ; THIS SOFTWARE IS PROVIDED BY MICROCHIP "AS IS" AND ANY EXPRESS OR IMPLIED WARRANTIES,
   101                           ; INCLUDING, BUT NOT LIMITED TO, THE IMPLIED WARRANTIES OF MERCHANTABILITY AND FITNESS F
      +                          OR
   102                           ; PURPOSE ARE DISCLAIMED.  IN NO EVENT SHALL MICROCHIP BE LIABLE FOR ANY DIRECT, INDIREC
      +                          T,
   103                           ; INCIDENTAL, SPECIAL, EXEMPLARY, OR CONSEQUENTIAL DAMAGES (INCLUDING BUT NOT LIMITED TO
   104                           ; PROCUREMENT OF SUBSTITUTE GOODS OR SERVICES; LOSS OF USE, DATA OR PROFITS; OR BUSINESS
   105                           ; INTERRUPTION) HOWSOEVER CAUSED AND ON ANY THEORY OF LIABILITY, WHETHER IN CONTRACT, ST
      +                          RICT
   106                           ; LIABILITY, OR TORT (INCLUDING NEGLIGENCE OR OTHERWISE) ARISING IN ANY WAY OUT OF THE U
      +                          SE OF
   107                           ; THIS SOFTWARE, EVEN IF ADVISED OF THE POSSIBILITY OF SUCH DAMAGE.
   108                           ; 
   109                           ; 
   110                           ; Code-generator required, PIC18F4431 Definitions
   111                           ; 
   112                           ; SFR Addresses
   113  0000                     
   114                           	psect	idataBANK0
   115  003C94                     __pidataBANK0:
   116                           	opt callstack 0
   117                           
   118                           ;initializer for _setpoint
   119                           ;./Seguidor.h: 8: double sensor[7];;./Seguidor.h: 9: double leitura[7];;./Seguidor.h: 10
      +                          : double posin = 0;;./Seguidor.h: 11: double pos = 0;;./Seguidor.h: 12: double setpoint 
      +                          = 3.0;
   120  003C94  0000               	dw	0
   121  003C96  4040               	dw	16448
   122                           
   123                           ;initializer for _bspeed
   124  003C98  0014               	dw	20
   125                           
   126                           ;initializer for _comando
   127  003C9A  9B                 	db	low (STR_52+1)
   128  003C9B  03                 	db	high (STR_52+1)
   129                           
   130                           ;initializer for _recebido
   131  003C9C  0D                 	db	13
   132  0000                     _INTCONbits	set	4082
   133  0000                     _PORTE	set	3972
   134  0000                     _PORTD	set	3971
   135  0000                     _PORTC	set	3970
   136  0000                     _PORTB	set	3969
   137  0000                     _TRISE	set	3990
   138  0000                     _TRISD	set	3989
   139  0000                     _TRISC	set	3988
   140  0000                     _TRISB	set	3987
   141  0000                     _TRISA	set	3986
   142  0000                     _ANSEL1	set	4025
   143  0000                     _ANSEL0	set	4024
   144  0000                     _TMR0L	set	4054
   145  0000                     _T0CON	set	4053
   146  0000                     _PORTBbits	set	3969
   147  0000                     _TXREG	set	4013
   148  0000                     _RCREG	set	4014
   149  0000                     _PIR1bits	set	3998
   150  0000                     _TRISCbits	set	3988
   151  0000                     _RCSTAbits	set	4011
   152  0000                     _PIE1bits	set	3997
   153  0000                     _TXSTAbits	set	4012
   154  0000                     _SPBRG	set	4015
   155  0000                     _PDC3H	set	3954
   156  0000                     _PDC3L	set	3955
   157  0000                     _PDC2H	set	3956
   158  0000                     _PDC2L	set	3957
   159  0000                     _PDC1H	set	3958
   160  0000                     _PDC1L	set	3959
   161  0000                     _PDC0H	set	3960
   162  0000                     _PDC0L	set	3961
   163  0000                     _PTPERH	set	3962
   164  0000                     _PTPERL	set	3963
   165  0000                     _OVDCONS	set	3946
   166  0000                     _OVDCOND	set	3947
   167  0000                     _DTCON	set	3949
   168  0000                     _PWMCON1	set	3950
   169  0000                     _PWMCON0	set	3951
   170  0000                     _PTCON1	set	3966
   171  0000                     _PTCON0	set	3967
   172  0000                     _ADCHSbits	set	3993
   173  0000                     _ADRESL	set	4035
   174  0000                     _ADRESH	set	4036
   175  0000                     _ADCON3	set	3994
   176  0000                     _ADCON2bits	set	4032
   177  0000                     _ADCON0bits	set	4034
   178  0000                     _ADCON1bits	set	4033
   179  0000                     _TMR0IF	set	32658
   180  0000                     _TMR0ON	set	32431
   181  0000                     _RC3	set	31763
   182  0000                     _RC2	set	31762
   183  0000                     _RC1	set	31761
   184  0000                     _RC0	set	31760
   185  0000                     _TRMT	set	32097
   186                           
   187                           	psect	smallconst
   188  000300                     __psmallconst:
   189                           	opt callstack 0
   190  000300  00                 	db	0
   191  000301                     STR_5:
   192  000301  50                 	db	80	;'P'
   193  000302  57                 	db	87	;'W'
   194  000303  4D                 	db	77	;'M'
   195  000304  41                 	db	65	;'A'
   196  000305  20                 	db	32
   197  000306  54                 	db	84	;'T'
   198  000307  65                 	db	101	;'e'
   199  000308  73                 	db	115	;'s'
   200  000309  74                 	db	116	;'t'
   201  00030A  65                 	db	101	;'e'
   202  00030B  20                 	db	32
   203  00030C  46                 	db	70	;'F'
   204  00030D  69                 	db	105	;'i'
   205  00030E  6D                 	db	109	;'m'
   206  00030F  00                 	db	0
   207  000310                     STR_2:
   208  000310  50                 	db	80	;'P'
   209  000311  57                 	db	87	;'W'
   210  000312  4D                 	db	77	;'M'
   211  000313  41                 	db	65	;'A'
   212  000314  20                 	db	32
   213  000315  54                 	db	84	;'T'
   214  000316  65                 	db	101	;'e'
   215  000317  73                 	db	115	;'s'
   216  000318  74                 	db	116	;'t'
   217  000319  61                 	db	97	;'a'
   218  00031A  6E                 	db	110	;'n'
   219  00031B  64                 	db	100	;'d'
   220  00031C  6F                 	db	111	;'o'
   221  00031D  00                 	db	0
   222  00031E                     STR_46:
   223  00031E  74                 	db	116	;'t'
   224  00031F  65                 	db	101	;'e'
   225  000320  73                 	db	115	;'s'
   226  000321  74                 	db	116	;'t'
   227  000322  65                 	db	101	;'e'
   228  000323  4C                 	db	76	;'L'
   229  000324  61                 	db	97	;'a'
   230  000325  6D                 	db	109	;'m'
   231  000326  70                 	db	112	;'p'
   232  000327  61                 	db	97	;'a'
   233  000328  64                 	db	100	;'d'
   234  000329  61                 	db	97	;'a'
   235  00032A  73                 	db	115	;'s'
   236  00032B  00                 	db	0
   237  00032C                     STR_45:
   238  00032C  74                 	db	116	;'t'
   239  00032D  65                 	db	101	;'e'
   240  00032E  73                 	db	115	;'s'
   241  00032F  74                 	db	116	;'t'
   242  000330  65                 	db	101	;'e'
   243  000331  4D                 	db	77	;'M'
   244  000332  6F                 	db	111	;'o'
   245  000333  74                 	db	116	;'t'
   246  000334  6F                 	db	111	;'o'
   247  000335  72                 	db	114	;'r'
   248  000336  65                 	db	101	;'e'
   249  000337  73                 	db	115	;'s'
   250  000338  00                 	db	0
   251  000339                     STR_38:
   252  000339  2D                 	db	45
   253  00033A  2D                 	db	45
   254  00033B  2D                 	db	45
   255  00033C  2D                 	db	45
   256  00033D  2D                 	db	45
   257  00033E  2D                 	db	45
   258  00033F  2D                 	db	45
   259  000340  2D                 	db	45
   260  000341  2D                 	db	45
   261  000342  2D                 	db	45
   262  000343  00                 	db	0
   263  000344                     STR_49:
   264  000344  74                 	db	116	;'t'
   265  000345  65                 	db	101	;'e'
   266  000346  73                 	db	115	;'s'
   267  000347  74                 	db	116	;'t'
   268  000348  65                 	db	101	;'e'
   269  000349  41                 	db	65	;'A'
   270  00034A  44                 	db	68	;'D'
   271  00034B  62                 	db	98	;'b'
   272  00034C  69                 	db	105	;'i'
   273  00034D  74                 	db	116	;'t'
   274  00034E  00                 	db	0
   275  00034F                     STR_44:
   276  00034F  54                 	db	84	;'T'
   277  000350  69                 	db	105	;'i'
   278  000351  6D                 	db	109	;'m'
   279  000352  65                 	db	101	;'e'
   280  000353  72                 	db	114	;'r'
   281  000354  30                 	db	48	;'0'
   282  000355  20                 	db	32
   283  000356  6F                 	db	111	;'o'
   284  000357  6E                 	db	110	;'n'
   285  000358  00                 	db	0
   286  000359                     STR_22:
   287  000359  41                 	db	65	;'A'
   288  00035A  4E                 	db	78	;'N'
   289  00035B  30                 	db	48	;'0'
   290  00035C  3A                 	db	58	;':'
   291  00035D  20                 	db	32
   292  00035E  00                 	db	0
   293  00035F                     STR_24:
   294  00035F  41                 	db	65	;'A'
   295  000360  4E                 	db	78	;'N'
   296  000361  31                 	db	49	;'1'
   297  000362  3A                 	db	58	;':'
   298  000363  20                 	db	32
   299  000364  00                 	db	0
   300  000365                     STR_26:
   301  000365  41                 	db	65	;'A'
   302  000366  4E                 	db	78	;'N'
   303  000367  32                 	db	50	;'2'
   304  000368  3A                 	db	58	;':'
   305  000369  20                 	db	32
   306  00036A  00                 	db	0
   307  00036B                     STR_28:
   308  00036B  41                 	db	65	;'A'
   309  00036C  4E                 	db	78	;'N'
   310  00036D  33                 	db	51	;'3'
   311  00036E  3A                 	db	58	;':'
   312  00036F  20                 	db	32
   313  000370  00                 	db	0
   314  000371                     STR_30:
   315  000371  41                 	db	65	;'A'
   316  000372  4E                 	db	78	;'N'
   317  000373  34                 	db	52	;'4'
   318  000374  3A                 	db	58	;':'
   319  000375  20                 	db	32
   320  000376  00                 	db	0
   321  000377                     STR_32:
   322  000377  41                 	db	65	;'A'
   323  000378  4E                 	db	78	;'N'
   324  000379  35                 	db	53	;'5'
   325  00037A  3A                 	db	58	;':'
   326  00037B  20                 	db	32
   327  00037C  00                 	db	0
   328  00037D                     STR_34:
   329  00037D  41                 	db	65	;'A'
   330  00037E  4E                 	db	78	;'N'
   331  00037F  36                 	db	54	;'6'
   332  000380  3A                 	db	58	;':'
   333  000381  20                 	db	32
   334  000382  00                 	db	0
   335  000383                     STR_36:
   336  000383  41                 	db	65	;'A'
   337  000384  4E                 	db	78	;'N'
   338  000385  37                 	db	55	;'7'
   339  000386  3A                 	db	58	;':'
   340  000387  20                 	db	32
   341  000388  00                 	db	0
   342  000389                     STR_51:
   343  000389  49                 	db	73	;'I'
   344  00038A  44                 	db	68	;'D'
   345  00038B  4C                 	db	76	;'L'
   346  00038C  45                 	db	69	;'E'
   347  00038D  00                 	db	0
   348  00038E                     STR_3:
   349  00038E  69                 	db	105	;'i'
   350  00038F  64                 	db	100	;'d'
   351  000390  6C                 	db	108	;'l'
   352  000391  65                 	db	101	;'e'
   353  000392  00                 	db	0
   354  000393                     STR_48:
   355  000393  50                 	db	80	;'P'
   356  000394  49                 	db	73	;'I'
   357  000395  44                 	db	68	;'D'
   358  000396  00                 	db	0
   359  000397                     STR_47:
   360  000397  41                 	db	65	;'A'
   361  000398  44                 	db	68	;'D'
   362  000399  00                 	db	0
   363  00039A                     STR_52:
   364  00039A  00                 	db	0
   365  00039B  00                 	db	0
   366  00039C                     STR_23:
   367  00039C  0D                 	db	13
   368  00039D  00                 	db	0
   369  0000                     
   370                           ; #config settings
   371  00039E  00                 	db	0	; dummy byte at the end
   372  0000                     
   373                           	psect	cinit
   374  00395E                     __pcinit:
   375                           	opt callstack 0
   376  00395E                     start_initialization:
   377                           	opt callstack 0
   378  00395E                     __initialization:
   379                           	opt callstack 0
   380                           
   381                           ; Initialize objects allocated to BANK0 (9 bytes)
   382                           ; load TBLPTR registers with __pidataBANK0
   383  00395E  0E94               	movlw	low __pidataBANK0
   384  003960  6EF6               	movwf	tblptrl,c
   385  003962  0E3C               	movlw	high __pidataBANK0
   386  003964  6EF7               	movwf	tblptrh,c
   387  003966  0E00               	movlw	low (__pidataBANK0 shr (0+16))
   388  003968  6EF8               	movwf	tblptru,c
   389  00396A  EE00  F0D9         	lfsr	0,__pdataBANK0
   390  00396E  EE10 F009          	lfsr	1,9
   391  003972                     copy_data0:
   392  003972  0009               	tblrd		*+
   393  003974  CFF5 FFEE          	movff	tablat,postinc0
   394  003978  50E5               	movf	postdec1,w,c
   395  00397A  50E1               	movf	fsr1l,w,c
   396  00397C  E1FA               	bnz	copy_data0
   397                           
   398                           ; Clear objects allocated to BANK1 (98 bytes)
   399  00397E  EE01  F000         	lfsr	0,__pbssBANK1
   400  003982  0E62               	movlw	98
   401  003984                     clear_0:
   402  003984  6AEE               	clrf	postinc0,c
   403  003986  06E8               	decf	wreg,f,c
   404  003988  E1FD               	bnz	clear_0
   405                           
   406                           ; Clear objects allocated to BANK0 (36 bytes)
   407  00398A  EE00  F0B5         	lfsr	0,__pbssBANK0
   408  00398E  0E24               	movlw	36
   409  003990                     clear_1:
   410  003990  6AEE               	clrf	postinc0,c
   411  003992  06E8               	decf	wreg,f,c
   412  003994  E1FD               	bnz	clear_1
   413  003996                     end_of_initialization:
   414                           	opt callstack 0
   415  003996                     __end_of__initialization:
   416                           	opt callstack 0
   417  003996  905F               	bcf	int$flags,0,c	;clear compiler interrupt flag (level 1)
   418  003998  925F               	bcf	int$flags,1,c	;clear compiler interrupt flag (level 2)
   419  00399A  0E00               	movlw	low (__Lmediumconst shr (0+16))
   420  00399C  6EF8               	movwf	tblptru,c
   421  00399E  0100               	movlb	0
   422  0039A0  EF0D  F012         	goto	_main	;jump to C main() function
   423                           
   424                           	psect	bssBANK0
   425  0000B5                     __pbssBANK0:
   426                           	opt callstack 0
   427  0000B5                     _dt:
   428                           	opt callstack 0
   429  0000B5                     	ds	4
   430  0000B9                     _I:
   431                           	opt callstack 0
   432  0000B9                     	ds	4
   433  0000BD                     _P:
   434                           	opt callstack 0
   435  0000BD                     	ds	4
   436  0000C1                     _erro:
   437                           	opt callstack 0
   438  0000C1                     	ds	4
   439  0000C5                     _pos:
   440                           	opt callstack 0
   441  0000C5                     	ds	4
   442  0000C9                     _posin:
   443                           	opt callstack 0
   444  0000C9                     	ds	4
   445  0000CD                     _millis:
   446                           	opt callstack 0
   447  0000CD                     	ds	4
   448  0000D1                     _vanal_AN:
   449                           	opt callstack 0
   450  0000D1                     	ds	4
   451  0000D5                     	ds	2
   452  0000D7                     _vdig_AN:
   453                           	opt callstack 0
   454  0000D7                     	ds	2
   455                           
   456                           	psect	dataBANK0
   457  0000D9                     __pdataBANK0:
   458                           	opt callstack 0
   459  0000D9                     _setpoint:
   460                           	opt callstack 0
   461  0000D9                     	ds	4
   462  0000DD                     _bspeed:
   463                           	opt callstack 0
   464  0000DD                     	ds	2
   465  0000DF                     _comando:
   466                           	opt callstack 0
   467  0000DF                     	ds	2
   468  0000E1                     _recebido:
   469                           	opt callstack 0
   470  0000E1                     	ds	1
   471                           
   472                           	psect	bssBANK1
   473  000100                     __pbssBANK1:
   474                           	opt callstack 0
   475  000100                     _leitura:
   476                           	opt callstack 0
   477  000100                     	ds	28
   478  00011C                     _sensor:
   479                           	opt callstack 0
   480  00011C                     	ds	28
   481  000138                     	ds	5
   482  00013D                     	ds	5
   483  000142                     _erroi:
   484                           	opt callstack 0
   485  000142                     	ds	4
   486  000146                     _tf:
   487                           	opt callstack 0
   488  000146                     	ds	4
   489  00014A                     _de:
   490                           	opt callstack 0
   491  00014A                     	ds	4
   492  00014E                     _kd:
   493                           	opt callstack 0
   494  00014E                     	ds	4
   495  000152                     _ki:
   496                           	opt callstack 0
   497  000152                     	ds	4
   498  000156                     _kp:
   499                           	opt callstack 0
   500  000156                     	ds	4
   501  00015A                     _PID:
   502                           	opt callstack 0
   503  00015A                     	ds	4
   504  00015E                     _D:
   505                           	opt callstack 0
   506  00015E                     	ds	4
   507                           
   508                           	psect	cstackBANK1
   509  000162                     __pcstackBANK1:
   510                           	opt callstack 0
   511  000162                     valorConvUART@centena:
   512                           	opt callstack 0
   513                           
   514                           ; 2 bytes @ 0x0
   515  000162                     	ds	2
   516  000164                     valorConvUART@dezena:
   517                           	opt callstack 0
   518                           
   519                           ; 2 bytes @ 0x2
   520  000164                     	ds	2
   521  000166                     valorConvUART@unidade:
   522                           	opt callstack 0
   523                           
   524                           ; 2 bytes @ 0x4
   525  000166                     	ds	2
   526  000168                     _valorConvUART$1568:
   527                           	opt callstack 0
   528                           
   529                           ; 2 bytes @ 0x6
   530  000168                     	ds	2
   531  00016A                     valorConvUART@string:
   532                           	opt callstack 0
   533                           
   534                           ; 5 bytes @ 0x8
   535  00016A                     	ds	5
   536  00016F                     UARTSendString@str:
   537                           	opt callstack 0
   538                           
   539                           ; 2 bytes @ 0xD
   540  00016F                     	ds	2
   541  000171                     UARTSendString@max_length:
   542                           	opt callstack 0
   543                           
   544                           ; 2 bytes @ 0xF
   545  000171                     	ds	2
   546  000173                     ??_UARTSendString:
   547                           
   548                           ; 1 bytes @ 0x11
   549  000173                     	ds	2
   550  000175                     UARTSendString@i:
   551                           	opt callstack 0
   552                           
   553                           ; 2 bytes @ 0x13
   554  000175                     	ds	2
   555  000177                     ??_testeMotores:
   556  000177                     ??_testeAD:
   557  000177                     ??_testeADbit:
   558                           
   559                           ; 1 bytes @ 0x15
   560  000177                     	ds	1
   561  000178                     testeMotores@i:
   562                           	opt callstack 0
   563                           
   564                           ; 2 bytes @ 0x16
   565  000178                     	ds	1
   566  000179                     testeADbit@string:
   567                           	opt callstack 0
   568                           
   569                           ; 2 bytes @ 0x17
   570  000179                     	ds	2
   571  00017B                     testeADbit@i:
   572                           	opt callstack 0
   573                           
   574                           ; 2 bytes @ 0x19
   575  00017B                     	ds	2
   576  00017D                     ??_main:
   577                           
   578                           ; 1 bytes @ 0x1B
   579  00017D                     	ds	1
   580                           
   581                           	psect	cstackBANK0
   582  000060                     __pcstackBANK0:
   583                           	opt callstack 0
   584  000060                     posicao@local:
   585                           	opt callstack 0
   586                           
   587                           ; 4 bytes @ 0x0
   588  000060                     	ds	4
   589  000064                     posicao@pos:
   590                           	opt callstack 0
   591                           
   592                           ; 4 bytes @ 0x4
   593  000064                     	ds	4
   594  000068                     posicao@total:
   595                           	opt callstack 0
   596                           
   597                           ; 4 bytes @ 0x8
   598  000068                     	ds	4
   599  00006C                     posicao@i:
   600                           	opt callstack 0
   601                           
   602                           ; 2 bytes @ 0xC
   603  00006C                     	ds	2
   604  00006E                     _setPID$1573:
   605                           	opt callstack 0
   606                           
   607                           ; 4 bytes @ 0xE
   608  00006E                     	ds	4
   609  000072                     _setPID$1692:
   610                           	opt callstack 0
   611                           
   612                           ; 4 bytes @ 0x12
   613  000072                     	ds	4
   614  000076                     ??_ISR:
   615                           
   616                           ; 1 bytes @ 0x16
   617  000076                     	ds	8
   618  00007E                     ?_bitExtract:
   619                           	opt callstack 0
   620  00007E                     ?_strlen:
   621                           	opt callstack 0
   622  00007E                     ?_readAD_ANbit:
   623                           	opt callstack 0
   624  00007E                     ?___wmul:
   625                           	opt callstack 0
   626  00007E                     ?___awdiv:
   627                           	opt callstack 0
   628  00007E                     ?___fltol:
   629                           	opt callstack 0
   630  00007E                     ?___xxtofl:
   631                           	opt callstack 0
   632  00007E                     UARTReadChar@ler:
   633                           	opt callstack 0
   634  00007E                     UARTSendChar@c:
   635                           	opt callstack 0
   636  00007E                     bitExtract@numero:
   637                           	opt callstack 0
   638  00007E                     initTimer0@tempoInicial:
   639                           	opt callstack 0
   640  00007E                     ___wmul@multiplier:
   641                           	opt callstack 0
   642  00007E                     ___awdiv@dividend:
   643                           	opt callstack 0
   644  00007E                     strlen@s:
   645                           	opt callstack 0
   646  00007E                     ___fltol@f1:
   647                           	opt callstack 0
   648  00007E                     ___xxtofl@val:
   649                           	opt callstack 0
   650                           
   651                           ; 4 bytes @ 0x1E
   652  00007E                     	ds	2
   653  000080                     bitExtract@k:
   654                           	opt callstack 0
   655  000080                     ___wmul@multiplicand:
   656                           	opt callstack 0
   657  000080                     ___awdiv@divisor:
   658                           	opt callstack 0
   659  000080                     strlen@a:
   660                           	opt callstack 0
   661                           
   662                           ; 2 bytes @ 0x20
   663  000080                     	ds	2
   664  000082                     ??___fltol:
   665  000082                     ??___xxtofl:
   666  000082                     ?_strncmp:
   667                           	opt callstack 0
   668  000082                     ___awdiv@counter:
   669                           	opt callstack 0
   670  000082                     bitExtract@p:
   671                           	opt callstack 0
   672  000082                     ___wmul@product:
   673                           	opt callstack 0
   674  000082                     strncmp@_l:
   675                           	opt callstack 0
   676                           
   677                           ; 2 bytes @ 0x22
   678  000082                     	ds	1
   679  000083                     ___awdiv@sign:
   680                           	opt callstack 0
   681                           
   682                           ; 1 bytes @ 0x23
   683  000083                     	ds	1
   684  000084                     ??_bitExtract:
   685  000084                     setDutyPWM0@porcVelo:
   686                           	opt callstack 0
   687  000084                     setDutyPWM2@porcVelo:
   688                           	opt callstack 0
   689  000084                     setDutyPWM4@porcVelo:
   690                           	opt callstack 0
   691  000084                     setDutyPWM6@porcVelo:
   692                           	opt callstack 0
   693  000084                     ___awdiv@quotient:
   694                           	opt callstack 0
   695  000084                     strncmp@_r:
   696                           	opt callstack 0
   697                           
   698                           ; 2 bytes @ 0x24
   699  000084                     	ds	2
   700  000086                     ?___awmod:
   701                           	opt callstack 0
   702  000086                     ___fltol@sign1:
   703                           	opt callstack 0
   704  000086                     ___xxtofl@sign:
   705                           	opt callstack 0
   706  000086                     setDutyPWM0@velo:
   707                           	opt callstack 0
   708  000086                     setDutyPWM2@velo:
   709                           	opt callstack 0
   710  000086                     setDutyPWM4@velo:
   711                           	opt callstack 0
   712  000086                     setDutyPWM6@velo:
   713                           	opt callstack 0
   714  000086                     ___awmod@dividend:
   715                           	opt callstack 0
   716  000086                     strncmp@n:
   717                           	opt callstack 0
   718                           
   719                           ; 2 bytes @ 0x26
   720  000086                     	ds	1
   721  000087                     ___fltol@exp1:
   722                           	opt callstack 0
   723  000087                     ___xxtofl@exp:
   724                           	opt callstack 0
   725                           
   726                           ; 1 bytes @ 0x27
   727  000087                     	ds	1
   728  000088                     ??_strncmp:
   729  000088                     ___awmod@divisor:
   730                           	opt callstack 0
   731  000088                     ___xxtofl@arg:
   732                           	opt callstack 0
   733                           
   734                           ; 4 bytes @ 0x28
   735  000088                     	ds	1
   736  000089                     strncmp@l:
   737                           	opt callstack 0
   738                           
   739                           ; 2 bytes @ 0x29
   740  000089                     	ds	1
   741  00008A                     ___awmod@counter:
   742                           	opt callstack 0
   743                           
   744                           ; 1 bytes @ 0x2A
   745  00008A                     	ds	1
   746  00008B                     ___awmod@sign:
   747                           	opt callstack 0
   748  00008B                     strncmp@r:
   749                           	opt callstack 0
   750                           
   751                           ; 2 bytes @ 0x2B
   752  00008B                     	ds	1
   753  00008C                     ?_getAD_ANbit:
   754                           	opt callstack 0
   755  00008C                     ?___flmul:
   756                           	opt callstack 0
   757  00008C                     getAD_ANbit@porta:
   758                           	opt callstack 0
   759  00008C                     ___flmul@b:
   760                           	opt callstack 0
   761                           
   762                           ; 4 bytes @ 0x2C
   763  00008C                     	ds	1
   764  00008D                     ?_myStrncmp:
   765                           	opt callstack 0
   766  00008D                     myStrncmp@str1:
   767                           	opt callstack 0
   768                           
   769                           ; 2 bytes @ 0x2D
   770  00008D                     	ds	1
   771  00008E                     getAD_ANbit@ANread:
   772                           	opt callstack 0
   773                           
   774                           ; 2 bytes @ 0x2E
   775  00008E                     	ds	1
   776  00008F                     myStrncmp@str2:
   777                           	opt callstack 0
   778                           
   779                           ; 2 bytes @ 0x2F
   780  00008F                     	ds	1
   781  000090                     ?_valorConvUARTbit:
   782                           	opt callstack 0
   783  000090                     valorConvUARTbit@valor:
   784                           	opt callstack 0
   785  000090                     ___flmul@a:
   786                           	opt callstack 0
   787                           
   788                           ; 4 bytes @ 0x30
   789  000090                     	ds	1
   790  000091                     ??_testeLampadas:
   791                           
   792                           ; 1 bytes @ 0x31
   793  000091                     	ds	1
   794  000092                     valorConvUARTbit@milhar:
   795                           	opt callstack 0
   796                           
   797                           ; 2 bytes @ 0x32
   798  000092                     	ds	1
   799  000093                     testeLampadas@i:
   800                           	opt callstack 0
   801                           
   802                           ; 2 bytes @ 0x33
   803  000093                     	ds	1
   804  000094                     ??___flmul:
   805  000094                     valorConvUARTbit@centena:
   806                           	opt callstack 0
   807                           
   808                           ; 2 bytes @ 0x34
   809  000094                     	ds	2
   810  000096                     valorConvUARTbit@dezena:
   811                           	opt callstack 0
   812                           
   813                           ; 2 bytes @ 0x36
   814  000096                     	ds	2
   815  000098                     ___flmul@sign:
   816                           	opt callstack 0
   817  000098                     valorConvUARTbit@unidade:
   818                           	opt callstack 0
   819                           
   820                           ; 2 bytes @ 0x38
   821  000098                     	ds	1
   822  000099                     ___flmul@grs:
   823                           	opt callstack 0
   824                           
   825                           ; 4 bytes @ 0x39
   826  000099                     	ds	1
   827  00009A                     _valorConvUARTbit$1569:
   828                           	opt callstack 0
   829                           
   830                           ; 2 bytes @ 0x3A
   831  00009A                     	ds	2
   832  00009C                     valorConvUARTbit@string:
   833                           	opt callstack 0
   834                           
   835                           ; 5 bytes @ 0x3C
   836  00009C                     	ds	1
   837  00009D                     ___flmul@aexp:
   838                           	opt callstack 0
   839                           
   840                           ; 1 bytes @ 0x3D
   841  00009D                     	ds	1
   842  00009E                     ___flmul@bexp:
   843                           	opt callstack 0
   844                           
   845                           ; 1 bytes @ 0x3E
   846  00009E                     	ds	1
   847  00009F                     ___flmul@prod:
   848                           	opt callstack 0
   849                           
   850                           ; 4 bytes @ 0x3F
   851  00009F                     	ds	4
   852  0000A3                     ___flmul@temp:
   853                           	opt callstack 0
   854                           
   855                           ; 2 bytes @ 0x43
   856  0000A3                     	ds	2
   857  0000A5                     ?_readAD_AN:
   858                           	opt callstack 0
   859                           
   860                           ; 4 bytes @ 0x45
   861  0000A5                     	ds	4
   862  0000A9                     _readAD_AN$1570:
   863                           	opt callstack 0
   864                           
   865                           ; 4 bytes @ 0x49
   866  0000A9                     	ds	4
   867  0000AD                     ?_getAD_AN:
   868                           	opt callstack 0
   869  0000AD                     getAD_AN@porta:
   870                           	opt callstack 0
   871                           
   872                           ; 2 bytes @ 0x4D
   873  0000AD                     	ds	2
   874  0000AF                     getAD_AN@ANread:
   875                           	opt callstack 0
   876                           
   877                           ; 4 bytes @ 0x4F
   878  0000AF                     	ds	4
   879  0000B3                     ?_valorConvUART:
   880                           	opt callstack 0
   881  0000B3                     valorConvUART@valor:
   882                           	opt callstack 0
   883                           
   884                           ; 2 bytes @ 0x53
   885  0000B3                     	ds	2
   886  0000B5                     
   887                           ; 1 bytes @ 0x55
   888                           
   889                           	psect	cstackCOMRAM
   890  000001                     __pcstackCOMRAM:
   891                           	opt callstack 0
   892  000001                     ?i2_bitExtract:
   893                           	opt callstack 0
   894  000001                     ?i2___wmul:
   895                           	opt callstack 0
   896  000001                     ?i2___xxtofl:
   897                           	opt callstack 0
   898  000001                     i2UARTSendChar@c:
   899                           	opt callstack 0
   900  000001                     setEstrategia@c:
   901                           	opt callstack 0
   902  000001                     i2bitExtract@numero:
   903                           	opt callstack 0
   904  000001                     i2___wmul@multiplier:
   905                           	opt callstack 0
   906  000001                     ___fleq@ff1:
   907                           	opt callstack 0
   908  000001                     ___flge@ff1:
   909                           	opt callstack 0
   910  000001                     i2___xxtofl@val:
   911                           	opt callstack 0
   912                           
   913                           ; 4 bytes @ 0x0
   914  000001                     	ds	1
   915  000002                     i2UARTSendString@str:
   916                           	opt callstack 0
   917                           
   918                           ; 2 bytes @ 0x1
   919  000002                     	ds	1
   920  000003                     i2bitExtract@k:
   921                           	opt callstack 0
   922  000003                     i2___wmul@multiplicand:
   923                           	opt callstack 0
   924                           
   925                           ; 2 bytes @ 0x2
   926  000003                     	ds	1
   927  000004                     i2UARTSendString@max_length:
   928                           	opt callstack 0
   929                           
   930                           ; 2 bytes @ 0x3
   931  000004                     	ds	1
   932  000005                     ??i2___xxtofl:
   933  000005                     i2bitExtract@p:
   934                           	opt callstack 0
   935  000005                     i2___wmul@product:
   936                           	opt callstack 0
   937  000005                     ___fleq@ff2:
   938                           	opt callstack 0
   939  000005                     ___flge@ff2:
   940                           	opt callstack 0
   941                           
   942                           ; 4 bytes @ 0x4
   943  000005                     	ds	1
   944  000006                     ??i2_UARTSendString:
   945                           
   946                           ; 1 bytes @ 0x5
   947  000006                     	ds	1
   948  000007                     ??i2_bitExtract:
   949  000007                     i2setDutyPWM0@porcVelo:
   950                           	opt callstack 0
   951  000007                     i2setDutyPWM2@porcVelo:
   952                           	opt callstack 0
   953  000007                     i2setDutyPWM4@porcVelo:
   954                           	opt callstack 0
   955  000007                     i2setDutyPWM6@porcVelo:
   956                           	opt callstack 0
   957                           
   958                           ; 2 bytes @ 0x6
   959  000007                     	ds	1
   960  000008                     i2UARTSendString@i:
   961                           	opt callstack 0
   962                           
   963                           ; 2 bytes @ 0x7
   964  000008                     	ds	1
   965  000009                     ??___fleq:
   966  000009                     ??___flge:
   967  000009                     i2___xxtofl@sign:
   968                           	opt callstack 0
   969  000009                     i2setDutyPWM0@velo:
   970                           	opt callstack 0
   971  000009                     i2setDutyPWM2@velo:
   972                           	opt callstack 0
   973  000009                     i2setDutyPWM4@velo:
   974                           	opt callstack 0
   975  000009                     i2setDutyPWM6@velo:
   976                           	opt callstack 0
   977                           
   978                           ; 2 bytes @ 0x8
   979  000009                     	ds	1
   980  00000A                     i2___xxtofl@exp:
   981                           	opt callstack 0
   982                           
   983                           ; 1 bytes @ 0x9
   984  00000A                     	ds	1
   985  00000B                     i2___xxtofl@arg:
   986                           	opt callstack 0
   987                           
   988                           ; 4 bytes @ 0xA
   989  00000B                     	ds	4
   990  00000F                     ?i2___flmul:
   991                           	opt callstack 0
   992  00000F                     i2___flmul@b:
   993                           	opt callstack 0
   994                           
   995                           ; 4 bytes @ 0xE
   996  00000F                     	ds	4
   997  000013                     i2___flmul@a:
   998                           	opt callstack 0
   999                           
  1000                           ; 4 bytes @ 0x12
  1001  000013                     	ds	4
  1002  000017                     ??i2___flmul:
  1003                           
  1004                           ; 1 bytes @ 0x16
  1005  000017                     	ds	4
  1006  00001B                     i2___flmul@sign:
  1007                           	opt callstack 0
  1008                           
  1009                           ; 1 bytes @ 0x1A
  1010  00001B                     	ds	1
  1011  00001C                     i2___flmul@grs:
  1012                           	opt callstack 0
  1013                           
  1014                           ; 4 bytes @ 0x1B
  1015  00001C                     	ds	4
  1016  000020                     i2___flmul@aexp:
  1017                           	opt callstack 0
  1018                           
  1019                           ; 1 bytes @ 0x1F
  1020  000020                     	ds	1
  1021  000021                     i2___flmul@bexp:
  1022                           	opt callstack 0
  1023                           
  1024                           ; 1 bytes @ 0x20
  1025  000021                     	ds	1
  1026  000022                     i2___flmul@prod:
  1027                           	opt callstack 0
  1028                           
  1029                           ; 4 bytes @ 0x21
  1030  000022                     	ds	4
  1031  000026                     i2___flmul@temp:
  1032                           	opt callstack 0
  1033                           
  1034                           ; 2 bytes @ 0x25
  1035  000026                     	ds	2
  1036  000028                     ?___fladd:
  1037                           	opt callstack 0
  1038  000028                     ?i2_readAD_AN:
  1039                           	opt callstack 0
  1040  000028                     ___fladd@b:
  1041                           	opt callstack 0
  1042                           
  1043                           ; 4 bytes @ 0x27
  1044  000028                     	ds	4
  1045  00002C                     ___fladd@a:
  1046                           	opt callstack 0
  1047  00002C                     i2_readAD_AN$1693:
  1048                           	opt callstack 0
  1049                           
  1050                           ; 4 bytes @ 0x2B
  1051  00002C                     	ds	4
  1052  000030                     ??___fladd:
  1053                           
  1054                           ; 1 bytes @ 0x2F
  1055  000030                     	ds	4
  1056  000034                     ___fladd@signs:
  1057                           	opt callstack 0
  1058                           
  1059                           ; 1 bytes @ 0x33
  1060  000034                     	ds	1
  1061  000035                     ___fladd@aexp:
  1062                           	opt callstack 0
  1063                           
  1064                           ; 1 bytes @ 0x34
  1065  000035                     	ds	1
  1066  000036                     ___fladd@bexp:
  1067                           	opt callstack 0
  1068                           
  1069                           ; 1 bytes @ 0x35
  1070  000036                     	ds	1
  1071  000037                     ___fladd@grs:
  1072                           	opt callstack 0
  1073                           
  1074                           ; 1 bytes @ 0x36
  1075  000037                     	ds	1
  1076  000038                     ?___flsub:
  1077                           	opt callstack 0
  1078  000038                     ___flsub@b:
  1079                           	opt callstack 0
  1080                           
  1081                           ; 4 bytes @ 0x37
  1082  000038                     	ds	4
  1083  00003C                     ___flsub@a:
  1084                           	opt callstack 0
  1085                           
  1086                           ; 4 bytes @ 0x3B
  1087  00003C                     	ds	4
  1088  000040                     ?___fldiv:
  1089                           	opt callstack 0
  1090  000040                     ?i2___fltol:
  1091                           	opt callstack 0
  1092  000040                     ___fldiv@b:
  1093                           	opt callstack 0
  1094  000040                     i2___fltol@f1:
  1095                           	opt callstack 0
  1096                           
  1097                           ; 4 bytes @ 0x3F
  1098  000040                     	ds	4
  1099  000044                     ??i2___fltol:
  1100  000044                     ___fldiv@a:
  1101                           	opt callstack 0
  1102                           
  1103                           ; 4 bytes @ 0x43
  1104  000044                     	ds	4
  1105  000048                     ??___fldiv:
  1106  000048                     i2___fltol@sign1:
  1107                           	opt callstack 0
  1108                           
  1109                           ; 1 bytes @ 0x47
  1110  000048                     	ds	1
  1111  000049                     i2___fltol@exp1:
  1112                           	opt callstack 0
  1113                           
  1114                           ; 1 bytes @ 0x48
  1115  000049                     	ds	1
  1116  00004A                     ?i2_getAD_AN:
  1117                           	opt callstack 0
  1118  00004A                     lados@porcVelo:
  1119                           	opt callstack 0
  1120  00004A                     i2getAD_AN@porta:
  1121                           	opt callstack 0
  1122                           
  1123                           ; 2 bytes @ 0x49
  1124  00004A                     	ds	2
  1125  00004C                     lados@lado:
  1126                           	opt callstack 0
  1127  00004C                     ___fldiv@rem:
  1128                           	opt callstack 0
  1129  00004C                     i2getAD_AN@ANread:
  1130                           	opt callstack 0
  1131                           
  1132                           ; 4 bytes @ 0x4B
  1133  00004C                     	ds	1
  1134  00004D                     moverMotor@PID:
  1135                           	opt callstack 0
  1136                           
  1137                           ; 4 bytes @ 0x4C
  1138  00004D                     	ds	3
  1139  000050                     ??_configDA:
  1140  000050                     ___fldiv@sign:
  1141                           	opt callstack 0
  1142                           
  1143                           ; 1 bytes @ 0x4F
  1144  000050                     	ds	1
  1145  000051                     ___fldiv@new_exp:
  1146                           	opt callstack 0
  1147                           
  1148                           ; 2 bytes @ 0x50
  1149  000051                     	ds	1
  1150  000052                     _configDA$1691:
  1151                           	opt callstack 0
  1152                           
  1153                           ; 4 bytes @ 0x51
  1154  000052                     	ds	1
  1155  000053                     ___fldiv@grs:
  1156                           	opt callstack 0
  1157                           
  1158                           ; 4 bytes @ 0x52
  1159  000053                     	ds	3
  1160  000056                     configDA@i:
  1161                           	opt callstack 0
  1162                           
  1163                           ; 2 bytes @ 0x55
  1164  000056                     	ds	1
  1165  000057                     ___fldiv@bexp:
  1166                           	opt callstack 0
  1167                           
  1168                           ; 1 bytes @ 0x56
  1169  000057                     	ds	1
  1170  000058                     ___fldiv@aexp:
  1171                           	opt callstack 0
  1172                           
  1173                           ; 1 bytes @ 0x57
  1174  000058                     	ds	1
  1175  000059                     ?_posicao:
  1176                           	opt callstack 0
  1177                           
  1178                           ; 4 bytes @ 0x58
  1179  000059                     	ds	4
  1180  00005D                     ??_posicao:
  1181                           
  1182                           ; 1 bytes @ 0x5C
  1183  00005D                     	ds	2
  1184  00005F                     
  1185                           ; 1 bytes @ 0x5E
  1186 ;;
  1187 ;;Main: autosize = 0, tempsize = 1, incstack = 0, save=0
  1188 ;;
  1189 ;; *************** function _main *****************
  1190 ;; Defined at:
  1191 ;;		line 94 in file "main.c"
  1192 ;; Parameters:    Size  Location     Type
  1193 ;;		None
  1194 ;; Auto vars:     Size  Location     Type
  1195 ;;  AN6             2    0        int 
  1196 ;;  AN5             2    0        int 
  1197 ;;  AN4             2    0        int 
  1198 ;;  AN3             2    0        int 
  1199 ;;  AN2             2    0        int 
  1200 ;;  AN1             2    0        int 
  1201 ;;  AN0             2    0        int 
  1202 ;; Return value:  Size  Location     Type
  1203 ;;                  1    wreg      void 
  1204 ;; Registers used:
  1205 ;;		wreg, fsr2l, fsr2h, status,2, status,0, tblptrl, tblptrh, tblptru, prodl, prodh, cstack
  1206 ;; Tracked objects:
  1207 ;;		On entry : 0/0
  1208 ;;		On exit  : 0/0
  1209 ;;		Unchanged: 0/0
  1210 ;; Data sizes:     COMRAM   BANK0   BANK1   BANK2
  1211 ;;      Params:         0       0       0       0
  1212 ;;      Locals:         0       0       0       0
  1213 ;;      Temps:          0       0       1       0
  1214 ;;      Totals:         0       0       1       0
  1215 ;;Total ram usage:        1 bytes
  1216 ;; Hardware stack levels required when called:   10
  1217 ;; This function calls:
  1218 ;;		_UARTReadChar
  1219 ;;		_UARTSendChar
  1220 ;;		_UARTSendString
  1221 ;;		_configAD
  1222 ;;		_configBits
  1223 ;;		_configPWM
  1224 ;;		_configUSART
  1225 ;;		_initTimer0
  1226 ;;		_myStrncmp
  1227 ;;		_testeAD
  1228 ;;		_testeADbit
  1229 ;;		_testeLampadas
  1230 ;;		_testeMotores
  1231 ;; This function is called by:
  1232 ;;		Startup code after reset
  1233 ;; This function uses a non-reentrant model
  1234 ;;
  1235                           
  1236                           	psect	text0
  1237  00241A                     __ptext0:
  1238                           	opt callstack 0
  1239  00241A                     _main:
  1240                           	opt callstack 21
  1241  00241A                     
  1242                           ;main.c: 99:     _delay((unsigned long)((20)*(20000000/4000.0)));
  1243  00241A  0E82               	movlw	130
  1244  00241C  0101               	movlb	1	; () banked
  1245  00241E  6F7D               	movwf	??_main& (0+255),b
  1246  002420  0EDD               	movlw	221
  1247  002422                     u5667:
  1248  002422  2EE8               	decfsz	wreg,f,c
  1249  002424  D7FE               	bra	u5667
  1250  002426  2F7D               	decfsz	??_main& (0+255),f,b
  1251  002428  D7FC               	bra	u5667
  1252  00242A  F000 F000          	nop2	
  1253  00242E                     
  1254                           ;main.c: 101:     ANSEL0 = 0b11111111;
  1255  00242E  68B8               	setf	184,c	;volatile
  1256  002430                     
  1257                           ;main.c: 102:     ANSEL1 = 0b00000001;
  1258  002430  0E01               	movlw	1
  1259  002432  6EB9               	movwf	185,c	;volatile
  1260  002434                     
  1261                           ;main.c: 104:     TRISA = 0b11111111;
  1262  002434  6892               	setf	146,c	;volatile
  1263  002436                     
  1264                           ;main.c: 105:     TRISB = 0b00000000;
  1265  002436  0E00               	movlw	0
  1266  002438  6E93               	movwf	147,c	;volatile
  1267  00243A                     
  1268                           ;main.c: 106:     TRISC = 0b10000000;
  1269  00243A  0E80               	movlw	128
  1270  00243C  6E94               	movwf	148,c	;volatile
  1271  00243E                     
  1272                           ;main.c: 107:     TRISD = 0b00011100;
  1273  00243E  0E1C               	movlw	28
  1274  002440  6E95               	movwf	149,c	;volatile
  1275  002442                     
  1276                           ;main.c: 108:     TRISE = 0b00000111;
  1277  002442  0E07               	movlw	7
  1278  002444  6E96               	movwf	150,c	;volatile
  1279  002446                     
  1280                           ;main.c: 110:     PORTB = 0b00000000;
  1281  002446  0E00               	movlw	0
  1282  002448  6E81               	movwf	129,c	;volatile
  1283  00244A                     
  1284                           ;main.c: 111:     PORTC = 0b11111111;
  1285  00244A  6882               	setf	130,c	;volatile
  1286  00244C                     
  1287                           ;main.c: 112:     PORTD = 0b00000000;
  1288  00244C  0E00               	movlw	0
  1289  00244E  6E83               	movwf	131,c	;volatile
  1290  002450                     
  1291                           ;main.c: 113:     PORTE = 0b00000000;
  1292  002450  0E00               	movlw	0
  1293  002452  6E84               	movwf	132,c	;volatile
  1294  002454                     
  1295                           ;main.c: 115:     INTCONbits.GIE = 1;
  1296  002454  8EF2               	bsf	242,7,c	;volatile
  1297  002456                     
  1298                           ;main.c: 116:     INTCONbits.PEIE = 1;
  1299  002456  8CF2               	bsf	242,6,c	;volatile
  1300  002458                     
  1301                           ;main.c: 117:     INTCONbits.TMR0IE = 1;
  1302  002458  8AF2               	bsf	242,5,c	;volatile
  1303  00245A                     
  1304                           ;main.c: 119:     configBits();
  1305  00245A  EC51  F01E         	call	_configBits	;wreg free
  1306  00245E                     
  1307                           ;main.c: 120:     configUSART();
  1308  00245E  EC0F  F01E         	call	_configUSART	;wreg free
  1309  002462                     
  1310                           ;main.c: 121:     configPWM();
  1311  002462  ECDB  F01D         	call	_configPWM	;wreg free
  1312  002466                     
  1313                           ;main.c: 122:     configAD();
  1314  002466  ECED  F01D         	call	_configAD	;wreg free
  1315  00246A                     
  1316                           ;main.c: 124:     initTimer0(99);
  1317  00246A  0E00               	movlw	0
  1318  00246C  0100               	movlb	0	; () banked
  1319  00246E  6F7F               	movwf	(initTimer0@tempoInicial+1)& (0+255),b
  1320  002470  0E63               	movlw	99
  1321  002472  6F7E               	movwf	initTimer0@tempoInicial& (0+255),b
  1322  002474  EC3B  F01E         	call	_initTimer0	;wreg free
  1323  002478                     
  1324                           ;main.c: 126:     comando = "\0";
  1325  002478  0E9A               	movlw	low STR_52
  1326  00247A  0100               	movlb	0	; () banked
  1327  00247C  6FDF               	movwf	_comando& (0+255),b
  1328  00247E  0E03               	movlw	high STR_52
  1329  002480  6FE0               	movwf	(_comando+1)& (0+255),b
  1330  002482                     l5164:
  1331                           
  1332                           ;main.c: 132:         UARTSendChar(UARTReadChar());
  1333  002482  EC40  F01E         	call	_UARTReadChar	;wreg free
  1334  002486  EC2E  F01E         	call	_UARTSendChar
  1335  00248A                     
  1336                           ;main.c: 134:         if (myStrncmp(comando, "idle")) {
  1337  00248A  C0DF  F08D         	movff	_comando,myStrncmp@str1
  1338  00248E  C0E0  F08E         	movff	_comando+1,myStrncmp@str1+1
  1339  002492  0E8E               	movlw	low STR_3
  1340  002494  0100               	movlb	0	; () banked
  1341  002496  6F8F               	movwf	myStrncmp@str2& (0+255),b
  1342  002498  0E03               	movlw	high STR_3
  1343  00249A  6F90               	movwf	(myStrncmp@str2+1)& (0+255),b
  1344  00249C  EC86  F01C         	call	_myStrncmp	;wreg free
  1345  0024A0  0100               	movlb	0	; () banked
  1346  0024A2  518D               	movf	?_myStrncmp& (0+255),w,b
  1347  0024A4  118E               	iorwf	(?_myStrncmp+1)& (0+255),w,b
  1348  0024A6  B4D8               	btfsc	status,2,c
  1349  0024A8  EF58  F012         	goto	u5611
  1350  0024AC  EF5A  F012         	goto	u5610
  1351  0024B0                     u5611:
  1352  0024B0  EF5E  F012         	goto	l5170
  1353  0024B4                     u5610:
  1354  0024B4                     
  1355                           ; BSR set to: 0
  1356                           ;main.c: 135:             UARTSendChar(UARTReadChar());
  1357  0024B4  EC40  F01E         	call	_UARTReadChar	;wreg free
  1358  0024B8  EC2E  F01E         	call	_UARTSendChar
  1359  0024BC                     l5170:
  1360                           
  1361                           ;main.c: 138:         if (myStrncmp(comando, "testeMotores")) {
  1362  0024BC  C0DF  F08D         	movff	_comando,myStrncmp@str1
  1363  0024C0  C0E0  F08E         	movff	_comando+1,myStrncmp@str1+1
  1364  0024C4  0E2C               	movlw	low STR_45
  1365  0024C6  0100               	movlb	0	; () banked
  1366  0024C8  6F8F               	movwf	myStrncmp@str2& (0+255),b
  1367  0024CA  0E03               	movlw	high STR_45
  1368  0024CC  6F90               	movwf	(myStrncmp@str2+1)& (0+255),b
  1369  0024CE  EC86  F01C         	call	_myStrncmp	;wreg free
  1370  0024D2  0100               	movlb	0	; () banked
  1371  0024D4  518D               	movf	?_myStrncmp& (0+255),w,b
  1372  0024D6  118E               	iorwf	(?_myStrncmp+1)& (0+255),w,b
  1373  0024D8  B4D8               	btfsc	status,2,c
  1374  0024DA  EF71  F012         	goto	u5621
  1375  0024DE  EF73  F012         	goto	u5620
  1376  0024E2                     u5621:
  1377  0024E2  EF75  F012         	goto	l5174
  1378  0024E6                     u5620:
  1379  0024E6                     
  1380                           ; BSR set to: 0
  1381                           ;main.c: 139:             testeMotores();
  1382  0024E6  ECD0  F001         	call	_testeMotores	;wreg free
  1383  0024EA                     l5174:
  1384                           
  1385                           ;main.c: 142:         if (myStrncmp(comando, "testeLampadas")) {
  1386  0024EA  C0DF  F08D         	movff	_comando,myStrncmp@str1
  1387  0024EE  C0E0  F08E         	movff	_comando+1,myStrncmp@str1+1
  1388  0024F2  0E1E               	movlw	low STR_46
  1389  0024F4  0100               	movlb	0	; () banked
  1390  0024F6  6F8F               	movwf	myStrncmp@str2& (0+255),b
  1391  0024F8  0E03               	movlw	high STR_46
  1392  0024FA  6F90               	movwf	(myStrncmp@str2+1)& (0+255),b
  1393  0024FC  EC86  F01C         	call	_myStrncmp	;wreg free
  1394  002500  0100               	movlb	0	; () banked
  1395  002502  518D               	movf	?_myStrncmp& (0+255),w,b
  1396  002504  118E               	iorwf	(?_myStrncmp+1)& (0+255),w,b
  1397  002506  B4D8               	btfsc	status,2,c
  1398  002508  EF88  F012         	goto	u5631
  1399  00250C  EF8A  F012         	goto	u5630
  1400  002510                     u5631:
  1401  002510  EF8C  F012         	goto	l364
  1402  002514                     u5630:
  1403  002514                     
  1404                           ; BSR set to: 0
  1405                           ;main.c: 143:             testeLampadas();
  1406  002514  ECD1  F012         	call	_testeLampadas	;wreg free
  1407  002518                     l364:
  1408                           
  1409                           ;main.c: 146:         if (myStrncmp(comando, "AD")) {
  1410  002518  C0DF  F08D         	movff	_comando,myStrncmp@str1
  1411  00251C  C0E0  F08E         	movff	_comando+1,myStrncmp@str1+1
  1412  002520  0E97               	movlw	low STR_47
  1413  002522  0100               	movlb	0	; () banked
  1414  002524  6F8F               	movwf	myStrncmp@str2& (0+255),b
  1415  002526  0E03               	movlw	high STR_47
  1416  002528  6F90               	movwf	(myStrncmp@str2+1)& (0+255),b
  1417  00252A  EC86  F01C         	call	_myStrncmp	;wreg free
  1418  00252E  0100               	movlb	0	; () banked
  1419  002530  518D               	movf	?_myStrncmp& (0+255),w,b
  1420  002532  118E               	iorwf	(?_myStrncmp+1)& (0+255),w,b
  1421  002534  B4D8               	btfsc	status,2,c
  1422  002536  EF9F  F012         	goto	u5641
  1423  00253A  EFA1  F012         	goto	u5640
  1424  00253E                     u5641:
  1425  00253E  EFA7  F012         	goto	l5182
  1426  002542                     u5640:
  1427  002542                     
  1428                           ; BSR set to: 0
  1429                           ;main.c: 147:             UARTSendChar(UARTReadChar());
  1430  002542  EC40  F01E         	call	_UARTReadChar	;wreg free
  1431  002546  EC2E  F01E         	call	_UARTSendChar
  1432  00254A                     
  1433                           ;main.c: 148:             testeAD();
  1434  00254A  EC95  F00C         	call	_testeAD	;wreg free
  1435  00254E                     l5182:
  1436                           
  1437                           ;main.c: 151:         if (myStrncmp(comando, "testeADbit")) {
  1438  00254E  C0DF  F08D         	movff	_comando,myStrncmp@str1
  1439  002552  C0E0  F08E         	movff	_comando+1,myStrncmp@str1+1
  1440  002556  0E44               	movlw	low STR_49
  1441  002558  0100               	movlb	0	; () banked
  1442  00255A  6F8F               	movwf	myStrncmp@str2& (0+255),b
  1443  00255C  0E03               	movlw	high STR_49
  1444  00255E  6F90               	movwf	(myStrncmp@str2+1)& (0+255),b
  1445  002560  EC86  F01C         	call	_myStrncmp	;wreg free
  1446  002564  0100               	movlb	0	; () banked
  1447  002566  518D               	movf	?_myStrncmp& (0+255),w,b
  1448  002568  118E               	iorwf	(?_myStrncmp+1)& (0+255),w,b
  1449  00256A  B4D8               	btfsc	status,2,c
  1450  00256C  EFBA  F012         	goto	u5651
  1451  002570  EFBC  F012         	goto	u5650
  1452  002574                     u5651:
  1453  002574  EF41  F012         	goto	l5164
  1454  002578                     u5650:
  1455  002578                     
  1456                           ; BSR set to: 0
  1457                           ;main.c: 152:             UARTSendChar(UARTReadChar());
  1458  002578  EC40  F01E         	call	_UARTReadChar	;wreg free
  1459  00257C  EC2E  F01E         	call	_UARTSendChar
  1460  002580                     
  1461                           ;main.c: 153:             UARTSendString(comando, 16);
  1462  002580  C0DF  F16F         	movff	_comando,UARTSendString@str
  1463  002584  C0E0  F170         	movff	_comando+1,UARTSendString@str+1
  1464  002588  0E00               	movlw	0
  1465  00258A  0101               	movlb	1	; () banked
  1466  00258C  6F72               	movwf	(UARTSendString@max_length+1)& (0+255),b
  1467  00258E  0E10               	movlw	16
  1468  002590  6F71               	movwf	UARTSendString@max_length& (0+255),b
  1469  002592  EC24  F019         	call	_UARTSendString	;wreg free
  1470  002596                     
  1471                           ;main.c: 154:             testeADbit();
  1472  002596  ECC2  F017         	call	_testeADbit	;wreg free
  1473  00259A  EF41  F012         	goto	l5164
  1474  00259E  EF59  F001         	goto	start
  1475  0025A2                     __end_of_main:
  1476                           	opt callstack 0
  1477                           
  1478 ;; *************** function _testeMotores *****************
  1479 ;; Defined at:
  1480 ;;		line 115 in file "./geral.h"
  1481 ;; Parameters:    Size  Location     Type
  1482 ;;		None
  1483 ;; Auto vars:     Size  Location     Type
  1484 ;;  i               2   22[BANK1 ] int 
  1485 ;; Return value:  Size  Location     Type
  1486 ;;                  1    wreg      void 
  1487 ;; Registers used:
  1488 ;;		wreg, fsr2l, fsr2h, status,2, status,0, tblptrl, tblptrh, tblptru, prodl, prodh, cstack
  1489 ;; Tracked objects:
  1490 ;;		On entry : 0/0
  1491 ;;		On exit  : 0/0
  1492 ;;		Unchanged: 0/0
  1493 ;; Data sizes:     COMRAM   BANK0   BANK1   BANK2
  1494 ;;      Params:         0       0       0       0
  1495 ;;      Locals:         0       0       2       0
  1496 ;;      Temps:          0       0       1       0
  1497 ;;      Totals:         0       0       3       0
  1498 ;;Total ram usage:        3 bytes
  1499 ;; Hardware stack levels used:    1
  1500 ;; Hardware stack levels required when called:    9
  1501 ;; This function calls:
  1502 ;;		_UARTSendString
  1503 ;;		_myStrncmp
  1504 ;;		_setDutyPWM0
  1505 ;;		_setDutyPWM2
  1506 ;;		_setDutyPWM4
  1507 ;;		_setDutyPWM6
  1508 ;; This function is called by:
  1509 ;;		_main
  1510 ;; This function uses a non-reentrant model
  1511 ;;
  1512                           
  1513                           	psect	text1
  1514  0003A0                     __ptext1:
  1515                           	opt callstack 0
  1516  0003A0                     _testeMotores:
  1517                           	opt callstack 21
  1518  0003A0                     
  1519                           ;./geral.h: 117:     for(i = 0; i <= 100; i++){;./geral.h: 118:         setDutyPWM6(i);
  1520  0003A0  8C81               	bsf	129,6,c	;volatile
  1521                           
  1522                           ;./geral.h: 119:         setDutyPWM4(i);
  1523  0003A2  8E81               	bsf	129,7,c	;volatile
  1524  0003A4                     
  1525                           ;./geral.h: 123:     setDutyPWM6(0);
  1526  0003A4  0E10               	movlw	low STR_2
  1527  0003A6  0101               	movlb	1	; () banked
  1528  0003A8  6F6F               	movwf	UARTSendString@str& (0+255),b
  1529  0003AA  0E03               	movlw	high STR_2
  1530  0003AC  6F70               	movwf	(UARTSendString@str+1)& (0+255),b
  1531  0003AE  0E00               	movlw	0
  1532  0003B0  6F72               	movwf	(UARTSendString@max_length+1)& (0+255),b
  1533  0003B2  0E10               	movlw	16
  1534  0003B4  6F71               	movwf	UARTSendString@max_length& (0+255),b
  1535  0003B6  EC24  F019         	call	_UARTSendString	;wreg free
  1536  0003BA                     
  1537                           ;./geral.h: 124:     setDutyPWM4(0);
  1538  0003BA  0E00               	movlw	0
  1539  0003BC  0101               	movlb	1	; () banked
  1540  0003BE  6F79               	movwf	(testeMotores@i+1)& (0+255),b
  1541  0003C0  0E00               	movlw	0
  1542  0003C2  6F78               	movwf	testeMotores@i& (0+255),b
  1543  0003C4                     l4778:
  1544                           
  1545                           ; BSR set to: 1
  1546                           ;./geral.h: 125: }
  1547  0003C4  C178  F084         	movff	testeMotores@i,setDutyPWM0@porcVelo
  1548  0003C8  C179  F085         	movff	testeMotores@i+1,setDutyPWM0@porcVelo+1
  1549  0003CC  EC53  F01D         	call	_setDutyPWM0	;wreg free
  1550  0003D0                     
  1551                           ;./geral.h: 126: 
  1552  0003D0  0E82               	movlw	130
  1553  0003D2  0101               	movlb	1	; () banked
  1554  0003D4  6F77               	movwf	??_testeMotores& (0+255),b
  1555  0003D6  0EDD               	movlw	221
  1556  0003D8                     u5677:
  1557  0003D8  2EE8               	decfsz	wreg,f,c
  1558  0003DA  D7FE               	bra	u5677
  1559  0003DC  2F77               	decfsz	??_testeMotores& (0+255),f,b
  1560  0003DE  D7FC               	bra	u5677
  1561  0003E0  F000 F000          	nop2	
  1562  0003E4                     
  1563                           ;./geral.h: 127: 
  1564  0003E4  C0DF  F08D         	movff	_comando,myStrncmp@str1
  1565  0003E8  C0E0  F08E         	movff	_comando+1,myStrncmp@str1+1
  1566  0003EC  0E8E               	movlw	low STR_3
  1567  0003EE  0100               	movlb	0	; () banked
  1568  0003F0  6F8F               	movwf	myStrncmp@str2& (0+255),b
  1569  0003F2  0E03               	movlw	high STR_3
  1570  0003F4  6F90               	movwf	(myStrncmp@str2+1)& (0+255),b
  1571  0003F6  EC86  F01C         	call	_myStrncmp	;wreg free
  1572  0003FA  0100               	movlb	0	; () banked
  1573  0003FC  518D               	movf	?_myStrncmp& (0+255),w,b
  1574  0003FE  118E               	iorwf	(?_myStrncmp+1)& (0+255),w,b
  1575  000400  B4D8               	btfsc	status,2,c
  1576  000402  EF05  F002         	goto	u5171
  1577  000406  EF07  F002         	goto	u5170
  1578  00040A                     u5171:
  1579  00040A  EF09  F002         	goto	l4786
  1580  00040E                     u5170:
  1581  00040E  EF1A  F002         	goto	l4790
  1582  000412                     l4786:
  1583                           
  1584                           ; BSR set to: 0
  1585                           ;./geral.h: 128: 
  1586  000412  0101               	movlb	1	; () banked
  1587  000414  4B78               	infsnz	testeMotores@i& (0+255),f,b
  1588  000416  2B79               	incf	(testeMotores@i+1)& (0+255),f,b
  1589  000418                     
  1590                           ; BSR set to: 1
  1591  000418  BF79               	btfsc	(testeMotores@i+1)& (0+255),7,b
  1592  00041A  EF18  F002         	goto	u5181
  1593  00041E  5179               	movf	(testeMotores@i+1)& (0+255),w,b
  1594  000420  E109               	bnz	u5180
  1595  000422  0E65               	movlw	101
  1596  000424  5D78               	subwf	testeMotores@i& (0+255),w,b
  1597  000426  A0D8               	btfss	status,0,c
  1598  000428  EF18  F002         	goto	u5181
  1599  00042C  EF1A  F002         	goto	u5180
  1600  000430                     u5181:
  1601  000430  EFE2  F001         	goto	l4778
  1602  000434                     u5180:
  1603  000434                     l4790:
  1604                           
  1605                           ;./geral.h: 129: 
  1606  000434  0E01               	movlw	low STR_5
  1607  000436  0101               	movlb	1	; () banked
  1608  000438  6F6F               	movwf	UARTSendString@str& (0+255),b
  1609  00043A  0E03               	movlw	high STR_5
  1610  00043C  6F70               	movwf	(UARTSendString@str+1)& (0+255),b
  1611  00043E  0E00               	movlw	0
  1612  000440  6F72               	movwf	(UARTSendString@max_length+1)& (0+255),b
  1613  000442  0E10               	movlw	16
  1614  000444  6F71               	movwf	UARTSendString@max_length& (0+255),b
  1615  000446  EC24  F019         	call	_UARTSendString	;wreg free
  1616  00044A                     
  1617                           ;./geral.h: 130: void testeLampadas(){
  1618  00044A  0E00               	movlw	0
  1619  00044C  0100               	movlb	0	; () banked
  1620  00044E  6F85               	movwf	(setDutyPWM0@porcVelo+1)& (0+255),b
  1621  000450  0E00               	movlw	0
  1622  000452  6F84               	movwf	setDutyPWM0@porcVelo& (0+255),b
  1623  000454  EC53  F01D         	call	_setDutyPWM0	;wreg free
  1624  000458                     
  1625                           ;./geral.h: 133:     for(i = 0; i < 16; i++){
  1626  000458  0E00               	movlw	0
  1627  00045A  0101               	movlb	1	; () banked
  1628  00045C  6F79               	movwf	(testeMotores@i+1)& (0+255),b
  1629  00045E  0E00               	movlw	0
  1630  000460  6F78               	movwf	testeMotores@i& (0+255),b
  1631  000462                     l4800:
  1632                           
  1633                           ; BSR set to: 1
  1634                           ;./geral.h: 134:         RC0 = bitExtract(i, 1, 0);
  1635  000462  C178  F084         	movff	testeMotores@i,setDutyPWM6@porcVelo
  1636  000466  C179  F085         	movff	testeMotores@i+1,setDutyPWM6@porcVelo+1
  1637  00046A  EC14  F01D         	call	_setDutyPWM6	;wreg free
  1638  00046E                     
  1639                           ;./geral.h: 135:         RC1 = bitExtract(i, 1, 1);
  1640  00046E  0E82               	movlw	130
  1641  000470  0101               	movlb	1	; () banked
  1642  000472  6F77               	movwf	??_testeMotores& (0+255),b
  1643  000474  0EDD               	movlw	221
  1644  000476                     u5687:
  1645  000476  2EE8               	decfsz	wreg,f,c
  1646  000478  D7FE               	bra	u5687
  1647  00047A  2F77               	decfsz	??_testeMotores& (0+255),f,b
  1648  00047C  D7FC               	bra	u5687
  1649  00047E  F000 F000          	nop2	
  1650  000482                     
  1651                           ;./geral.h: 136:         RC2 = bitExtract(i, 1, 2);
  1652  000482  C0DF  F08D         	movff	_comando,myStrncmp@str1
  1653  000486  C0E0  F08E         	movff	_comando+1,myStrncmp@str1+1
  1654  00048A  0E8E               	movlw	low STR_3
  1655  00048C  0100               	movlb	0	; () banked
  1656  00048E  6F8F               	movwf	myStrncmp@str2& (0+255),b
  1657  000490  0E03               	movlw	high STR_3
  1658  000492  6F90               	movwf	(myStrncmp@str2+1)& (0+255),b
  1659  000494  EC86  F01C         	call	_myStrncmp	;wreg free
  1660  000498  0100               	movlb	0	; () banked
  1661  00049A  518D               	movf	?_myStrncmp& (0+255),w,b
  1662  00049C  118E               	iorwf	(?_myStrncmp+1)& (0+255),w,b
  1663  00049E  B4D8               	btfsc	status,2,c
  1664  0004A0  EF54  F002         	goto	u5191
  1665  0004A4  EF56  F002         	goto	u5190
  1666  0004A8                     u5191:
  1667  0004A8  EF58  F002         	goto	l4808
  1668  0004AC                     u5190:
  1669  0004AC  EF69  F002         	goto	l4812
  1670  0004B0                     l4808:
  1671                           
  1672                           ; BSR set to: 0
  1673                           ;./geral.h: 137:         RC3 = bitExtract(i, 1, 3);
  1674  0004B0  0101               	movlb	1	; () banked
  1675  0004B2  4B78               	infsnz	testeMotores@i& (0+255),f,b
  1676  0004B4  2B79               	incf	(testeMotores@i+1)& (0+255),f,b
  1677  0004B6                     
  1678                           ; BSR set to: 1
  1679  0004B6  BF79               	btfsc	(testeMotores@i+1)& (0+255),7,b
  1680  0004B8  EF67  F002         	goto	u5201
  1681  0004BC  5179               	movf	(testeMotores@i+1)& (0+255),w,b
  1682  0004BE  E109               	bnz	u5200
  1683  0004C0  0E65               	movlw	101
  1684  0004C2  5D78               	subwf	testeMotores@i& (0+255),w,b
  1685  0004C4  A0D8               	btfss	status,0,c
  1686  0004C6  EF67  F002         	goto	u5201
  1687  0004CA  EF69  F002         	goto	u5200
  1688  0004CE                     u5201:
  1689  0004CE  EF31  F002         	goto	l4800
  1690  0004D2                     u5200:
  1691  0004D2                     l4812:
  1692                           
  1693                           ;./geral.h: 138:         if(myStrncmp(comando, "idle")) break;
  1694  0004D2  0E00               	movlw	0
  1695  0004D4  0100               	movlb	0	; () banked
  1696  0004D6  6F85               	movwf	(setDutyPWM6@porcVelo+1)& (0+255),b
  1697  0004D8  0E00               	movlw	0
  1698  0004DA  6F84               	movwf	setDutyPWM6@porcVelo& (0+255),b
  1699  0004DC  EC14  F01D         	call	_setDutyPWM6	;wreg free
  1700  0004E0                     
  1701                           ;./geral.h: 141: }
  1702  0004E0  0E00               	movlw	0
  1703  0004E2  0101               	movlb	1	; () banked
  1704  0004E4  6F79               	movwf	(testeMotores@i+1)& (0+255),b
  1705  0004E6  0E00               	movlw	0
  1706  0004E8  6F78               	movwf	testeMotores@i& (0+255),b
  1707  0004EA                     l4820:
  1708                           
  1709                           ; BSR set to: 1
  1710                           ;./geral.h: 142: 
  1711  0004EA  C178  F084         	movff	testeMotores@i,setDutyPWM2@porcVelo
  1712  0004EE  C179  F085         	movff	testeMotores@i+1,setDutyPWM2@porcVelo+1
  1713  0004F2  EC3E  F01D         	call	_setDutyPWM2	;wreg free
  1714  0004F6                     
  1715                           ;./geral.h: 143: void testeAD(){
  1716  0004F6  0E82               	movlw	130
  1717  0004F8  0101               	movlb	1	; () banked
  1718  0004FA  6F77               	movwf	??_testeMotores& (0+255),b
  1719  0004FC  0EDD               	movlw	221
  1720  0004FE                     u5697:
  1721  0004FE  2EE8               	decfsz	wreg,f,c
  1722  000500  D7FE               	bra	u5697
  1723  000502  2F77               	decfsz	??_testeMotores& (0+255),f,b
  1724  000504  D7FC               	bra	u5697
  1725  000506  F000 F000          	nop2	
  1726  00050A                     
  1727                           ;./geral.h: 144: 
  1728  00050A  C0DF  F08D         	movff	_comando,myStrncmp@str1
  1729  00050E  C0E0  F08E         	movff	_comando+1,myStrncmp@str1+1
  1730  000512  0E8E               	movlw	low STR_3
  1731  000514  0100               	movlb	0	; () banked
  1732  000516  6F8F               	movwf	myStrncmp@str2& (0+255),b
  1733  000518  0E03               	movlw	high STR_3
  1734  00051A  6F90               	movwf	(myStrncmp@str2+1)& (0+255),b
  1735  00051C  EC86  F01C         	call	_myStrncmp	;wreg free
  1736  000520  0100               	movlb	0	; () banked
  1737  000522  518D               	movf	?_myStrncmp& (0+255),w,b
  1738  000524  118E               	iorwf	(?_myStrncmp+1)& (0+255),w,b
  1739  000526  B4D8               	btfsc	status,2,c
  1740  000528  EF98  F002         	goto	u5211
  1741  00052C  EF9A  F002         	goto	u5210
  1742  000530                     u5211:
  1743  000530  EF9C  F002         	goto	l4828
  1744  000534                     u5210:
  1745  000534  EFAD  F002         	goto	l4832
  1746  000538                     l4828:
  1747                           
  1748                           ; BSR set to: 0
  1749                           ;./geral.h: 145:     UARTSendString("AN0: ",16);
  1750  000538  0101               	movlb	1	; () banked
  1751  00053A  4B78               	infsnz	testeMotores@i& (0+255),f,b
  1752  00053C  2B79               	incf	(testeMotores@i+1)& (0+255),f,b
  1753  00053E                     
  1754                           ; BSR set to: 1
  1755  00053E  BF79               	btfsc	(testeMotores@i+1)& (0+255),7,b
  1756  000540  EFAB  F002         	goto	u5221
  1757  000544  5179               	movf	(testeMotores@i+1)& (0+255),w,b
  1758  000546  E109               	bnz	u5220
  1759  000548  0E65               	movlw	101
  1760  00054A  5D78               	subwf	testeMotores@i& (0+255),w,b
  1761  00054C  A0D8               	btfss	status,0,c
  1762  00054E  EFAB  F002         	goto	u5221
  1763  000552  EFAD  F002         	goto	u5220
  1764  000556                     u5221:
  1765  000556  EF75  F002         	goto	l4820
  1766  00055A                     u5220:
  1767  00055A                     l4832:
  1768                           
  1769                           ;./geral.h: 146:     UARTSendString(valorConvUART(getAD_AN(0)), 16);
  1770  00055A  0E00               	movlw	0
  1771  00055C  0100               	movlb	0	; () banked
  1772  00055E  6F85               	movwf	(setDutyPWM2@porcVelo+1)& (0+255),b
  1773  000560  0E00               	movlw	0
  1774  000562  6F84               	movwf	setDutyPWM2@porcVelo& (0+255),b
  1775  000564  EC3E  F01D         	call	_setDutyPWM2	;wreg free
  1776  000568                     
  1777                           ;./geral.h: 149:     UARTSendString("AN1: ",16);
  1778  000568  0E00               	movlw	0
  1779  00056A  0101               	movlb	1	; () banked
  1780  00056C  6F79               	movwf	(testeMotores@i+1)& (0+255),b
  1781  00056E  0E00               	movlw	0
  1782  000570  6F78               	movwf	testeMotores@i& (0+255),b
  1783  000572                     l4840:
  1784                           
  1785                           ; BSR set to: 1
  1786                           ;./geral.h: 150:     UARTSendString(valorConvUART(getAD_AN(1)), 16);
  1787  000572  C178  F084         	movff	testeMotores@i,setDutyPWM2@porcVelo
  1788  000576  C179  F085         	movff	testeMotores@i+1,setDutyPWM2@porcVelo+1
  1789  00057A  EC3E  F01D         	call	_setDutyPWM2	;wreg free
  1790  00057E                     
  1791                           ;./geral.h: 151:     UARTSendString("\r",16);
  1792  00057E  0E82               	movlw	130
  1793  000580  0101               	movlb	1	; () banked
  1794  000582  6F77               	movwf	??_testeMotores& (0+255),b
  1795  000584  0EDD               	movlw	221
  1796  000586                     u5707:
  1797  000586  2EE8               	decfsz	wreg,f,c
  1798  000588  D7FE               	bra	u5707
  1799  00058A  2F77               	decfsz	??_testeMotores& (0+255),f,b
  1800  00058C  D7FC               	bra	u5707
  1801  00058E  F000 F000          	nop2	
  1802  000592                     
  1803                           ;./geral.h: 152: 
  1804  000592  C0DF  F08D         	movff	_comando,myStrncmp@str1
  1805  000596  C0E0  F08E         	movff	_comando+1,myStrncmp@str1+1
  1806  00059A  0E8E               	movlw	low STR_3
  1807  00059C  0100               	movlb	0	; () banked
  1808  00059E  6F8F               	movwf	myStrncmp@str2& (0+255),b
  1809  0005A0  0E03               	movlw	high STR_3
  1810  0005A2  6F90               	movwf	(myStrncmp@str2+1)& (0+255),b
  1811  0005A4  EC86  F01C         	call	_myStrncmp	;wreg free
  1812  0005A8  0100               	movlb	0	; () banked
  1813  0005AA  518D               	movf	?_myStrncmp& (0+255),w,b
  1814  0005AC  118E               	iorwf	(?_myStrncmp+1)& (0+255),w,b
  1815  0005AE  B4D8               	btfsc	status,2,c
  1816  0005B0  EFDC  F002         	goto	u5231
  1817  0005B4  EFDE  F002         	goto	u5230
  1818  0005B8                     u5231:
  1819  0005B8  EFE0  F002         	goto	l4848
  1820  0005BC                     u5230:
  1821  0005BC  EFF1  F002         	goto	l4852
  1822  0005C0                     l4848:
  1823                           
  1824                           ; BSR set to: 0
  1825                           ;./geral.h: 153:     UARTSendString("AN2: ",16);
  1826  0005C0  0101               	movlb	1	; () banked
  1827  0005C2  4B78               	infsnz	testeMotores@i& (0+255),f,b
  1828  0005C4  2B79               	incf	(testeMotores@i+1)& (0+255),f,b
  1829  0005C6                     
  1830                           ; BSR set to: 1
  1831  0005C6  BF79               	btfsc	(testeMotores@i+1)& (0+255),7,b
  1832  0005C8  EFEF  F002         	goto	u5241
  1833  0005CC  5179               	movf	(testeMotores@i+1)& (0+255),w,b
  1834  0005CE  E109               	bnz	u5240
  1835  0005D0  0E65               	movlw	101
  1836  0005D2  5D78               	subwf	testeMotores@i& (0+255),w,b
  1837  0005D4  A0D8               	btfss	status,0,c
  1838  0005D6  EFEF  F002         	goto	u5241
  1839  0005DA  EFF1  F002         	goto	u5240
  1840  0005DE                     u5241:
  1841  0005DE  EFB9  F002         	goto	l4840
  1842  0005E2                     u5240:
  1843  0005E2                     l4852:
  1844                           
  1845                           ;./geral.h: 154:     UARTSendString(valorConvUART(getAD_AN(2)), 16);
  1846  0005E2  0E00               	movlw	0
  1847  0005E4  0100               	movlb	0	; () banked
  1848  0005E6  6F85               	movwf	(setDutyPWM4@porcVelo+1)& (0+255),b
  1849  0005E8  0E00               	movlw	0
  1850  0005EA  6F84               	movwf	setDutyPWM4@porcVelo& (0+255),b
  1851  0005EC  EC29  F01D         	call	_setDutyPWM4	;wreg free
  1852  0005F0                     
  1853                           ;./geral.h: 157:     UARTSendString("AN3: ",16);
  1854  0005F0  0E00               	movlw	0
  1855  0005F2  0101               	movlb	1	; () banked
  1856  0005F4  6F79               	movwf	(testeMotores@i+1)& (0+255),b
  1857  0005F6  0E00               	movlw	0
  1858  0005F8  6F78               	movwf	testeMotores@i& (0+255),b
  1859  0005FA                     l4860:
  1860                           
  1861                           ; BSR set to: 1
  1862                           ;./geral.h: 158:     UARTSendString(valorConvUART(getAD_AN(3)), 16);
  1863  0005FA  C178  F084         	movff	testeMotores@i,setDutyPWM0@porcVelo
  1864  0005FE  C179  F085         	movff	testeMotores@i+1,setDutyPWM0@porcVelo+1
  1865  000602  EC53  F01D         	call	_setDutyPWM0	;wreg free
  1866                           
  1867                           ;./geral.h: 159:     UARTSendString("\r",16);
  1868  000606  C178  F084         	movff	testeMotores@i,setDutyPWM2@porcVelo
  1869  00060A  C179  F085         	movff	testeMotores@i+1,setDutyPWM2@porcVelo+1
  1870  00060E  EC3E  F01D         	call	_setDutyPWM2	;wreg free
  1871  000612                     
  1872                           ;./geral.h: 160: 
  1873  000612  0E82               	movlw	130
  1874  000614  0101               	movlb	1	; () banked
  1875  000616  6F77               	movwf	??_testeMotores& (0+255),b
  1876  000618  0EDD               	movlw	221
  1877  00061A                     u5717:
  1878  00061A  2EE8               	decfsz	wreg,f,c
  1879  00061C  D7FE               	bra	u5717
  1880  00061E  2F77               	decfsz	??_testeMotores& (0+255),f,b
  1881  000620  D7FC               	bra	u5717
  1882  000622  F000 F000          	nop2	
  1883  000626                     
  1884                           ;./geral.h: 161:     UARTSendString("AN4: ",16);
  1885  000626  C0DF  F08D         	movff	_comando,myStrncmp@str1
  1886  00062A  C0E0  F08E         	movff	_comando+1,myStrncmp@str1+1
  1887  00062E  0E8E               	movlw	low STR_3
  1888  000630  0100               	movlb	0	; () banked
  1889  000632  6F8F               	movwf	myStrncmp@str2& (0+255),b
  1890  000634  0E03               	movlw	high STR_3
  1891  000636  6F90               	movwf	(myStrncmp@str2+1)& (0+255),b
  1892  000638  EC86  F01C         	call	_myStrncmp	;wreg free
  1893  00063C  0100               	movlb	0	; () banked
  1894  00063E  518D               	movf	?_myStrncmp& (0+255),w,b
  1895  000640  118E               	iorwf	(?_myStrncmp+1)& (0+255),w,b
  1896  000642  B4D8               	btfsc	status,2,c
  1897  000644  EF26  F003         	goto	u5251
  1898  000648  EF28  F003         	goto	u5250
  1899  00064C                     u5251:
  1900  00064C  EF2A  F003         	goto	l4868
  1901  000650                     u5250:
  1902  000650  EF3B  F003         	goto	l4872
  1903  000654                     l4868:
  1904                           
  1905                           ; BSR set to: 0
  1906                           ;./geral.h: 162:     UARTSendString(valorConvUART(getAD_AN(4)), 16);
  1907  000654  0101               	movlb	1	; () banked
  1908  000656  4B78               	infsnz	testeMotores@i& (0+255),f,b
  1909  000658  2B79               	incf	(testeMotores@i+1)& (0+255),f,b
  1910  00065A                     
  1911                           ; BSR set to: 1
  1912  00065A  BF79               	btfsc	(testeMotores@i+1)& (0+255),7,b
  1913  00065C  EF39  F003         	goto	u5261
  1914  000660  5179               	movf	(testeMotores@i+1)& (0+255),w,b
  1915  000662  E109               	bnz	u5260
  1916  000664  0E65               	movlw	101
  1917  000666  5D78               	subwf	testeMotores@i& (0+255),w,b
  1918  000668  A0D8               	btfss	status,0,c
  1919  00066A  EF39  F003         	goto	u5261
  1920  00066E  EF3B  F003         	goto	u5260
  1921  000672                     u5261:
  1922  000672  EFFD  F002         	goto	l4860
  1923  000676                     u5260:
  1924  000676                     l4872:
  1925                           
  1926                           ;./geral.h: 163:     UARTSendString("\r",16);
  1927  000676  0E00               	movlw	0
  1928  000678  0100               	movlb	0	; () banked
  1929  00067A  6F85               	movwf	(setDutyPWM0@porcVelo+1)& (0+255),b
  1930  00067C  0E00               	movlw	0
  1931  00067E  6F84               	movwf	setDutyPWM0@porcVelo& (0+255),b
  1932  000680  EC53  F01D         	call	_setDutyPWM0	;wreg free
  1933                           
  1934                           ;./geral.h: 164: 
  1935  000684  0E00               	movlw	0
  1936  000686  0100               	movlb	0	; () banked
  1937  000688  6F85               	movwf	(setDutyPWM2@porcVelo+1)& (0+255),b
  1938  00068A  0E00               	movlw	0
  1939  00068C  6F84               	movwf	setDutyPWM2@porcVelo& (0+255),b
  1940  00068E  EC3E  F01D         	call	_setDutyPWM2	;wreg free
  1941  000692                     
  1942                           ;./geral.h: 167:     UARTSendString("\r",16);
  1943  000692  0E00               	movlw	0
  1944  000694  0101               	movlb	1	; () banked
  1945  000696  6F79               	movwf	(testeMotores@i+1)& (0+255),b
  1946  000698  0E00               	movlw	0
  1947  00069A  6F78               	movwf	testeMotores@i& (0+255),b
  1948  00069C                     l4880:
  1949                           
  1950                           ; BSR set to: 1
  1951                           ;./geral.h: 168: 
  1952  00069C  C178  F084         	movff	testeMotores@i,setDutyPWM0@porcVelo
  1953  0006A0  C179  F085         	movff	testeMotores@i+1,setDutyPWM0@porcVelo+1
  1954  0006A4  EC53  F01D         	call	_setDutyPWM0	;wreg free
  1955                           
  1956                           ;./geral.h: 169:     UARTSendString("AN6: ",16);
  1957  0006A8  C178  F084         	movff	testeMotores@i,setDutyPWM4@porcVelo
  1958  0006AC  C179  F085         	movff	testeMotores@i+1,setDutyPWM4@porcVelo+1
  1959  0006B0  EC29  F01D         	call	_setDutyPWM4	;wreg free
  1960  0006B4                     
  1961                           ;./geral.h: 170:     UARTSendString(valorConvUART(getAD_AN(6)), 16);
  1962  0006B4  0E82               	movlw	130
  1963  0006B6  0101               	movlb	1	; () banked
  1964  0006B8  6F77               	movwf	??_testeMotores& (0+255),b
  1965  0006BA  0EDD               	movlw	221
  1966  0006BC                     u5727:
  1967  0006BC  2EE8               	decfsz	wreg,f,c
  1968  0006BE  D7FE               	bra	u5727
  1969  0006C0  2F77               	decfsz	??_testeMotores& (0+255),f,b
  1970  0006C2  D7FC               	bra	u5727
  1971  0006C4  F000 F000          	nop2	
  1972  0006C8                     
  1973                           ;./geral.h: 171:     UARTSendString("\r",16);
  1974  0006C8  C0DF  F08D         	movff	_comando,myStrncmp@str1
  1975  0006CC  C0E0  F08E         	movff	_comando+1,myStrncmp@str1+1
  1976  0006D0  0E8E               	movlw	low STR_3
  1977  0006D2  0100               	movlb	0	; () banked
  1978  0006D4  6F8F               	movwf	myStrncmp@str2& (0+255),b
  1979  0006D6  0E03               	movlw	high STR_3
  1980  0006D8  6F90               	movwf	(myStrncmp@str2+1)& (0+255),b
  1981  0006DA  EC86  F01C         	call	_myStrncmp	;wreg free
  1982  0006DE  0100               	movlb	0	; () banked
  1983  0006E0  518D               	movf	?_myStrncmp& (0+255),w,b
  1984  0006E2  118E               	iorwf	(?_myStrncmp+1)& (0+255),w,b
  1985  0006E4  B4D8               	btfsc	status,2,c
  1986  0006E6  EF77  F003         	goto	u5271
  1987  0006EA  EF79  F003         	goto	u5270
  1988  0006EE                     u5271:
  1989  0006EE  EF7B  F003         	goto	l4888
  1990  0006F2                     u5270:
  1991  0006F2  EF8C  F003         	goto	l4892
  1992  0006F6                     l4888:
  1993                           
  1994                           ; BSR set to: 0
  1995                           ;./geral.h: 172: 
  1996  0006F6  0101               	movlb	1	; () banked
  1997  0006F8  4B78               	infsnz	testeMotores@i& (0+255),f,b
  1998  0006FA  2B79               	incf	(testeMotores@i+1)& (0+255),f,b
  1999  0006FC                     
  2000                           ; BSR set to: 1
  2001  0006FC  BF79               	btfsc	(testeMotores@i+1)& (0+255),7,b
  2002  0006FE  EF8A  F003         	goto	u5281
  2003  000702  5179               	movf	(testeMotores@i+1)& (0+255),w,b
  2004  000704  E109               	bnz	u5280
  2005  000706  0E65               	movlw	101
  2006  000708  5D78               	subwf	testeMotores@i& (0+255),w,b
  2007  00070A  A0D8               	btfss	status,0,c
  2008  00070C  EF8A  F003         	goto	u5281
  2009  000710  EF8C  F003         	goto	u5280
  2010  000714                     u5281:
  2011  000714  EF4E  F003         	goto	l4880
  2012  000718                     u5280:
  2013  000718                     l4892:
  2014                           
  2015                           ;./geral.h: 173:     UARTSendString("AN7: ",16);
  2016  000718  0E00               	movlw	0
  2017  00071A  0100               	movlb	0	; () banked
  2018  00071C  6F85               	movwf	(setDutyPWM0@porcVelo+1)& (0+255),b
  2019  00071E  0E00               	movlw	0
  2020  000720  6F84               	movwf	setDutyPWM0@porcVelo& (0+255),b
  2021  000722  EC53  F01D         	call	_setDutyPWM0	;wreg free
  2022                           
  2023                           ;./geral.h: 174:     UARTSendString(valorConvUART(getAD_AN(7)), 16);
  2024  000726  0E00               	movlw	0
  2025  000728  0100               	movlb	0	; () banked
  2026  00072A  6F85               	movwf	(setDutyPWM4@porcVelo+1)& (0+255),b
  2027  00072C  0E00               	movlw	0
  2028  00072E  6F84               	movwf	setDutyPWM4@porcVelo& (0+255),b
  2029  000730  EC29  F01D         	call	_setDutyPWM4	;wreg free
  2030  000734                     
  2031                           ;./geral.h: 177:     UARTSendString("\r",16);
  2032  000734  0E00               	movlw	0
  2033  000736  0101               	movlb	1	; () banked
  2034  000738  6F79               	movwf	(testeMotores@i+1)& (0+255),b
  2035  00073A  0E00               	movlw	0
  2036  00073C  6F78               	movwf	testeMotores@i& (0+255),b
  2037  00073E                     l4900:
  2038                           
  2039                           ; BSR set to: 1
  2040                           ;./geral.h: 178: 
  2041  00073E  C178  F084         	movff	testeMotores@i,setDutyPWM6@porcVelo
  2042  000742  C179  F085         	movff	testeMotores@i+1,setDutyPWM6@porcVelo+1
  2043  000746  EC14  F01D         	call	_setDutyPWM6	;wreg free
  2044                           
  2045                           ;./geral.h: 179:     _delay((unsigned long)((500)*(20000000/4000.0)));
  2046  00074A  C178  F084         	movff	testeMotores@i,setDutyPWM2@porcVelo
  2047  00074E  C179  F085         	movff	testeMotores@i+1,setDutyPWM2@porcVelo+1
  2048  000752  EC3E  F01D         	call	_setDutyPWM2	;wreg free
  2049  000756                     
  2050                           ;./geral.h: 180: }
  2051  000756  0E82               	movlw	130
  2052  000758  0101               	movlb	1	; () banked
  2053  00075A  6F77               	movwf	??_testeMotores& (0+255),b
  2054  00075C  0EDD               	movlw	221
  2055  00075E                     u5737:
  2056  00075E  2EE8               	decfsz	wreg,f,c
  2057  000760  D7FE               	bra	u5737
  2058  000762  2F77               	decfsz	??_testeMotores& (0+255),f,b
  2059  000764  D7FC               	bra	u5737
  2060  000766  F000 F000          	nop2	
  2061  00076A                     
  2062                           ;./geral.h: 181: 
  2063  00076A  C0DF  F08D         	movff	_comando,myStrncmp@str1
  2064  00076E  C0E0  F08E         	movff	_comando+1,myStrncmp@str1+1
  2065  000772  0E8E               	movlw	low STR_3
  2066  000774  0100               	movlb	0	; () banked
  2067  000776  6F8F               	movwf	myStrncmp@str2& (0+255),b
  2068  000778  0E03               	movlw	high STR_3
  2069  00077A  6F90               	movwf	(myStrncmp@str2+1)& (0+255),b
  2070  00077C  EC86  F01C         	call	_myStrncmp	;wreg free
  2071  000780  0100               	movlb	0	; () banked
  2072  000782  518D               	movf	?_myStrncmp& (0+255),w,b
  2073  000784  118E               	iorwf	(?_myStrncmp+1)& (0+255),w,b
  2074  000786  B4D8               	btfsc	status,2,c
  2075  000788  EFC8  F003         	goto	u5291
  2076  00078C  EFCA  F003         	goto	u5290
  2077  000790                     u5291:
  2078  000790  EFCC  F003         	goto	l4908
  2079  000794                     u5290:
  2080  000794  EFDD  F003         	goto	l4912
  2081  000798                     l4908:
  2082                           
  2083                           ; BSR set to: 0
  2084                           ;./geral.h: 182: void testeADbit(){
  2085  000798  0101               	movlb	1	; () banked
  2086  00079A  4B78               	infsnz	testeMotores@i& (0+255),f,b
  2087  00079C  2B79               	incf	(testeMotores@i+1)& (0+255),f,b
  2088  00079E                     
  2089                           ; BSR set to: 1
  2090  00079E  BF79               	btfsc	(testeMotores@i+1)& (0+255),7,b
  2091  0007A0  EFDB  F003         	goto	u5301
  2092  0007A4  5179               	movf	(testeMotores@i+1)& (0+255),w,b
  2093  0007A6  E109               	bnz	u5300
  2094  0007A8  0E65               	movlw	101
  2095  0007AA  5D78               	subwf	testeMotores@i& (0+255),w,b
  2096  0007AC  A0D8               	btfss	status,0,c
  2097  0007AE  EFDB  F003         	goto	u5301
  2098  0007B2  EFDD  F003         	goto	u5300
  2099  0007B6                     u5301:
  2100  0007B6  EF9F  F003         	goto	l4900
  2101  0007BA                     u5300:
  2102  0007BA                     l4912:
  2103                           
  2104                           ;./geral.h: 183:             for (int i = 0; i < 7; i++) {
  2105  0007BA  0E00               	movlw	0
  2106  0007BC  0100               	movlb	0	; () banked
  2107  0007BE  6F85               	movwf	(setDutyPWM6@porcVelo+1)& (0+255),b
  2108  0007C0  0E00               	movlw	0
  2109  0007C2  6F84               	movwf	setDutyPWM6@porcVelo& (0+255),b
  2110  0007C4  EC14  F01D         	call	_setDutyPWM6	;wreg free
  2111                           
  2112                           ;./geral.h: 184:                 char string[2] = {'\0'};
  2113  0007C8  0E00               	movlw	0
  2114  0007CA  0100               	movlb	0	; () banked
  2115  0007CC  6F85               	movwf	(setDutyPWM2@porcVelo+1)& (0+255),b
  2116  0007CE  0E00               	movlw	0
  2117  0007D0  6F84               	movwf	setDutyPWM2@porcVelo& (0+255),b
  2118  0007D2  EC3E  F01D         	call	_setDutyPWM2	;wreg free
  2119  0007D6                     
  2120                           ;./geral.h: 187: 
  2121  0007D6  0E00               	movlw	0
  2122  0007D8  0101               	movlb	1	; () banked
  2123  0007DA  6F79               	movwf	(testeMotores@i+1)& (0+255),b
  2124  0007DC  0E00               	movlw	0
  2125  0007DE  6F78               	movwf	testeMotores@i& (0+255),b
  2126  0007E0                     l4920:
  2127                           
  2128                           ; BSR set to: 1
  2129                           ;./geral.h: 188:                 UARTSendString(string,16);
  2130  0007E0  C178  F084         	movff	testeMotores@i,setDutyPWM6@porcVelo
  2131  0007E4  C179  F085         	movff	testeMotores@i+1,setDutyPWM6@porcVelo+1
  2132  0007E8  EC14  F01D         	call	_setDutyPWM6	;wreg free
  2133                           
  2134                           ;./geral.h: 189:                 UARTSendString("\r", 16);
  2135  0007EC  C178  F084         	movff	testeMotores@i,setDutyPWM4@porcVelo
  2136  0007F0  C179  F085         	movff	testeMotores@i+1,setDutyPWM4@porcVelo+1
  2137  0007F4  EC29  F01D         	call	_setDutyPWM4	;wreg free
  2138  0007F8                     
  2139                           ;./geral.h: 190:                 UARTSendString(valorConvUARTbit(getAD_ANbit(i)), 16);
  2140  0007F8  0E82               	movlw	130
  2141  0007FA  0101               	movlb	1	; () banked
  2142  0007FC  6F77               	movwf	??_testeMotores& (0+255),b
  2143  0007FE  0EDD               	movlw	221
  2144  000800                     u5747:
  2145  000800  2EE8               	decfsz	wreg,f,c
  2146  000802  D7FE               	bra	u5747
  2147  000804  2F77               	decfsz	??_testeMotores& (0+255),f,b
  2148  000806  D7FC               	bra	u5747
  2149  000808  F000 F000          	nop2	
  2150  00080C                     
  2151                           ;./geral.h: 191:                 UARTSendString("\r", 16);
  2152  00080C  C0DF  F08D         	movff	_comando,myStrncmp@str1
  2153  000810  C0E0  F08E         	movff	_comando+1,myStrncmp@str1+1
  2154  000814  0E8E               	movlw	low STR_3
  2155  000816  0100               	movlb	0	; () banked
  2156  000818  6F8F               	movwf	myStrncmp@str2& (0+255),b
  2157  00081A  0E03               	movlw	high STR_3
  2158  00081C  6F90               	movwf	(myStrncmp@str2+1)& (0+255),b
  2159  00081E  EC86  F01C         	call	_myStrncmp	;wreg free
  2160  000822  0100               	movlb	0	; () banked
  2161  000824  518D               	movf	?_myStrncmp& (0+255),w,b
  2162  000826  118E               	iorwf	(?_myStrncmp+1)& (0+255),w,b
  2163  000828  B4D8               	btfsc	status,2,c
  2164  00082A  EF19  F004         	goto	u5311
  2165  00082E  EF1B  F004         	goto	u5310
  2166  000832                     u5311:
  2167  000832  EF1D  F004         	goto	l4928
  2168  000836                     u5310:
  2169  000836  EF2E  F004         	goto	l4932
  2170  00083A                     l4928:
  2171                           
  2172                           ; BSR set to: 0
  2173                           ;./geral.h: 192:                 UARTSendString("----------",16);
  2174  00083A  0101               	movlb	1	; () banked
  2175  00083C  4B78               	infsnz	testeMotores@i& (0+255),f,b
  2176  00083E  2B79               	incf	(testeMotores@i+1)& (0+255),f,b
  2177  000840                     
  2178                           ; BSR set to: 1
  2179  000840  BF79               	btfsc	(testeMotores@i+1)& (0+255),7,b
  2180  000842  EF2C  F004         	goto	u5321
  2181  000846  5179               	movf	(testeMotores@i+1)& (0+255),w,b
  2182  000848  E109               	bnz	u5320
  2183  00084A  0E65               	movlw	101
  2184  00084C  5D78               	subwf	testeMotores@i& (0+255),w,b
  2185  00084E  A0D8               	btfss	status,0,c
  2186  000850  EF2C  F004         	goto	u5321
  2187  000854  EF2E  F004         	goto	u5320
  2188  000858                     u5321:
  2189  000858  EFF0  F003         	goto	l4920
  2190  00085C                     u5320:
  2191  00085C                     l4932:
  2192                           
  2193                           ;./geral.h: 193:                 UARTSendString("\r",16);
  2194  00085C  0E00               	movlw	0
  2195  00085E  0100               	movlb	0	; () banked
  2196  000860  6F85               	movwf	(setDutyPWM6@porcVelo+1)& (0+255),b
  2197  000862  0E00               	movlw	0
  2198  000864  6F84               	movwf	setDutyPWM6@porcVelo& (0+255),b
  2199  000866  EC14  F01D         	call	_setDutyPWM6	;wreg free
  2200                           
  2201                           ;./geral.h: 194:             }
  2202  00086A  0E00               	movlw	0
  2203  00086C  0100               	movlb	0	; () banked
  2204  00086E  6F85               	movwf	(setDutyPWM4@porcVelo+1)& (0+255),b
  2205  000870  0E00               	movlw	0
  2206  000872  6F84               	movwf	setDutyPWM4@porcVelo& (0+255),b
  2207  000874  EC29  F01D         	call	_setDutyPWM4	;wreg free
  2208  000878  0012               	return		;funcret
  2209  00087A                     __end_of_testeMotores:
  2210                           	opt callstack 0
  2211                           
  2212 ;; *************** function _setDutyPWM6 *****************
  2213 ;; Defined at:
  2214 ;;		line 41 in file "./PWM.h"
  2215 ;; Parameters:    Size  Location     Type
  2216 ;;  porcVelo        2   36[BANK0 ] unsigned int 
  2217 ;; Auto vars:     Size  Location     Type
  2218 ;;  velo            2   38[BANK0 ] unsigned int 
  2219 ;; Return value:  Size  Location     Type
  2220 ;;                  1    wreg      void 
  2221 ;; Registers used:
  2222 ;;		wreg, status,2, status,0, prodl, prodh, cstack
  2223 ;; Tracked objects:
  2224 ;;		On entry : 0/0
  2225 ;;		On exit  : 0/0
  2226 ;;		Unchanged: 0/0
  2227 ;; Data sizes:     COMRAM   BANK0   BANK1   BANK2
  2228 ;;      Params:         0       2       0       0
  2229 ;;      Locals:         0       2       0       0
  2230 ;;      Temps:          0       0       0       0
  2231 ;;      Totals:         0       4       0       0
  2232 ;;Total ram usage:        4 bytes
  2233 ;; Hardware stack levels used:    1
  2234 ;; Hardware stack levels required when called:    7
  2235 ;; This function calls:
  2236 ;;		___wmul
  2237 ;; This function is called by:
  2238 ;;		_testeMotores
  2239 ;; This function uses a non-reentrant model
  2240 ;;
  2241                           
  2242                           	psect	text2
  2243  003A28                     __ptext2:
  2244                           	opt callstack 0
  2245  003A28                     _setDutyPWM6:
  2246                           	opt callstack 22
  2247  003A28                     
  2248                           ;./PWM.h: 42:     unsigned int velo = porcVelo*6;
  2249  003A28  C084  F07E         	movff	setDutyPWM6@porcVelo,___wmul@multiplier
  2250  003A2C  C085  F07F         	movff	setDutyPWM6@porcVelo+1,___wmul@multiplier+1
  2251  003A30  0E00               	movlw	0
  2252  003A32  0100               	movlb	0	; () banked
  2253  003A34  6F81               	movwf	(___wmul@multiplicand+1)& (0+255),b
  2254  003A36  0E06               	movlw	6
  2255  003A38  6F80               	movwf	___wmul@multiplicand& (0+255),b
  2256  003A3A  EC68  F01D         	call	___wmul	;wreg free
  2257  003A3E  C07E  F086         	movff	?___wmul,setDutyPWM6@velo
  2258  003A42  C07F  F087         	movff	?___wmul+1,setDutyPWM6@velo+1
  2259  003A46                     
  2260                           ;./PWM.h: 43:     PDC3L = velo & 0b11111111;
  2261  003A46  C086  FF73         	movff	setDutyPWM6@velo,3955	;volatile
  2262  003A4A                     
  2263                           ;./PWM.h: 44:     PDC3H = (velo >> 8) & 0b11111111;
  2264  003A4A  0100               	movlb	0	; () banked
  2265  003A4C  5187               	movf	(setDutyPWM6@velo+1)& (0+255),w,b
  2266  003A4E  6E72               	movwf	114,c	;volatile
  2267  003A50                     
  2268                           ; BSR set to: 0
  2269  003A50  0012               	return		;funcret
  2270  003A52                     __end_of_setDutyPWM6:
  2271                           	opt callstack 0
  2272                           
  2273 ;; *************** function _setDutyPWM4 *****************
  2274 ;; Defined at:
  2275 ;;		line 35 in file "./PWM.h"
  2276 ;; Parameters:    Size  Location     Type
  2277 ;;  porcVelo        2   36[BANK0 ] unsigned int 
  2278 ;; Auto vars:     Size  Location     Type
  2279 ;;  velo            2   38[BANK0 ] unsigned int 
  2280 ;; Return value:  Size  Location     Type
  2281 ;;                  1    wreg      void 
  2282 ;; Registers used:
  2283 ;;		wreg, status,2, status,0, prodl, prodh, cstack
  2284 ;; Tracked objects:
  2285 ;;		On entry : 0/0
  2286 ;;		On exit  : 0/0
  2287 ;;		Unchanged: 0/0
  2288 ;; Data sizes:     COMRAM   BANK0   BANK1   BANK2
  2289 ;;      Params:         0       2       0       0
  2290 ;;      Locals:         0       2       0       0
  2291 ;;      Temps:          0       0       0       0
  2292 ;;      Totals:         0       4       0       0
  2293 ;;Total ram usage:        4 bytes
  2294 ;; Hardware stack levels used:    1
  2295 ;; Hardware stack levels required when called:    7
  2296 ;; This function calls:
  2297 ;;		___wmul
  2298 ;; This function is called by:
  2299 ;;		_testeMotores
  2300 ;; This function uses a non-reentrant model
  2301 ;;
  2302                           
  2303                           	psect	text3
  2304  003A52                     __ptext3:
  2305                           	opt callstack 0
  2306  003A52                     _setDutyPWM4:
  2307                           	opt callstack 22
  2308  003A52                     
  2309                           ;./PWM.h: 36:     unsigned int velo = porcVelo*6;
  2310  003A52  C084  F07E         	movff	setDutyPWM4@porcVelo,___wmul@multiplier
  2311  003A56  C085  F07F         	movff	setDutyPWM4@porcVelo+1,___wmul@multiplier+1
  2312  003A5A  0E00               	movlw	0
  2313  003A5C  0100               	movlb	0	; () banked
  2314  003A5E  6F81               	movwf	(___wmul@multiplicand+1)& (0+255),b
  2315  003A60  0E06               	movlw	6
  2316  003A62  6F80               	movwf	___wmul@multiplicand& (0+255),b
  2317  003A64  EC68  F01D         	call	___wmul	;wreg free
  2318  003A68  C07E  F086         	movff	?___wmul,setDutyPWM4@velo
  2319  003A6C  C07F  F087         	movff	?___wmul+1,setDutyPWM4@velo+1
  2320  003A70                     
  2321                           ;./PWM.h: 37:     PDC2L = velo & 0b11111111;
  2322  003A70  C086  FF75         	movff	setDutyPWM4@velo,3957	;volatile
  2323  003A74                     
  2324                           ;./PWM.h: 38:     PDC2H = (velo >> 8) & 0b11111111;
  2325  003A74  0100               	movlb	0	; () banked
  2326  003A76  5187               	movf	(setDutyPWM4@velo+1)& (0+255),w,b
  2327  003A78  6E74               	movwf	116,c	;volatile
  2328  003A7A                     
  2329                           ; BSR set to: 0
  2330  003A7A  0012               	return		;funcret
  2331  003A7C                     __end_of_setDutyPWM4:
  2332                           	opt callstack 0
  2333                           
  2334 ;; *************** function _setDutyPWM2 *****************
  2335 ;; Defined at:
  2336 ;;		line 29 in file "./PWM.h"
  2337 ;; Parameters:    Size  Location     Type
  2338 ;;  porcVelo        2   36[BANK0 ] unsigned int 
  2339 ;; Auto vars:     Size  Location     Type
  2340 ;;  velo            2   38[BANK0 ] unsigned int 
  2341 ;; Return value:  Size  Location     Type
  2342 ;;                  1    wreg      void 
  2343 ;; Registers used:
  2344 ;;		wreg, status,2, status,0, prodl, prodh, cstack
  2345 ;; Tracked objects:
  2346 ;;		On entry : 0/0
  2347 ;;		On exit  : 0/0
  2348 ;;		Unchanged: 0/0
  2349 ;; Data sizes:     COMRAM   BANK0   BANK1   BANK2
  2350 ;;      Params:         0       2       0       0
  2351 ;;      Locals:         0       2       0       0
  2352 ;;      Temps:          0       0       0       0
  2353 ;;      Totals:         0       4       0       0
  2354 ;;Total ram usage:        4 bytes
  2355 ;; Hardware stack levels used:    1
  2356 ;; Hardware stack levels required when called:    7
  2357 ;; This function calls:
  2358 ;;		___wmul
  2359 ;; This function is called by:
  2360 ;;		_testeMotores
  2361 ;; This function uses a non-reentrant model
  2362 ;;
  2363                           
  2364                           	psect	text4
  2365  003A7C                     __ptext4:
  2366                           	opt callstack 0
  2367  003A7C                     _setDutyPWM2:
  2368                           	opt callstack 22
  2369  003A7C                     
  2370                           ;./PWM.h: 30:     unsigned int velo = porcVelo*6;
  2371  003A7C  C084  F07E         	movff	setDutyPWM2@porcVelo,___wmul@multiplier
  2372  003A80  C085  F07F         	movff	setDutyPWM2@porcVelo+1,___wmul@multiplier+1
  2373  003A84  0E00               	movlw	0
  2374  003A86  0100               	movlb	0	; () banked
  2375  003A88  6F81               	movwf	(___wmul@multiplicand+1)& (0+255),b
  2376  003A8A  0E06               	movlw	6
  2377  003A8C  6F80               	movwf	___wmul@multiplicand& (0+255),b
  2378  003A8E  EC68  F01D         	call	___wmul	;wreg free
  2379  003A92  C07E  F086         	movff	?___wmul,setDutyPWM2@velo
  2380  003A96  C07F  F087         	movff	?___wmul+1,setDutyPWM2@velo+1
  2381  003A9A                     
  2382                           ;./PWM.h: 31:     PDC1L = velo & 0b11111111;
  2383  003A9A  C086  FF77         	movff	setDutyPWM2@velo,3959	;volatile
  2384  003A9E                     
  2385                           ;./PWM.h: 32:     PDC1H = (velo >> 8) & 0b11111111;
  2386  003A9E  0100               	movlb	0	; () banked
  2387  003AA0  5187               	movf	(setDutyPWM2@velo+1)& (0+255),w,b
  2388  003AA2  6E76               	movwf	118,c	;volatile
  2389  003AA4                     
  2390                           ; BSR set to: 0
  2391  003AA4  0012               	return		;funcret
  2392  003AA6                     __end_of_setDutyPWM2:
  2393                           	opt callstack 0
  2394                           
  2395 ;; *************** function _setDutyPWM0 *****************
  2396 ;; Defined at:
  2397 ;;		line 23 in file "./PWM.h"
  2398 ;; Parameters:    Size  Location     Type
  2399 ;;  porcVelo        2   36[BANK0 ] unsigned int 
  2400 ;; Auto vars:     Size  Location     Type
  2401 ;;  velo            2   38[BANK0 ] unsigned int 
  2402 ;; Return value:  Size  Location     Type
  2403 ;;                  1    wreg      void 
  2404 ;; Registers used:
  2405 ;;		wreg, status,2, status,0, prodl, prodh, cstack
  2406 ;; Tracked objects:
  2407 ;;		On entry : 0/0
  2408 ;;		On exit  : 0/0
  2409 ;;		Unchanged: 0/0
  2410 ;; Data sizes:     COMRAM   BANK0   BANK1   BANK2
  2411 ;;      Params:         0       2       0       0
  2412 ;;      Locals:         0       2       0       0
  2413 ;;      Temps:          0       0       0       0
  2414 ;;      Totals:         0       4       0       0
  2415 ;;Total ram usage:        4 bytes
  2416 ;; Hardware stack levels used:    1
  2417 ;; Hardware stack levels required when called:    7
  2418 ;; This function calls:
  2419 ;;		___wmul
  2420 ;; This function is called by:
  2421 ;;		_testeMotores
  2422 ;; This function uses a non-reentrant model
  2423 ;;
  2424                           
  2425                           	psect	text5
  2426  003AA6                     __ptext5:
  2427                           	opt callstack 0
  2428  003AA6                     _setDutyPWM0:
  2429                           	opt callstack 22
  2430  003AA6                     
  2431                           ;./PWM.h: 24:     unsigned int velo = porcVelo*6;
  2432  003AA6  C084  F07E         	movff	setDutyPWM0@porcVelo,___wmul@multiplier
  2433  003AAA  C085  F07F         	movff	setDutyPWM0@porcVelo+1,___wmul@multiplier+1
  2434  003AAE  0E00               	movlw	0
  2435  003AB0  0100               	movlb	0	; () banked
  2436  003AB2  6F81               	movwf	(___wmul@multiplicand+1)& (0+255),b
  2437  003AB4  0E06               	movlw	6
  2438  003AB6  6F80               	movwf	___wmul@multiplicand& (0+255),b
  2439  003AB8  EC68  F01D         	call	___wmul	;wreg free
  2440  003ABC  C07E  F086         	movff	?___wmul,setDutyPWM0@velo
  2441  003AC0  C07F  F087         	movff	?___wmul+1,setDutyPWM0@velo+1
  2442  003AC4                     
  2443                           ;./PWM.h: 25:     PDC0L = velo & 0b11111111;
  2444  003AC4  C086  FF79         	movff	setDutyPWM0@velo,3961	;volatile
  2445  003AC8                     
  2446                           ;./PWM.h: 26:     PDC0H = (velo >> 8) & 0b11111111;
  2447  003AC8  0100               	movlb	0	; () banked
  2448  003ACA  5187               	movf	(setDutyPWM0@velo+1)& (0+255),w,b
  2449  003ACC  6E78               	movwf	120,c	;volatile
  2450  003ACE                     
  2451                           ; BSR set to: 0
  2452  003ACE  0012               	return		;funcret
  2453  003AD0                     __end_of_setDutyPWM0:
  2454                           	opt callstack 0
  2455                           
  2456 ;; *************** function ___wmul *****************
  2457 ;; Defined at:
  2458 ;;		line 15 in file "C:\Program Files (x86)\Microchip\xc8\v2.10\pic\sources\c99\common\Umul16.c"
  2459 ;; Parameters:    Size  Location     Type
  2460 ;;  multiplier      2   30[BANK0 ] unsigned int 
  2461 ;;  multiplicand    2   32[BANK0 ] unsigned int 
  2462 ;; Auto vars:     Size  Location     Type
  2463 ;;  product         2   34[BANK0 ] unsigned int 
  2464 ;; Return value:  Size  Location     Type
  2465 ;;                  2   30[BANK0 ] unsigned int 
  2466 ;; Registers used:
  2467 ;;		wreg, status,2, status,0, prodl, prodh
  2468 ;; Tracked objects:
  2469 ;;		On entry : 0/0
  2470 ;;		On exit  : 0/0
  2471 ;;		Unchanged: 0/0
  2472 ;; Data sizes:     COMRAM   BANK0   BANK1   BANK2
  2473 ;;      Params:         0       4       0       0
  2474 ;;      Locals:         0       2       0       0
  2475 ;;      Temps:          0       0       0       0
  2476 ;;      Totals:         0       6       0       0
  2477 ;;Total ram usage:        6 bytes
  2478 ;; Hardware stack levels used:    1
  2479 ;; Hardware stack levels required when called:    6
  2480 ;; This function calls:
  2481 ;;		Nothing
  2482 ;; This function is called by:
  2483 ;;		_setDutyPWM0
  2484 ;;		_setDutyPWM2
  2485 ;;		_setDutyPWM4
  2486 ;;		_setDutyPWM6
  2487 ;; This function uses a non-reentrant model
  2488 ;;
  2489                           
  2490                           	psect	text6
  2491  003AD0                     __ptext6:
  2492                           	opt callstack 0
  2493  003AD0                     ___wmul:
  2494                           	opt callstack 22
  2495  003AD0  0100               	movlb	0	; () banked
  2496  003AD2  517E               	movf	___wmul@multiplier& (0+255),w,b
  2497  003AD4  0380               	mulwf	___wmul@multiplicand& (0+255),b
  2498  003AD6  CFF3 F082          	movff	prodl,___wmul@product
  2499  003ADA  CFF4 F083          	movff	prodh,___wmul@product+1
  2500  003ADE  517E               	movf	___wmul@multiplier& (0+255),w,b
  2501  003AE0  0381               	mulwf	(___wmul@multiplicand+1)& (0+255),b
  2502  003AE2  50F3               	movf	243,w,c
  2503  003AE4  2783               	addwf	(___wmul@product+1)& (0+255),f,b
  2504  003AE6  517F               	movf	(___wmul@multiplier+1)& (0+255),w,b
  2505  003AE8  0380               	mulwf	___wmul@multiplicand& (0+255),b
  2506  003AEA  50F3               	movf	243,w,c
  2507  003AEC  2783               	addwf	(___wmul@product+1)& (0+255),f,b
  2508  003AEE                     
  2509                           ; BSR set to: 0
  2510  003AEE  C082  F07E         	movff	___wmul@product,?___wmul
  2511  003AF2  C083  F07F         	movff	___wmul@product+1,?___wmul+1
  2512  003AF6                     
  2513                           ; BSR set to: 0
  2514  003AF6  0012               	return		;funcret
  2515  003AF8                     __end_of___wmul:
  2516                           	opt callstack 0
  2517                           
  2518 ;; *************** function _testeLampadas *****************
  2519 ;; Defined at:
  2520 ;;		line 200 in file "./geral.h"
  2521 ;; Parameters:    Size  Location     Type
  2522 ;;		None
  2523 ;; Auto vars:     Size  Location     Type
  2524 ;;  i               2   51[BANK0 ] int 
  2525 ;; Return value:  Size  Location     Type
  2526 ;;                  1    wreg      void 
  2527 ;; Registers used:
  2528 ;;		wreg, status,2, status,0, tblptrl, tblptrh, tblptru, cstack
  2529 ;; Tracked objects:
  2530 ;;		On entry : 0/0
  2531 ;;		On exit  : 0/0
  2532 ;;		Unchanged: 0/0
  2533 ;; Data sizes:     COMRAM   BANK0   BANK1   BANK2
  2534 ;;      Params:         0       0       0       0
  2535 ;;      Locals:         0       2       0       0
  2536 ;;      Temps:          0       2       0       0
  2537 ;;      Totals:         0       4       0       0
  2538 ;;Total ram usage:        4 bytes
  2539 ;; Hardware stack levels used:    1
  2540 ;; Hardware stack levels required when called:    8
  2541 ;; This function calls:
  2542 ;;		_bitExtract
  2543 ;;		_myStrncmp
  2544 ;; This function is called by:
  2545 ;;		_main
  2546 ;; This function uses a non-reentrant model
  2547 ;;
  2548                           
  2549                           	psect	text7
  2550  0025A2                     __ptext7:
  2551                           	opt callstack 0
  2552  0025A2                     _testeLampadas:
  2553                           	opt callstack 22
  2554  0025A2  0E00               	movlw	0
  2555  0025A4  0100               	movlb	0	; () banked
  2556  0025A6  6F94               	movwf	(testeLampadas@i+1)& (0+255),b
  2557  0025A8  0E00               	movlw	0
  2558  0025AA  6F93               	movwf	testeLampadas@i& (0+255),b
  2559  0025AC                     l4940:
  2560                           
  2561                           ; BSR set to: 0
  2562  0025AC  C093  F07E         	movff	testeLampadas@i,bitExtract@numero
  2563  0025B0  C094  F07F         	movff	testeLampadas@i+1,bitExtract@numero+1
  2564  0025B4  0E00               	movlw	0
  2565  0025B6  6F81               	movwf	(bitExtract@k+1)& (0+255),b
  2566  0025B8  0E01               	movlw	1
  2567  0025BA  6F80               	movwf	bitExtract@k& (0+255),b
  2568  0025BC  0E00               	movlw	0
  2569  0025BE  6F83               	movwf	(bitExtract@p+1)& (0+255),b
  2570  0025C0  0E00               	movlw	0
  2571  0025C2  6F82               	movwf	bitExtract@p& (0+255),b
  2572  0025C4  ECFB  F01B         	call	_bitExtract	;wreg free
  2573  0025C8  0100               	movlb	0	; () banked
  2574  0025CA  317E               	rrcf	?_bitExtract& (0+255),w,b
  2575  0025CC  B0D8               	btfsc	status,0,c
  2576  0025CE  EFEB  F012         	goto	u5331
  2577  0025D2  EFEE  F012         	goto	u5330
  2578  0025D6                     u5331:
  2579  0025D6  8082               	bsf	3970,0,c	;volatile
  2580  0025D8  EFEF  F012         	goto	u5345
  2581  0025DC                     u5330:
  2582  0025DC  9082               	bcf	3970,0,c	;volatile
  2583  0025DE                     u5345:
  2584  0025DE  C093  F07E         	movff	testeLampadas@i,bitExtract@numero
  2585  0025E2  C094  F07F         	movff	testeLampadas@i+1,bitExtract@numero+1
  2586  0025E6  0E00               	movlw	0
  2587  0025E8  0100               	movlb	0	; () banked
  2588  0025EA  6F81               	movwf	(bitExtract@k+1)& (0+255),b
  2589  0025EC  0E01               	movlw	1
  2590  0025EE  6F80               	movwf	bitExtract@k& (0+255),b
  2591  0025F0  0E00               	movlw	0
  2592  0025F2  6F83               	movwf	(bitExtract@p+1)& (0+255),b
  2593  0025F4  0E01               	movlw	1
  2594  0025F6  6F82               	movwf	bitExtract@p& (0+255),b
  2595  0025F8  ECFB  F01B         	call	_bitExtract	;wreg free
  2596  0025FC  0100               	movlb	0	; () banked
  2597  0025FE  317E               	rrcf	?_bitExtract& (0+255),w,b
  2598  002600  B0D8               	btfsc	status,0,c
  2599  002602  EF05  F013         	goto	u5351
  2600  002606  EF08  F013         	goto	u5350
  2601  00260A                     u5351:
  2602  00260A  8282               	bsf	3970,1,c	;volatile
  2603  00260C  EF09  F013         	goto	u5365
  2604  002610                     u5350:
  2605  002610  9282               	bcf	3970,1,c	;volatile
  2606  002612                     u5365:
  2607  002612  C093  F07E         	movff	testeLampadas@i,bitExtract@numero
  2608  002616  C094  F07F         	movff	testeLampadas@i+1,bitExtract@numero+1
  2609  00261A  0E00               	movlw	0
  2610  00261C  0100               	movlb	0	; () banked
  2611  00261E  6F81               	movwf	(bitExtract@k+1)& (0+255),b
  2612  002620  0E01               	movlw	1
  2613  002622  6F80               	movwf	bitExtract@k& (0+255),b
  2614  002624  0E00               	movlw	0
  2615  002626  6F83               	movwf	(bitExtract@p+1)& (0+255),b
  2616  002628  0E02               	movlw	2
  2617  00262A  6F82               	movwf	bitExtract@p& (0+255),b
  2618  00262C  ECFB  F01B         	call	_bitExtract	;wreg free
  2619  002630  0100               	movlb	0	; () banked
  2620  002632  317E               	rrcf	?_bitExtract& (0+255),w,b
  2621  002634  B0D8               	btfsc	status,0,c
  2622  002636  EF1F  F013         	goto	u5371
  2623  00263A  EF22  F013         	goto	u5370
  2624  00263E                     u5371:
  2625  00263E  8482               	bsf	3970,2,c	;volatile
  2626  002640  EF23  F013         	goto	u5385
  2627  002644                     u5370:
  2628  002644  9482               	bcf	3970,2,c	;volatile
  2629  002646                     u5385:
  2630  002646  C093  F07E         	movff	testeLampadas@i,bitExtract@numero
  2631  00264A  C094  F07F         	movff	testeLampadas@i+1,bitExtract@numero+1
  2632  00264E  0E00               	movlw	0
  2633  002650  0100               	movlb	0	; () banked
  2634  002652  6F81               	movwf	(bitExtract@k+1)& (0+255),b
  2635  002654  0E01               	movlw	1
  2636  002656  6F80               	movwf	bitExtract@k& (0+255),b
  2637  002658  0E00               	movlw	0
  2638  00265A  6F83               	movwf	(bitExtract@p+1)& (0+255),b
  2639  00265C  0E03               	movlw	3
  2640  00265E  6F82               	movwf	bitExtract@p& (0+255),b
  2641  002660  ECFB  F01B         	call	_bitExtract	;wreg free
  2642  002664  0100               	movlb	0	; () banked
  2643  002666  317E               	rrcf	?_bitExtract& (0+255),w,b
  2644  002668  B0D8               	btfsc	status,0,c
  2645  00266A  EF39  F013         	goto	u5391
  2646  00266E  EF3C  F013         	goto	u5390
  2647  002672                     u5391:
  2648  002672  8682               	bsf	3970,3,c	;volatile
  2649  002674  EF3D  F013         	goto	u5405
  2650  002678                     u5390:
  2651  002678  9682               	bcf	3970,3,c	;volatile
  2652  00267A                     u5405:
  2653  00267A  C0DF  F08D         	movff	_comando,myStrncmp@str1
  2654  00267E  C0E0  F08E         	movff	_comando+1,myStrncmp@str1+1
  2655  002682  0E8E               	movlw	low STR_3
  2656  002684  0100               	movlb	0	; () banked
  2657  002686  6F8F               	movwf	myStrncmp@str2& (0+255),b
  2658  002688  0E03               	movlw	high STR_3
  2659  00268A  6F90               	movwf	(myStrncmp@str2+1)& (0+255),b
  2660  00268C  EC86  F01C         	call	_myStrncmp	;wreg free
  2661  002690  0100               	movlb	0	; () banked
  2662  002692  518D               	movf	?_myStrncmp& (0+255),w,b
  2663  002694  118E               	iorwf	(?_myStrncmp+1)& (0+255),w,b
  2664  002696  B4D8               	btfsc	status,2,c
  2665  002698  EF50  F013         	goto	u5411
  2666  00269C  EF52  F013         	goto	u5410
  2667  0026A0                     u5411:
  2668  0026A0  EF54  F013         	goto	l4946
  2669  0026A4                     u5410:
  2670  0026A4  EF72  F013         	goto	l246
  2671  0026A8                     l4946:
  2672                           
  2673                           ; BSR set to: 0
  2674  0026A8  0E0D               	movlw	13
  2675  0026AA  0100               	movlb	0	; () banked
  2676  0026AC  6F92               	movwf	(??_testeLampadas+1)& (0+255),b
  2677  0026AE  0EAF               	movlw	175
  2678  0026B0  6F91               	movwf	??_testeLampadas& (0+255),b
  2679  0026B2  0EB6               	movlw	182
  2680  0026B4                     u5757:
  2681  0026B4  2EE8               	decfsz	wreg,f,c
  2682  0026B6  D7FE               	bra	u5757
  2683  0026B8  2F91               	decfsz	??_testeLampadas& (0+255),f,b
  2684  0026BA  D7FC               	bra	u5757
  2685  0026BC  2F92               	decfsz	(??_testeLampadas+1)& (0+255),f,b
  2686  0026BE  D7FA               	bra	u5757
  2687  0026C0  F000               	nop	
  2688  0026C2  0100               	movlb	0	; () banked
  2689  0026C4  4B93               	infsnz	testeLampadas@i& (0+255),f,b
  2690  0026C6  2B94               	incf	(testeLampadas@i+1)& (0+255),f,b
  2691  0026C8  BF94               	btfsc	(testeLampadas@i+1)& (0+255),7,b
  2692  0026CA  EF70  F013         	goto	u5421
  2693  0026CE  5194               	movf	(testeLampadas@i+1)& (0+255),w,b
  2694  0026D0  E109               	bnz	u5420
  2695  0026D2  0E10               	movlw	16
  2696  0026D4  5D93               	subwf	testeLampadas@i& (0+255),w,b
  2697  0026D6  A0D8               	btfss	status,0,c
  2698  0026D8  EF70  F013         	goto	u5421
  2699  0026DC  EF72  F013         	goto	u5420
  2700  0026E0                     u5421:
  2701  0026E0  EFD6  F012         	goto	l4940
  2702  0026E4                     u5420:
  2703  0026E4                     l246:
  2704                           
  2705                           ; BSR set to: 0
  2706  0026E4  0012               	return		;funcret
  2707  0026E6                     __end_of_testeLampadas:
  2708                           	opt callstack 0
  2709                           
  2710 ;; *************** function _myStrncmp *****************
  2711 ;; Defined at:
  2712 ;;		line 76 in file "./geral.h"
  2713 ;; Parameters:    Size  Location     Type
  2714 ;;  str1            2   45[BANK0 ] PTR const unsigned char 
  2715 ;;		 -> STR_52(2), STR_50(5), STR_49(11), STR_47(3), 
  2716 ;;		 -> STR_46(14), STR_45(13), STR_1(1), 
  2717 ;;  str2            2   47[BANK0 ] PTR const unsigned char 
  2718 ;;		 -> STR_62(11), STR_60(3), STR_58(14), STR_56(13), 
  2719 ;;		 -> STR_54(5), STR_21(5), STR_19(5), STR_17(5), 
  2720 ;;		 -> STR_15(5), STR_13(5), STR_11(5), STR_9(5), 
  2721 ;;		 -> STR_7(5), STR_4(5), 
  2722 ;; Auto vars:     Size  Location     Type
  2723 ;;		None
  2724 ;; Return value:  Size  Location     Type
  2725 ;;                  2   45[BANK0 ] int 
  2726 ;; Registers used:
  2727 ;;		wreg, status,2, status,0, tblptrl, tblptrh, tblptru, cstack
  2728 ;; Tracked objects:
  2729 ;;		On entry : 0/0
  2730 ;;		On exit  : 0/0
  2731 ;;		Unchanged: 0/0
  2732 ;; Data sizes:     COMRAM   BANK0   BANK1   BANK2
  2733 ;;      Params:         0       4       0       0
  2734 ;;      Locals:         0       0       0       0
  2735 ;;      Temps:          0       0       0       0
  2736 ;;      Totals:         0       4       0       0
  2737 ;;Total ram usage:        4 bytes
  2738 ;; Hardware stack levels used:    1
  2739 ;; Hardware stack levels required when called:    7
  2740 ;; This function calls:
  2741 ;;		_strlen
  2742 ;;		_strncmp
  2743 ;; This function is called by:
  2744 ;;		_testeMotores
  2745 ;;		_testeLampadas
  2746 ;;		_main
  2747 ;; This function uses a non-reentrant model
  2748 ;;
  2749                           
  2750                           	psect	text8
  2751  00390C                     __ptext8:
  2752                           	opt callstack 0
  2753  00390C                     _myStrncmp:
  2754                           	opt callstack 22
  2755  00390C                     
  2756                           ;./geral.h: 77: 
  2757  00390C  C08D  F082         	movff	myStrncmp@str1,strncmp@_l
  2758  003910  C08E  F083         	movff	myStrncmp@str1+1,strncmp@_l+1
  2759  003914  C08F  F084         	movff	myStrncmp@str2,strncmp@_r
  2760  003918  C090  F085         	movff	myStrncmp@str2+1,strncmp@_r+1
  2761  00391C  C08D  F07E         	movff	myStrncmp@str1,strlen@s
  2762  003920  C08E  F07F         	movff	myStrncmp@str1+1,strlen@s+1
  2763  003924  ECF5  F01C         	call	_strlen	;wreg free
  2764  003928  C07E  F086         	movff	?_strlen,strncmp@n
  2765  00392C  C07F  F087         	movff	?_strlen+1,strncmp@n+1
  2766  003930  ECB4  F018         	call	_strncmp	;wreg free
  2767  003934  0100               	movlb	0	; () banked
  2768  003936  5182               	movf	?_strncmp& (0+255),w,b
  2769  003938  1183               	iorwf	(?_strncmp+1)& (0+255),w,b
  2770  00393A  A4D8               	btfss	status,2,c
  2771  00393C  EFA2  F01C         	goto	u5161
  2772  003940  EFA4  F01C         	goto	u5160
  2773  003944                     u5161:
  2774  003944  EFAA  F01C         	goto	l4760
  2775  003948                     u5160:
  2776  003948                     
  2777                           ; BSR set to: 0
  2778                           ;./geral.h: 78: 
  2779  003948  0E00               	movlw	0
  2780  00394A  6F8E               	movwf	(?_myStrncmp+1)& (0+255),b
  2781  00394C  0E01               	movlw	1
  2782  00394E  6F8D               	movwf	?_myStrncmp& (0+255),b
  2783  003950  EFAE  F01C         	goto	l202
  2784  003954                     l4760:
  2785                           
  2786                           ; BSR set to: 0
  2787                           ;./geral.h: 81:         _delay((unsigned long)((20)*(20000000/4000.0)));
  2788  003954  0E00               	movlw	0
  2789  003956  6F8E               	movwf	(?_myStrncmp+1)& (0+255),b
  2790  003958  0E00               	movlw	0
  2791  00395A  6F8D               	movwf	?_myStrncmp& (0+255),b
  2792  00395C                     l202:
  2793                           
  2794                           ; BSR set to: 0
  2795  00395C  0012               	return		;funcret
  2796  00395E                     __end_of_myStrncmp:
  2797                           	opt callstack 0
  2798                           
  2799 ;; *************** function _strncmp *****************
  2800 ;; Defined at:
  2801 ;;		line 3 in file "C:\Program Files (x86)\Microchip\xc8\v2.10\pic\sources\c99\common\strncmp.c"
  2802 ;; Parameters:    Size  Location     Type
  2803 ;;  _l              2   34[BANK0 ] PTR const unsigned char 
  2804 ;;		 -> STR_52(2), STR_50(5), STR_49(11), STR_47(3), 
  2805 ;;		 -> STR_46(14), STR_45(13), STR_1(1), 
  2806 ;;  _r              2   36[BANK0 ] PTR const unsigned char 
  2807 ;;		 -> STR_62(11), STR_60(3), STR_58(14), STR_56(13), 
  2808 ;;		 -> STR_54(5), STR_21(5), STR_19(5), STR_17(5), 
  2809 ;;		 -> STR_15(5), STR_13(5), STR_11(5), STR_9(5), 
  2810 ;;		 -> STR_7(5), STR_4(5), 
  2811 ;;  n               2   38[BANK0 ] unsigned int 
  2812 ;; Auto vars:     Size  Location     Type
  2813 ;;  r               2   43[BANK0 ] PTR const unsigned char 
  2814 ;;		 -> STR_62(11), STR_60(3), STR_58(14), STR_56(13), 
  2815 ;;		 -> STR_54(5), STR_21(5), STR_19(5), STR_17(5), 
  2816 ;;		 -> STR_15(5), STR_13(5), STR_11(5), STR_9(5), 
  2817 ;;		 -> STR_7(5), STR_4(5), 
  2818 ;;  l               2   41[BANK0 ] PTR const unsigned char 
  2819 ;;		 -> STR_52(2), STR_50(5), STR_49(11), STR_47(3), 
  2820 ;;		 -> STR_46(14), STR_45(13), STR_1(1), 
  2821 ;; Return value:  Size  Location     Type
  2822 ;;                  2   34[BANK0 ] int 
  2823 ;; Registers used:
  2824 ;;		wreg, status,2, status,0, tblptrl, tblptrh, tblptru
  2825 ;; Tracked objects:
  2826 ;;		On entry : 0/0
  2827 ;;		On exit  : 0/0
  2828 ;;		Unchanged: 0/0
  2829 ;; Data sizes:     COMRAM   BANK0   BANK1   BANK2
  2830 ;;      Params:         0       6       0       0
  2831 ;;      Locals:         0       4       0       0
  2832 ;;      Temps:          0       1       0       0
  2833 ;;      Totals:         0      11       0       0
  2834 ;;Total ram usage:       11 bytes
  2835 ;; Hardware stack levels used:    1
  2836 ;; Hardware stack levels required when called:    6
  2837 ;; This function calls:
  2838 ;;		Nothing
  2839 ;; This function is called by:
  2840 ;;		_myStrncmp
  2841 ;; This function uses a non-reentrant model
  2842 ;;
  2843                           
  2844                           	psect	text9
  2845  003168                     __ptext9:
  2846                           	opt callstack 0
  2847  003168                     _strncmp:
  2848                           	opt callstack 22
  2849  003168  C082  F089         	movff	strncmp@_l,strncmp@l
  2850  00316C  C083  F08A         	movff	strncmp@_l+1,strncmp@l+1
  2851  003170  C084  F08B         	movff	strncmp@_r,strncmp@r
  2852  003174  C085  F08C         	movff	strncmp@_r+1,strncmp@r+1
  2853  003178  0100               	movlb	0	; () banked
  2854  00317A  0786               	decf	strncmp@n& (0+255),f,b
  2855  00317C  A0D8               	btfss	status,0,c
  2856  00317E  0787               	decf	(strncmp@n+1)& (0+255),f,b
  2857  003180  2986               	incf	strncmp@n& (0+255),w,b
  2858  003182  E106               	bnz	u4891
  2859  003184  2987               	incf	(strncmp@n+1)& (0+255),w,b
  2860  003186  A4D8               	btfss	status,2,c
  2861  003188  EFC8  F018         	goto	u4891
  2862  00318C  EFCA  F018         	goto	u4890
  2863  003190                     u4891:
  2864  003190  EFD7  F018         	goto	l4550
  2865  003194                     u4890:
  2866  003194                     
  2867                           ; BSR set to: 0
  2868  003194  0E00               	movlw	0
  2869  003196  6F83               	movwf	(?_strncmp+1)& (0+255),b
  2870  003198  0E00               	movlw	0
  2871  00319A  6F82               	movwf	?_strncmp& (0+255),b
  2872  00319C  EF23  F019         	goto	l1053
  2873  0031A0                     l4548:
  2874                           
  2875                           ; BSR set to: 0
  2876  0031A0  4B89               	infsnz	strncmp@l& (0+255),f,b
  2877  0031A2  2B8A               	incf	(strncmp@l+1)& (0+255),f,b
  2878  0031A4  4B8B               	infsnz	strncmp@r& (0+255),f,b
  2879  0031A6  2B8C               	incf	(strncmp@r+1)& (0+255),f,b
  2880  0031A8  0786               	decf	strncmp@n& (0+255),f,b
  2881  0031AA  A0D8               	btfss	status,0,c
  2882  0031AC  0787               	decf	(strncmp@n+1)& (0+255),f,b
  2883  0031AE                     l4550:
  2884                           
  2885                           ; BSR set to: 0
  2886  0031AE  C089  FFF6         	movff	strncmp@l,tblptrl
  2887  0031B2  C08A  FFF7         	movff	strncmp@l+1,tblptrh
  2888  0031B6                     	if	0	;tblptru may be non-zero
  2889  0031B6                     	endif
  2890  0031B6                     	if	0	;tblptru may be non-zero
  2891  0031B6                     	endif
  2892  0031B6  0008               	tblrd		*
  2893  0031B8  50F5               	movf	tablat,w,c
  2894  0031BA  0900               	iorlw	0
  2895  0031BC  B4D8               	btfsc	status,2,c
  2896  0031BE  EFE3  F018         	goto	u4901
  2897  0031C2  EFE5  F018         	goto	u4900
  2898  0031C6                     u4901:
  2899  0031C6  EF11  F019         	goto	l4558
  2900  0031CA                     u4900:
  2901  0031CA                     
  2902                           ; BSR set to: 0
  2903  0031CA  C08B  FFF6         	movff	strncmp@r,tblptrl
  2904  0031CE  C08C  FFF7         	movff	strncmp@r+1,tblptrh
  2905  0031D2                     	if	0	;tblptru may be non-zero
  2906  0031D2                     	endif
  2907  0031D2                     	if	0	;tblptru may be non-zero
  2908  0031D2                     	endif
  2909  0031D2  0008               	tblrd		*
  2910  0031D4  50F5               	movf	tablat,w,c
  2911  0031D6  0900               	iorlw	0
  2912  0031D8  B4D8               	btfsc	status,2,c
  2913  0031DA  EFF1  F018         	goto	u4911
  2914  0031DE  EFF3  F018         	goto	u4910
  2915  0031E2                     u4911:
  2916  0031E2  EF11  F019         	goto	l4558
  2917  0031E6                     u4910:
  2918  0031E6                     
  2919                           ; BSR set to: 0
  2920  0031E6  5186               	movf	strncmp@n& (0+255),w,b
  2921  0031E8  1187               	iorwf	(strncmp@n+1)& (0+255),w,b
  2922  0031EA  B4D8               	btfsc	status,2,c
  2923  0031EC  EFFA  F018         	goto	u4921
  2924  0031F0  EFFC  F018         	goto	u4920
  2925  0031F4                     u4921:
  2926  0031F4  EF11  F019         	goto	l4558
  2927  0031F8                     u4920:
  2928  0031F8                     
  2929                           ; BSR set to: 0
  2930  0031F8  C089  FFF6         	movff	strncmp@l,tblptrl
  2931  0031FC  C08A  FFF7         	movff	strncmp@l+1,tblptrh
  2932  003200                     	if	0	;tblptru may be non-zero
  2933  003200                     	endif
  2934  003200                     	if	0	;tblptru may be non-zero
  2935  003200                     	endif
  2936  003200  0008               	tblrd		*
  2937  003202  CFF5 F088          	movff	tablat,??_strncmp
  2938  003206  C08B  FFF6         	movff	strncmp@r,tblptrl
  2939  00320A  C08C  FFF7         	movff	strncmp@r+1,tblptrh
  2940  00320E                     	if	0	;tblptru may be non-zero
  2941  00320E                     	endif
  2942  00320E                     	if	0	;tblptru may be non-zero
  2943  00320E                     	endif
  2944  00320E  0008               	tblrd		*
  2945  003210  50F5               	movf	tablat,w,c
  2946  003212  1988               	xorwf	??_strncmp& (0+255),w,b
  2947  003214  B4D8               	btfsc	status,2,c
  2948  003216  EF0F  F019         	goto	u4931
  2949  00321A  EF11  F019         	goto	u4930
  2950  00321E                     u4931:
  2951  00321E  EFD0  F018         	goto	l4548
  2952  003222                     u4930:
  2953  003222                     l4558:
  2954                           
  2955                           ; BSR set to: 0
  2956  003222  C089  FFF6         	movff	strncmp@l,tblptrl
  2957  003226  C08A  FFF7         	movff	strncmp@l+1,tblptrh
  2958  00322A                     	if	0	;tblptru may be non-zero
  2959  00322A                     	endif
  2960  00322A                     	if	0	;tblptru may be non-zero
  2961  00322A                     	endif
  2962  00322A  0008               	tblrd		*
  2963  00322C  CFF5 F088          	movff	tablat,??_strncmp
  2964  003230  C08B  FFF6         	movff	strncmp@r,tblptrl
  2965  003234  C08C  FFF7         	movff	strncmp@r+1,tblptrh
  2966  003238                     	if	0	;tblptru may be non-zero
  2967  003238                     	endif
  2968  003238                     	if	0	;tblptru may be non-zero
  2969  003238                     	endif
  2970  003238  0008               	tblrd		*
  2971  00323A  50F5               	movf	tablat,w,c
  2972  00323C  5D88               	subwf	??_strncmp& (0+255),w,b
  2973  00323E  6F82               	movwf	?_strncmp& (0+255),b
  2974  003240  6B83               	clrf	(?_strncmp+1)& (0+255),b
  2975  003242  A0D8               	btfss	status,0,c
  2976  003244  0783               	decf	(?_strncmp+1)& (0+255),f,b
  2977  003246                     l1053:
  2978                           
  2979                           ; BSR set to: 0
  2980  003246  0012               	return		;funcret
  2981  003248                     __end_of_strncmp:
  2982                           	opt callstack 0
  2983                           
  2984 ;; *************** function _strlen *****************
  2985 ;; Defined at:
  2986 ;;		line 5 in file "C:\Program Files (x86)\Microchip\xc8\v2.10\pic\sources\c99\common\strlen.c"
  2987 ;; Parameters:    Size  Location     Type
  2988 ;;  s               2   30[BANK0 ] PTR const unsigned char 
  2989 ;;		 -> STR_52(2), STR_50(5), STR_49(11), STR_47(3), 
  2990 ;;		 -> STR_46(14), STR_45(13), STR_1(1), 
  2991 ;; Auto vars:     Size  Location     Type
  2992 ;;  a               2   32[BANK0 ] PTR const unsigned char 
  2993 ;;		 -> STR_52(2), STR_50(5), STR_49(11), STR_47(3), 
  2994 ;;		 -> STR_46(14), STR_45(13), STR_1(1), 
  2995 ;; Return value:  Size  Location     Type
  2996 ;;                  2   30[BANK0 ] unsigned int 
  2997 ;; Registers used:
  2998 ;;		wreg, status,2, status,0, tblptrl, tblptrh, tblptru
  2999 ;; Tracked objects:
  3000 ;;		On entry : 0/0
  3001 ;;		On exit  : 0/0
  3002 ;;		Unchanged: 0/0
  3003 ;; Data sizes:     COMRAM   BANK0   BANK1   BANK2
  3004 ;;      Params:         0       2       0       0
  3005 ;;      Locals:         0       2       0       0
  3006 ;;      Temps:          0       0       0       0
  3007 ;;      Totals:         0       4       0       0
  3008 ;;Total ram usage:        4 bytes
  3009 ;; Hardware stack levels used:    1
  3010 ;; Hardware stack levels required when called:    6
  3011 ;; This function calls:
  3012 ;;		Nothing
  3013 ;; This function is called by:
  3014 ;;		_myStrncmp
  3015 ;; This function uses a non-reentrant model
  3016 ;;
  3017                           
  3018                           	psect	text10
  3019  0039EA                     __ptext10:
  3020                           	opt callstack 0
  3021  0039EA                     _strlen:
  3022                           	opt callstack 22
  3023  0039EA  C07E  F080         	movff	strlen@s,strlen@a
  3024  0039EE  C07F  F081         	movff	strlen@s+1,strlen@a+1
  3025  0039F2  EFFE  F01C         	goto	l4536
  3026  0039F6                     l4534:
  3027  0039F6  0100               	movlb	0	; () banked
  3028  0039F8  4B7E               	infsnz	strlen@s& (0+255),f,b
  3029  0039FA  2B7F               	incf	(strlen@s+1)& (0+255),f,b
  3030  0039FC                     l4536:
  3031  0039FC  C07E  FFF6         	movff	strlen@s,tblptrl
  3032  003A00  C07F  FFF7         	movff	strlen@s+1,tblptrh
  3033  003A04                     	if	0	;tblptru may be non-zero
  3034  003A04                     	endif
  3035  003A04                     	if	0	;tblptru may be non-zero
  3036  003A04                     	endif
  3037  003A04  0008               	tblrd		*
  3038  003A06  50F5               	movf	tablat,w,c
  3039  003A08  0900               	iorlw	0
  3040  003A0A  A4D8               	btfss	status,2,c
  3041  003A0C  EF0A  F01D         	goto	u4881
  3042  003A10  EF0C  F01D         	goto	u4880
  3043  003A14                     u4881:
  3044  003A14  EFFB  F01C         	goto	l4534
  3045  003A18                     u4880:
  3046  003A18  0100               	movlb	0	; () banked
  3047  003A1A  5180               	movf	strlen@a& (0+255),w,b
  3048  003A1C  5D7E               	subwf	strlen@s& (0+255),w,b
  3049  003A1E  6F7E               	movwf	?_strlen& (0+255),b
  3050  003A20  5181               	movf	(strlen@a+1)& (0+255),w,b
  3051  003A22  597F               	subwfb	(strlen@s+1)& (0+255),w,b
  3052  003A24  6F7F               	movwf	(?_strlen+1)& (0+255),b
  3053  003A26                     
  3054                           ; BSR set to: 0
  3055  003A26  0012               	return		;funcret
  3056  003A28                     __end_of_strlen:
  3057                           	opt callstack 0
  3058                           
  3059 ;; *************** function _testeADbit *****************
  3060 ;; Defined at:
  3061 ;;		line 252 in file "./geral.h"
  3062 ;; Parameters:    Size  Location     Type
  3063 ;;		None
  3064 ;; Auto vars:     Size  Location     Type
  3065 ;;  string          2   23[BANK1 ] unsigned char [2]
  3066 ;;  i               2   25[BANK1 ] int 
  3067 ;; Return value:  Size  Location     Type
  3068 ;;                  1    wreg      void 
  3069 ;; Registers used:
  3070 ;;		wreg, fsr2l, fsr2h, status,2, status,0, tblptrl, tblptrh, tblptru, cstack
  3071 ;; Tracked objects:
  3072 ;;		On entry : 0/0
  3073 ;;		On exit  : 0/0
  3074 ;;		Unchanged: 0/0
  3075 ;; Data sizes:     COMRAM   BANK0   BANK1   BANK2
  3076 ;;      Params:         0       0       0       0
  3077 ;;      Locals:         0       0       4       0
  3078 ;;      Temps:          0       0       2       0
  3079 ;;      Totals:         0       0       6       0
  3080 ;;Total ram usage:        6 bytes
  3081 ;; Hardware stack levels used:    1
  3082 ;; Hardware stack levels required when called:    9
  3083 ;; This function calls:
  3084 ;;		_UARTSendString
  3085 ;;		_getAD_ANbit
  3086 ;;		_valorConvUARTbit
  3087 ;; This function is called by:
  3088 ;;		_main
  3089 ;; This function uses a non-reentrant model
  3090 ;;
  3091                           
  3092                           	psect	text11
  3093  002F84                     __ptext11:
  3094                           	opt callstack 0
  3095  002F84                     _testeADbit:
  3096                           	opt callstack 21
  3097  002F84  0E00               	movlw	0
  3098  002F86  0101               	movlb	1	; () banked
  3099  002F88  6F7C               	movwf	(testeADbit@i+1)& (0+255),b
  3100  002F8A  0E00               	movlw	0
  3101  002F8C  6F7B               	movwf	testeADbit@i& (0+255),b
  3102  002F8E                     l4992:
  3103                           
  3104                           ; BSR set to: 1
  3105  002F8E  0E00               	movlw	0
  3106  002F90  6F7A               	movwf	(testeADbit@string+1)& (0+255),b
  3107  002F92  0E00               	movlw	0
  3108  002F94  6F79               	movwf	testeADbit@string& (0+255),b
  3109  002F96                     
  3110                           ; BSR set to: 1
  3111  002F96  517B               	movf	testeADbit@i& (0+255),w,b
  3112  002F98  0F30               	addlw	48
  3113  002F9A  6F79               	movwf	testeADbit@string& (0+255),b
  3114  002F9C                     
  3115                           ; BSR set to: 1
  3116  002F9C  0E79               	movlw	low testeADbit@string
  3117  002F9E  6F6F               	movwf	UARTSendString@str& (0+255),b
  3118  002FA0  0E01               	movlw	high testeADbit@string
  3119  002FA2  6F70               	movwf	(UARTSendString@str+1)& (0+255),b
  3120  002FA4  0E00               	movlw	0
  3121  002FA6  6F72               	movwf	(UARTSendString@max_length+1)& (0+255),b
  3122  002FA8  0E10               	movlw	16
  3123  002FAA  6F71               	movwf	UARTSendString@max_length& (0+255),b
  3124  002FAC  EC24  F019         	call	_UARTSendString	;wreg free
  3125  002FB0  0E9C               	movlw	low STR_23
  3126  002FB2  0101               	movlb	1	; () banked
  3127  002FB4  6F6F               	movwf	UARTSendString@str& (0+255),b
  3128  002FB6  0E03               	movlw	high STR_23
  3129  002FB8  6F70               	movwf	(UARTSendString@str+1)& (0+255),b
  3130  002FBA  0E00               	movlw	0
  3131  002FBC  6F72               	movwf	(UARTSendString@max_length+1)& (0+255),b
  3132  002FBE  0E10               	movlw	16
  3133  002FC0  6F71               	movwf	UARTSendString@max_length& (0+255),b
  3134  002FC2  EC24  F019         	call	_UARTSendString	;wreg free
  3135  002FC6  C17B  F08C         	movff	testeADbit@i,getAD_ANbit@porta
  3136  002FCA  C17C  F08D         	movff	testeADbit@i+1,getAD_ANbit@porta+1
  3137  002FCE  ECBE  F016         	call	_getAD_ANbit	;wreg free
  3138  002FD2  C08C  F090         	movff	?_getAD_ANbit,valorConvUARTbit@valor
  3139  002FD6  C08D  F091         	movff	?_getAD_ANbit+1,valorConvUARTbit@valor+1
  3140  002FDA  EC3B  F018         	call	_valorConvUARTbit	;wreg free
  3141  002FDE  C090  F16F         	movff	?_valorConvUARTbit,UARTSendString@str
  3142  002FE2  C091  F170         	movff	?_valorConvUARTbit+1,UARTSendString@str+1
  3143  002FE6  0E00               	movlw	0
  3144  002FE8  0101               	movlb	1	; () banked
  3145  002FEA  6F72               	movwf	(UARTSendString@max_length+1)& (0+255),b
  3146  002FEC  0E10               	movlw	16
  3147  002FEE  6F71               	movwf	UARTSendString@max_length& (0+255),b
  3148  002FF0  EC24  F019         	call	_UARTSendString	;wreg free
  3149  002FF4  0E9C               	movlw	low STR_23
  3150  002FF6  0101               	movlb	1	; () banked
  3151  002FF8  6F6F               	movwf	UARTSendString@str& (0+255),b
  3152  002FFA  0E03               	movlw	high STR_23
  3153  002FFC  6F70               	movwf	(UARTSendString@str+1)& (0+255),b
  3154  002FFE  0E00               	movlw	0
  3155  003000  6F72               	movwf	(UARTSendString@max_length+1)& (0+255),b
  3156  003002  0E10               	movlw	16
  3157  003004  6F71               	movwf	UARTSendString@max_length& (0+255),b
  3158  003006  EC24  F019         	call	_UARTSendString	;wreg free
  3159  00300A  0E39               	movlw	low STR_38
  3160  00300C  0101               	movlb	1	; () banked
  3161  00300E  6F6F               	movwf	UARTSendString@str& (0+255),b
  3162  003010  0E03               	movlw	high STR_38
  3163  003012  6F70               	movwf	(UARTSendString@str+1)& (0+255),b
  3164  003014  0E00               	movlw	0
  3165  003016  6F72               	movwf	(UARTSendString@max_length+1)& (0+255),b
  3166  003018  0E10               	movlw	16
  3167  00301A  6F71               	movwf	UARTSendString@max_length& (0+255),b
  3168  00301C  EC24  F019         	call	_UARTSendString	;wreg free
  3169  003020  0E9C               	movlw	low STR_23
  3170  003022  0101               	movlb	1	; () banked
  3171  003024  6F6F               	movwf	UARTSendString@str& (0+255),b
  3172  003026  0E03               	movlw	high STR_23
  3173  003028  6F70               	movwf	(UARTSendString@str+1)& (0+255),b
  3174  00302A  0E00               	movlw	0
  3175  00302C  6F72               	movwf	(UARTSendString@max_length+1)& (0+255),b
  3176  00302E  0E10               	movlw	16
  3177  003030  6F71               	movwf	UARTSendString@max_length& (0+255),b
  3178  003032  EC24  F019         	call	_UARTSendString	;wreg free
  3179  003036  0101               	movlb	1	; () banked
  3180  003038  4B7B               	infsnz	testeADbit@i& (0+255),f,b
  3181  00303A  2B7C               	incf	(testeADbit@i+1)& (0+255),f,b
  3182  00303C                     
  3183                           ; BSR set to: 1
  3184  00303C  BF7C               	btfsc	(testeADbit@i+1)& (0+255),7,b
  3185  00303E  EF2A  F018         	goto	u5431
  3186  003042  517C               	movf	(testeADbit@i+1)& (0+255),w,b
  3187  003044  E109               	bnz	u5430
  3188  003046  0E07               	movlw	7
  3189  003048  5D7B               	subwf	testeADbit@i& (0+255),w,b
  3190  00304A  A0D8               	btfss	status,0,c
  3191  00304C  EF2A  F018         	goto	u5431
  3192  003050  EF2C  F018         	goto	u5430
  3193  003054                     u5431:
  3194  003054  EFC7  F017         	goto	l4992
  3195  003058                     u5430:
  3196  003058                     
  3197                           ; BSR set to: 1
  3198  003058  0E33               	movlw	51
  3199  00305A  0101               	movlb	1	; () banked
  3200  00305C  6F78               	movwf	(??_testeADbit+1)& (0+255),b
  3201  00305E  0EBB               	movlw	187
  3202  003060  6F77               	movwf	??_testeADbit& (0+255),b
  3203  003062  0EDF               	movlw	223
  3204  003064                     u5767:
  3205  003064  2EE8               	decfsz	wreg,f,c
  3206  003066  D7FE               	bra	u5767
  3207  003068  2F77               	decfsz	??_testeADbit& (0+255),f,b
  3208  00306A  D7FC               	bra	u5767
  3209  00306C  2F78               	decfsz	(??_testeADbit+1)& (0+255),f,b
  3210  00306E  D7FA               	bra	u5767
  3211  003070  F000 F000          	nop2	
  3212  003074  0012               	return		;funcret
  3213  003076                     __end_of_testeADbit:
  3214                           	opt callstack 0
  3215                           
  3216 ;; *************** function _valorConvUARTbit *****************
  3217 ;; Defined at:
  3218 ;;		line 48 in file "./ADC.h"
  3219 ;; Parameters:    Size  Location     Type
  3220 ;;  valor           2   48[BANK0 ] int 
  3221 ;; Auto vars:     Size  Location     Type
  3222 ;;  string          5   60[BANK0 ] unsigned char [5]
  3223 ;;  unidade         2   56[BANK0 ] int 
  3224 ;;  dezena          2   54[BANK0 ] int 
  3225 ;;  centena         2   52[BANK0 ] int 
  3226 ;;  milhar          2   50[BANK0 ] int 
  3227 ;; Return value:  Size  Location     Type
  3228 ;;                  2   48[BANK0 ] PTR const unsigned char 
  3229 ;; Registers used:
  3230 ;;		wreg, fsr2l, fsr2h, status,2, status,0, cstack
  3231 ;; Tracked objects:
  3232 ;;		On entry : 0/0
  3233 ;;		On exit  : 0/0
  3234 ;;		Unchanged: 0/0
  3235 ;; Data sizes:     COMRAM   BANK0   BANK1   BANK2
  3236 ;;      Params:         0       2       0       0
  3237 ;;      Locals:         0      15       0       0
  3238 ;;      Temps:          0       0       0       0
  3239 ;;      Totals:         0      17       0       0
  3240 ;;Total ram usage:       17 bytes
  3241 ;; Hardware stack levels used:    1
  3242 ;; Hardware stack levels required when called:    7
  3243 ;; This function calls:
  3244 ;;		___awdiv
  3245 ;;		___awmod
  3246 ;; This function is called by:
  3247 ;;		_testeADbit
  3248 ;; This function uses a non-reentrant model
  3249 ;;
  3250                           
  3251                           	psect	text12
  3252  003076                     __ptext12:
  3253                           	opt callstack 0
  3254  003076                     _valorConvUARTbit:
  3255                           	opt callstack 22
  3256  003076                     
  3257                           ;./ADC.h: 50:     int milhar = valor/1000;
  3258  003076  C090  F07E         	movff	valorConvUARTbit@valor,___awdiv@dividend
  3259  00307A  C091  F07F         	movff	valorConvUARTbit@valor+1,___awdiv@dividend+1
  3260  00307E  0E03               	movlw	3
  3261  003080  0100               	movlb	0	; () banked
  3262  003082  6F81               	movwf	(___awdiv@divisor+1)& (0+255),b
  3263  003084  0EE8               	movlw	232
  3264  003086  6F80               	movwf	___awdiv@divisor& (0+255),b
  3265  003088  EC8A  F019         	call	___awdiv	;wreg free
  3266  00308C  C07E  F092         	movff	?___awdiv,valorConvUARTbit@milhar
  3267  003090  C07F  F093         	movff	?___awdiv+1,valorConvUARTbit@milhar+1
  3268                           
  3269                           ;./ADC.h: 51:     int centena = (valor/100) % 10;
  3270  003094  0E00               	movlw	0
  3271  003096  0100               	movlb	0	; () banked
  3272  003098  6F81               	movwf	(___awdiv@divisor+1)& (0+255),b
  3273  00309A  0E64               	movlw	100
  3274  00309C  6F80               	movwf	___awdiv@divisor& (0+255),b
  3275  00309E  C090  F07E         	movff	valorConvUARTbit@valor,___awdiv@dividend
  3276  0030A2  C091  F07F         	movff	valorConvUARTbit@valor+1,___awdiv@dividend+1
  3277  0030A6  EC8A  F019         	call	___awdiv	;wreg free
  3278  0030AA  C07E  F086         	movff	?___awdiv,___awmod@dividend
  3279  0030AE  C07F  F087         	movff	?___awdiv+1,___awmod@dividend+1
  3280  0030B2  0E00               	movlw	0
  3281  0030B4  0100               	movlb	0	; () banked
  3282  0030B6  6F89               	movwf	(___awmod@divisor+1)& (0+255),b
  3283  0030B8  0E0A               	movlw	10
  3284  0030BA  6F88               	movwf	___awmod@divisor& (0+255),b
  3285  0030BC  EC4C  F01A         	call	___awmod	;wreg free
  3286  0030C0  C086  F094         	movff	?___awmod,valorConvUARTbit@centena
  3287  0030C4  C087  F095         	movff	?___awmod+1,valorConvUARTbit@centena+1
  3288                           
  3289                           ;./ADC.h: 52:     int dezena = (valor/10) % 10;
  3290  0030C8  0E00               	movlw	0
  3291  0030CA  0100               	movlb	0	; () banked
  3292  0030CC  6F81               	movwf	(___awdiv@divisor+1)& (0+255),b
  3293  0030CE  0E0A               	movlw	10
  3294  0030D0  6F80               	movwf	___awdiv@divisor& (0+255),b
  3295  0030D2  C090  F07E         	movff	valorConvUARTbit@valor,___awdiv@dividend
  3296  0030D6  C091  F07F         	movff	valorConvUARTbit@valor+1,___awdiv@dividend+1
  3297  0030DA  EC8A  F019         	call	___awdiv	;wreg free
  3298  0030DE  C07E  F086         	movff	?___awdiv,___awmod@dividend
  3299  0030E2  C07F  F087         	movff	?___awdiv+1,___awmod@dividend+1
  3300  0030E6  0E00               	movlw	0
  3301  0030E8  0100               	movlb	0	; () banked
  3302  0030EA  6F89               	movwf	(___awmod@divisor+1)& (0+255),b
  3303  0030EC  0E0A               	movlw	10
  3304  0030EE  6F88               	movwf	___awmod@divisor& (0+255),b
  3305  0030F0  EC4C  F01A         	call	___awmod	;wreg free
  3306  0030F4  C086  F096         	movff	?___awmod,valorConvUARTbit@dezena
  3307  0030F8  C087  F097         	movff	?___awmod+1,valorConvUARTbit@dezena+1
  3308                           
  3309                           ;./ADC.h: 53:     int unidade = (valor % 100) % 10;
  3310  0030FC  0E00               	movlw	0
  3311  0030FE  0100               	movlb	0	; () banked
  3312  003100  6F89               	movwf	(___awmod@divisor+1)& (0+255),b
  3313  003102  0E64               	movlw	100
  3314  003104  6F88               	movwf	___awmod@divisor& (0+255),b
  3315  003106  C090  F086         	movff	valorConvUARTbit@valor,___awmod@dividend
  3316  00310A  C091  F087         	movff	valorConvUARTbit@valor+1,___awmod@dividend+1
  3317  00310E  EC4C  F01A         	call	___awmod	;wreg free
  3318  003112  C086  F09A         	movff	?___awmod,_valorConvUARTbit$1569
  3319  003116  C087  F09B         	movff	?___awmod+1,_valorConvUARTbit$1569+1
  3320                           
  3321                           ;./ADC.h: 53:     int unidade = (valor % 100) % 10;
  3322  00311A  C09A  F086         	movff	_valorConvUARTbit$1569,___awmod@dividend
  3323  00311E  C09B  F087         	movff	_valorConvUARTbit$1569+1,___awmod@dividend+1
  3324  003122  0E00               	movlw	0
  3325  003124  0100               	movlb	0	; () banked
  3326  003126  6F89               	movwf	(___awmod@divisor+1)& (0+255),b
  3327  003128  0E0A               	movlw	10
  3328  00312A  6F88               	movwf	___awmod@divisor& (0+255),b
  3329  00312C  EC4C  F01A         	call	___awmod	;wreg free
  3330  003130  C086  F098         	movff	?___awmod,valorConvUARTbit@unidade
  3331  003134  C087  F099         	movff	?___awmod+1,valorConvUARTbit@unidade+1
  3332  003138                     
  3333                           ;./ADC.h: 55:     char string[5] = {'\0'};
  3334  003138  EE20  F09C         	lfsr	2,valorConvUARTbit@string
  3335  00313C  0E04               	movlw	4
  3336  00313E                     u5081:
  3337  00313E  6ADE               	clrf	postinc2,c
  3338  003140  06E8               	decf	wreg,f,c
  3339  003142  E2FD               	bc	u5081
  3340  003144                     
  3341                           ;./ADC.h: 57:     string[0] = milhar + '0';
  3342  003144  0100               	movlb	0	; () banked
  3343  003146  5192               	movf	valorConvUARTbit@milhar& (0+255),w,b
  3344  003148  0F30               	addlw	48
  3345  00314A  6F9C               	movwf	valorConvUARTbit@string& (0+255),b
  3346  00314C                     
  3347                           ; BSR set to: 0
  3348                           ;./ADC.h: 58:     string[1] = centena + '0';
  3349  00314C  5194               	movf	valorConvUARTbit@centena& (0+255),w,b
  3350  00314E  0F30               	addlw	48
  3351  003150  6F9D               	movwf	(valorConvUARTbit@string+1)& (0+255),b
  3352  003152                     
  3353                           ; BSR set to: 0
  3354                           ;./ADC.h: 59:     string[2] = dezena + '0';
  3355  003152  5196               	movf	valorConvUARTbit@dezena& (0+255),w,b
  3356  003154  0F30               	addlw	48
  3357  003156  6F9E               	movwf	(valorConvUARTbit@string+2)& (0+255),b
  3358  003158                     
  3359                           ; BSR set to: 0
  3360                           ;./ADC.h: 60:     string[3] = unidade + '0';
  3361  003158  5198               	movf	valorConvUARTbit@unidade& (0+255),w,b
  3362  00315A  0F30               	addlw	48
  3363  00315C  6F9F               	movwf	(valorConvUARTbit@string+3)& (0+255),b
  3364  00315E                     
  3365                           ; BSR set to: 0
  3366                           ;./ADC.h: 62:     return string;
  3367  00315E  0E9C               	movlw	low valorConvUARTbit@string
  3368  003160  6F90               	movwf	?_valorConvUARTbit& (0+255),b
  3369  003162  0E00               	movlw	high valorConvUARTbit@string
  3370  003164  6F91               	movwf	(?_valorConvUARTbit+1)& (0+255),b
  3371  003166                     
  3372                           ; BSR set to: 0
  3373  003166  0012               	return		;funcret
  3374  003168                     __end_of_valorConvUARTbit:
  3375                           	opt callstack 0
  3376                           
  3377 ;; *************** function _getAD_ANbit *****************
  3378 ;; Defined at:
  3379 ;;		line 119 in file "./ADC.h"
  3380 ;; Parameters:    Size  Location     Type
  3381 ;;  porta           2   44[BANK0 ] int 
  3382 ;; Auto vars:     Size  Location     Type
  3383 ;;  ANread          2   46[BANK0 ] int 
  3384 ;; Return value:  Size  Location     Type
  3385 ;;                  2   44[BANK0 ] int 
  3386 ;; Registers used:
  3387 ;;		wreg, status,2, status,0, cstack
  3388 ;; Tracked objects:
  3389 ;;		On entry : 0/0
  3390 ;;		On exit  : 0/0
  3391 ;;		Unchanged: 0/0
  3392 ;; Data sizes:     COMRAM   BANK0   BANK1   BANK2
  3393 ;;      Params:         0       2       0       0
  3394 ;;      Locals:         0       2       0       0
  3395 ;;      Temps:          0       0       0       0
  3396 ;;      Totals:         0       4       0       0
  3397 ;;Total ram usage:        4 bytes
  3398 ;; Hardware stack levels used:    1
  3399 ;; Hardware stack levels required when called:    7
  3400 ;; This function calls:
  3401 ;;		_bitExtract
  3402 ;;		_readAD_ANbit
  3403 ;; This function is called by:
  3404 ;;		_testeADbit
  3405 ;; This function uses a non-reentrant model
  3406 ;;
  3407                           
  3408                           	psect	text13
  3409  002D7C                     __ptext13:
  3410                           	opt callstack 0
  3411  002D7C                     _getAD_ANbit:
  3412                           	opt callstack 22
  3413  002D7C                     
  3414                           ;./ADC.h: 121:     ADCON0bits.ACMOD = bitExtract(porta, 2, 0);
  3415  002D7C  C08C  F07E         	movff	getAD_ANbit@porta,bitExtract@numero
  3416  002D80  C08D  F07F         	movff	getAD_ANbit@porta+1,bitExtract@numero+1
  3417  002D84  0E00               	movlw	0
  3418  002D86  0100               	movlb	0	; () banked
  3419  002D88  6F81               	movwf	(bitExtract@k+1)& (0+255),b
  3420  002D8A  0E02               	movlw	2
  3421  002D8C  6F80               	movwf	bitExtract@k& (0+255),b
  3422  002D8E  0E00               	movlw	0
  3423  002D90  6F83               	movwf	(bitExtract@p+1)& (0+255),b
  3424  002D92  0E00               	movlw	0
  3425  002D94  6F82               	movwf	bitExtract@p& (0+255),b
  3426  002D96  ECFB  F01B         	call	_bitExtract	;wreg free
  3427  002D9A  0100               	movlb	0	; () banked
  3428  002D9C  477E               	rlncf	?_bitExtract& (0+255),f,b
  3429  002D9E  477E               	rlncf	?_bitExtract& (0+255),f,b
  3430  002DA0  50C2               	movf	194,w,c	;volatile
  3431  002DA2  197E               	xorwf	?_bitExtract& (0+255),w,b
  3432  002DA4  0BF3               	andlw	-13
  3433  002DA6  197E               	xorwf	?_bitExtract& (0+255),w,b
  3434  002DA8  6EC2               	movwf	194,c	;volatile
  3435                           
  3436                           ;./ADC.h: 123:     ADCHSbits.GASEL0 = bitExtract(porta, 1, 2);
  3437  002DAA  C08C  F07E         	movff	getAD_ANbit@porta,bitExtract@numero
  3438  002DAE  C08D  F07F         	movff	getAD_ANbit@porta+1,bitExtract@numero+1
  3439  002DB2  0E00               	movlw	0
  3440  002DB4  6F81               	movwf	(bitExtract@k+1)& (0+255),b
  3441  002DB6  0E01               	movlw	1
  3442  002DB8  6F80               	movwf	bitExtract@k& (0+255),b
  3443  002DBA  0E00               	movlw	0
  3444  002DBC  6F83               	movwf	(bitExtract@p+1)& (0+255),b
  3445  002DBE  0E02               	movlw	2
  3446  002DC0  6F82               	movwf	bitExtract@p& (0+255),b
  3447  002DC2  ECFB  F01B         	call	_bitExtract	;wreg free
  3448  002DC6  5099               	movf	153,w,c	;volatile
  3449  002DC8  0100               	movlb	0	; () banked
  3450  002DCA  197E               	xorwf	?_bitExtract& (0+255),w,b
  3451  002DCC  0BFE               	andlw	-2
  3452  002DCE  197E               	xorwf	?_bitExtract& (0+255),w,b
  3453  002DD0  6E99               	movwf	153,c	;volatile
  3454                           
  3455                           ;./ADC.h: 124:     ADCHSbits.GBSEL0 = bitExtract(porta, 1, 2);
  3456  002DD2  C08C  F07E         	movff	getAD_ANbit@porta,bitExtract@numero
  3457  002DD6  C08D  F07F         	movff	getAD_ANbit@porta+1,bitExtract@numero+1
  3458  002DDA  0E00               	movlw	0
  3459  002DDC  6F81               	movwf	(bitExtract@k+1)& (0+255),b
  3460  002DDE  0E01               	movlw	1
  3461  002DE0  6F80               	movwf	bitExtract@k& (0+255),b
  3462  002DE2  0E00               	movlw	0
  3463  002DE4  6F83               	movwf	(bitExtract@p+1)& (0+255),b
  3464  002DE6  0E02               	movlw	2
  3465  002DE8  6F82               	movwf	bitExtract@p& (0+255),b
  3466  002DEA  ECFB  F01B         	call	_bitExtract	;wreg free
  3467  002DEE  0100               	movlb	0	; () banked
  3468  002DF0  3B7E               	swapf	?_bitExtract& (0+255),f,b
  3469  002DF2  5099               	movf	153,w,c	;volatile
  3470  002DF4  197E               	xorwf	?_bitExtract& (0+255),w,b
  3471  002DF6  0BEF               	andlw	-17
  3472  002DF8  197E               	xorwf	?_bitExtract& (0+255),w,b
  3473  002DFA  6E99               	movwf	153,c	;volatile
  3474                           
  3475                           ;./ADC.h: 125:     ADCHSbits.GCSEL0 = bitExtract(porta, 1, 2);
  3476  002DFC  C08C  F07E         	movff	getAD_ANbit@porta,bitExtract@numero
  3477  002E00  C08D  F07F         	movff	getAD_ANbit@porta+1,bitExtract@numero+1
  3478  002E04  0E00               	movlw	0
  3479  002E06  6F81               	movwf	(bitExtract@k+1)& (0+255),b
  3480  002E08  0E01               	movlw	1
  3481  002E0A  6F80               	movwf	bitExtract@k& (0+255),b
  3482  002E0C  0E00               	movlw	0
  3483  002E0E  6F83               	movwf	(bitExtract@p+1)& (0+255),b
  3484  002E10  0E02               	movlw	2
  3485  002E12  6F82               	movwf	bitExtract@p& (0+255),b
  3486  002E14  ECFB  F01B         	call	_bitExtract	;wreg free
  3487  002E18  0100               	movlb	0	; () banked
  3488  002E1A  477E               	rlncf	?_bitExtract& (0+255),f,b
  3489  002E1C  477E               	rlncf	?_bitExtract& (0+255),f,b
  3490  002E1E  5099               	movf	153,w,c	;volatile
  3491  002E20  197E               	xorwf	?_bitExtract& (0+255),w,b
  3492  002E22  0BFB               	andlw	-5
  3493  002E24  197E               	xorwf	?_bitExtract& (0+255),w,b
  3494  002E26  6E99               	movwf	153,c	;volatile
  3495                           
  3496                           ;./ADC.h: 126:     ADCHSbits.GDSEL0 = bitExtract(porta, 1, 2);
  3497  002E28  C08C  F07E         	movff	getAD_ANbit@porta,bitExtract@numero
  3498  002E2C  C08D  F07F         	movff	getAD_ANbit@porta+1,bitExtract@numero+1
  3499  002E30  0E00               	movlw	0
  3500  002E32  6F81               	movwf	(bitExtract@k+1)& (0+255),b
  3501  002E34  0E01               	movlw	1
  3502  002E36  6F80               	movwf	bitExtract@k& (0+255),b
  3503  002E38  0E00               	movlw	0
  3504  002E3A  6F83               	movwf	(bitExtract@p+1)& (0+255),b
  3505  002E3C  0E02               	movlw	2
  3506  002E3E  6F82               	movwf	bitExtract@p& (0+255),b
  3507  002E40  ECFB  F01B         	call	_bitExtract	;wreg free
  3508  002E44  0100               	movlb	0	; () banked
  3509  002E46  3B7E               	swapf	?_bitExtract& (0+255),f,b
  3510  002E48  477E               	rlncf	?_bitExtract& (0+255),f,b
  3511  002E4A  477E               	rlncf	?_bitExtract& (0+255),f,b
  3512  002E4C  5099               	movf	153,w,c	;volatile
  3513  002E4E  197E               	xorwf	?_bitExtract& (0+255),w,b
  3514  002E50  0BBF               	andlw	-65
  3515  002E52  197E               	xorwf	?_bitExtract& (0+255),w,b
  3516  002E54  6E99               	movwf	153,c	;volatile
  3517  002E56                     
  3518                           ; BSR set to: 0
  3519                           ;./ADC.h: 128:     ADCON0bits.ADON = 1;
  3520  002E56  80C2               	bsf	194,0,c	;volatile
  3521  002E58                     
  3522                           ; BSR set to: 0
  3523                           ;./ADC.h: 129:     ADCON0bits.GODONE = 1;
  3524  002E58  82C2               	bsf	194,1,c	;volatile
  3525  002E5A                     l148:
  3526  002E5A  B2C2               	btfsc	194,1,c	;volatile
  3527  002E5C  EF32  F017         	goto	u5101
  3528  002E60  EF34  F017         	goto	u5100
  3529  002E64                     u5101:
  3530  002E64  EF2D  F017         	goto	l148
  3531  002E68                     u5100:
  3532  002E68                     
  3533                           ;./ADC.h: 132:     int ANread = readAD_ANbit();
  3534  002E68  ECFF  F01D         	call	_readAD_ANbit	;wreg free
  3535  002E6C  C07E  F08E         	movff	?_readAD_ANbit,getAD_ANbit@ANread
  3536  002E70  C07F  F08F         	movff	?_readAD_ANbit+1,getAD_ANbit@ANread+1
  3537  002E74                     
  3538                           ;./ADC.h: 133:     ADCON0bits.ADON = 0;
  3539  002E74  90C2               	bcf	194,0,c	;volatile
  3540  002E76                     
  3541                           ;./ADC.h: 135:     return (int) ANread;
  3542  002E76  C08E  F08C         	movff	getAD_ANbit@ANread,?_getAD_ANbit
  3543  002E7A  C08F  F08D         	movff	getAD_ANbit@ANread+1,?_getAD_ANbit+1
  3544  002E7E  0012               	return		;funcret
  3545  002E80                     __end_of_getAD_ANbit:
  3546                           	opt callstack 0
  3547                           
  3548 ;; *************** function _readAD_ANbit *****************
  3549 ;; Defined at:
  3550 ;;		line 80 in file "./ADC.h"
  3551 ;; Parameters:    Size  Location     Type
  3552 ;;		None
  3553 ;; Auto vars:     Size  Location     Type
  3554 ;;		None
  3555 ;; Return value:  Size  Location     Type
  3556 ;;                  2   30[BANK0 ] int 
  3557 ;; Registers used:
  3558 ;;		wreg, status,2, status,0
  3559 ;; Tracked objects:
  3560 ;;		On entry : 0/0
  3561 ;;		On exit  : 0/0
  3562 ;;		Unchanged: 0/0
  3563 ;; Data sizes:     COMRAM   BANK0   BANK1   BANK2
  3564 ;;      Params:         0       2       0       0
  3565 ;;      Locals:         0       0       0       0
  3566 ;;      Temps:          0       0       0       0
  3567 ;;      Totals:         0       2       0       0
  3568 ;;Total ram usage:        2 bytes
  3569 ;; Hardware stack levels used:    1
  3570 ;; Hardware stack levels required when called:    6
  3571 ;; This function calls:
  3572 ;;		Nothing
  3573 ;; This function is called by:
  3574 ;;		_getAD_ANbit
  3575 ;; This function uses a non-reentrant model
  3576 ;;
  3577                           
  3578                           	psect	text14
  3579  003BFE                     __ptext14:
  3580                           	opt callstack 0
  3581  003BFE                     _readAD_ANbit:
  3582                           	opt callstack 22
  3583  003BFE                     
  3584                           ;./ADC.h: 82:     vdig_AN = ADRESH;
  3585  003BFE  CFC4 F0D7          	movff	4036,_vdig_AN	;volatile
  3586  003C02  0100               	movlb	0	; () banked
  3587  003C04  6BD8               	clrf	(_vdig_AN+1)& (0+255),b
  3588  003C06                     
  3589                           ; BSR set to: 0
  3590                           ;./ADC.h: 83:     vdig_AN = vdig_AN << 8;
  3591  003C06  51D7               	movf	_vdig_AN& (0+255),w,b
  3592  003C08  6FD8               	movwf	(_vdig_AN+1)& (0+255),b
  3593  003C0A  6BD7               	clrf	_vdig_AN& (0+255),b
  3594  003C0C                     
  3595                           ; BSR set to: 0
  3596                           ;./ADC.h: 84:     vdig_AN += ADRESL;
  3597  003C0C  50C3               	movf	195,w,c	;volatile
  3598  003C0E  27D7               	addwf	_vdig_AN& (0+255),f,b
  3599  003C10  0E00               	movlw	0
  3600  003C12  23D8               	addwfc	(_vdig_AN+1)& (0+255),f,b
  3601  003C14                     
  3602                           ; BSR set to: 0
  3603                           ;./ADC.h: 86:     return vdig_AN;
  3604  003C14  C0D7  F07E         	movff	_vdig_AN,?_readAD_ANbit
  3605  003C18  C0D8  F07F         	movff	_vdig_AN+1,?_readAD_ANbit+1
  3606  003C1C                     
  3607                           ; BSR set to: 0
  3608  003C1C  0012               	return		;funcret
  3609  003C1E                     __end_of_readAD_ANbit:
  3610                           	opt callstack 0
  3611                           
  3612 ;; *************** function _testeAD *****************
  3613 ;; Defined at:
  3614 ;;		line 213 in file "./geral.h"
  3615 ;; Parameters:    Size  Location     Type
  3616 ;;		None
  3617 ;; Auto vars:     Size  Location     Type
  3618 ;;		None
  3619 ;; Return value:  Size  Location     Type
  3620 ;;                  1    wreg      void 
  3621 ;; Registers used:
  3622 ;;		wreg, fsr2l, fsr2h, status,2, status,0, tblptrl, tblptrh, tblptru, prodl, prodh, cstack
  3623 ;; Tracked objects:
  3624 ;;		On entry : 0/0
  3625 ;;		On exit  : 0/0
  3626 ;;		Unchanged: 0/0
  3627 ;; Data sizes:     COMRAM   BANK0   BANK1   BANK2
  3628 ;;      Params:         0       0       0       0
  3629 ;;      Locals:         0       0       0       0
  3630 ;;      Temps:          0       0       2       0
  3631 ;;      Totals:         0       0       2       0
  3632 ;;Total ram usage:        2 bytes
  3633 ;; Hardware stack levels used:    1
  3634 ;; Hardware stack levels required when called:    9
  3635 ;; This function calls:
  3636 ;;		_UARTSendString
  3637 ;;		_getAD_AN
  3638 ;;		_valorConvUART
  3639 ;; This function is called by:
  3640 ;;		_main
  3641 ;; This function uses a non-reentrant model
  3642 ;;
  3643                           
  3644                           	psect	text15
  3645  00192A                     __ptext15:
  3646                           	opt callstack 0
  3647  00192A                     _testeAD:
  3648                           	opt callstack 21
  3649  00192A  0E59               	movlw	low STR_22
  3650  00192C  0101               	movlb	1	; () banked
  3651  00192E  6F6F               	movwf	UARTSendString@str& (0+255),b
  3652  001930  0E03               	movlw	high STR_22
  3653  001932  6F70               	movwf	(UARTSendString@str+1)& (0+255),b
  3654  001934  0E00               	movlw	0
  3655  001936  6F72               	movwf	(UARTSendString@max_length+1)& (0+255),b
  3656  001938  0E10               	movlw	16
  3657  00193A  6F71               	movwf	UARTSendString@max_length& (0+255),b
  3658  00193C  EC24  F019         	call	_UARTSendString	;wreg free
  3659  001940  0E00               	movlw	0
  3660  001942  0100               	movlb	0	; () banked
  3661  001944  6FAE               	movwf	(getAD_AN@porta+1)& (0+255),b
  3662  001946  0E00               	movlw	0
  3663  001948  6FAD               	movwf	getAD_AN@porta& (0+255),b
  3664  00194A  EC15  F014         	call	_getAD_AN	;wreg free
  3665  00194E  C0AD  F0B3         	movff	?_getAD_AN,valorConvUART@valor
  3666  001952  C0AE  F0B4         	movff	?_getAD_AN+1,valorConvUART@valor+1
  3667  001956  ECED  F019         	call	_valorConvUART	;wreg free
  3668  00195A  C0B3  F16F         	movff	?_valorConvUART,UARTSendString@str
  3669  00195E  C0B4  F170         	movff	?_valorConvUART+1,UARTSendString@str+1
  3670  001962  0E00               	movlw	0
  3671  001964  0101               	movlb	1	; () banked
  3672  001966  6F72               	movwf	(UARTSendString@max_length+1)& (0+255),b
  3673  001968  0E10               	movlw	16
  3674  00196A  6F71               	movwf	UARTSendString@max_length& (0+255),b
  3675  00196C  EC24  F019         	call	_UARTSendString	;wreg free
  3676  001970  0E9C               	movlw	low STR_23
  3677  001972  0101               	movlb	1	; () banked
  3678  001974  6F6F               	movwf	UARTSendString@str& (0+255),b
  3679  001976  0E03               	movlw	high STR_23
  3680  001978  6F70               	movwf	(UARTSendString@str+1)& (0+255),b
  3681  00197A  0E00               	movlw	0
  3682  00197C  6F72               	movwf	(UARTSendString@max_length+1)& (0+255),b
  3683  00197E  0E10               	movlw	16
  3684  001980  6F71               	movwf	UARTSendString@max_length& (0+255),b
  3685  001982  EC24  F019         	call	_UARTSendString	;wreg free
  3686  001986  0E5F               	movlw	low STR_24
  3687  001988  0101               	movlb	1	; () banked
  3688  00198A  6F6F               	movwf	UARTSendString@str& (0+255),b
  3689  00198C  0E03               	movlw	high STR_24
  3690  00198E  6F70               	movwf	(UARTSendString@str+1)& (0+255),b
  3691  001990  0E00               	movlw	0
  3692  001992  6F72               	movwf	(UARTSendString@max_length+1)& (0+255),b
  3693  001994  0E10               	movlw	16
  3694  001996  6F71               	movwf	UARTSendString@max_length& (0+255),b
  3695  001998  EC24  F019         	call	_UARTSendString	;wreg free
  3696  00199C  0E00               	movlw	0
  3697  00199E  0100               	movlb	0	; () banked
  3698  0019A0  6FAE               	movwf	(getAD_AN@porta+1)& (0+255),b
  3699  0019A2  0E01               	movlw	1
  3700  0019A4  6FAD               	movwf	getAD_AN@porta& (0+255),b
  3701  0019A6  EC15  F014         	call	_getAD_AN	;wreg free
  3702  0019AA  C0AD  F0B3         	movff	?_getAD_AN,valorConvUART@valor
  3703  0019AE  C0AE  F0B4         	movff	?_getAD_AN+1,valorConvUART@valor+1
  3704  0019B2  ECED  F019         	call	_valorConvUART	;wreg free
  3705  0019B6  C0B3  F16F         	movff	?_valorConvUART,UARTSendString@str
  3706  0019BA  C0B4  F170         	movff	?_valorConvUART+1,UARTSendString@str+1
  3707  0019BE  0E00               	movlw	0
  3708  0019C0  0101               	movlb	1	; () banked
  3709  0019C2  6F72               	movwf	(UARTSendString@max_length+1)& (0+255),b
  3710  0019C4  0E10               	movlw	16
  3711  0019C6  6F71               	movwf	UARTSendString@max_length& (0+255),b
  3712  0019C8  EC24  F019         	call	_UARTSendString	;wreg free
  3713  0019CC  0E9C               	movlw	low STR_23
  3714  0019CE  0101               	movlb	1	; () banked
  3715  0019D0  6F6F               	movwf	UARTSendString@str& (0+255),b
  3716  0019D2  0E03               	movlw	high STR_23
  3717  0019D4  6F70               	movwf	(UARTSendString@str+1)& (0+255),b
  3718  0019D6  0E00               	movlw	0
  3719  0019D8  6F72               	movwf	(UARTSendString@max_length+1)& (0+255),b
  3720  0019DA  0E10               	movlw	16
  3721  0019DC  6F71               	movwf	UARTSendString@max_length& (0+255),b
  3722  0019DE  EC24  F019         	call	_UARTSendString	;wreg free
  3723  0019E2  0E65               	movlw	low STR_26
  3724  0019E4  0101               	movlb	1	; () banked
  3725  0019E6  6F6F               	movwf	UARTSendString@str& (0+255),b
  3726  0019E8  0E03               	movlw	high STR_26
  3727  0019EA  6F70               	movwf	(UARTSendString@str+1)& (0+255),b
  3728  0019EC  0E00               	movlw	0
  3729  0019EE  6F72               	movwf	(UARTSendString@max_length+1)& (0+255),b
  3730  0019F0  0E10               	movlw	16
  3731  0019F2  6F71               	movwf	UARTSendString@max_length& (0+255),b
  3732  0019F4  EC24  F019         	call	_UARTSendString	;wreg free
  3733  0019F8  0E00               	movlw	0
  3734  0019FA  0100               	movlb	0	; () banked
  3735  0019FC  6FAE               	movwf	(getAD_AN@porta+1)& (0+255),b
  3736  0019FE  0E02               	movlw	2
  3737  001A00  6FAD               	movwf	getAD_AN@porta& (0+255),b
  3738  001A02  EC15  F014         	call	_getAD_AN	;wreg free
  3739  001A06  C0AD  F0B3         	movff	?_getAD_AN,valorConvUART@valor
  3740  001A0A  C0AE  F0B4         	movff	?_getAD_AN+1,valorConvUART@valor+1
  3741  001A0E  ECED  F019         	call	_valorConvUART	;wreg free
  3742  001A12  C0B3  F16F         	movff	?_valorConvUART,UARTSendString@str
  3743  001A16  C0B4  F170         	movff	?_valorConvUART+1,UARTSendString@str+1
  3744  001A1A  0E00               	movlw	0
  3745  001A1C  0101               	movlb	1	; () banked
  3746  001A1E  6F72               	movwf	(UARTSendString@max_length+1)& (0+255),b
  3747  001A20  0E10               	movlw	16
  3748  001A22  6F71               	movwf	UARTSendString@max_length& (0+255),b
  3749  001A24  EC24  F019         	call	_UARTSendString	;wreg free
  3750  001A28  0E9C               	movlw	low STR_23
  3751  001A2A  0101               	movlb	1	; () banked
  3752  001A2C  6F6F               	movwf	UARTSendString@str& (0+255),b
  3753  001A2E  0E03               	movlw	high STR_23
  3754  001A30  6F70               	movwf	(UARTSendString@str+1)& (0+255),b
  3755  001A32  0E00               	movlw	0
  3756  001A34  6F72               	movwf	(UARTSendString@max_length+1)& (0+255),b
  3757  001A36  0E10               	movlw	16
  3758  001A38  6F71               	movwf	UARTSendString@max_length& (0+255),b
  3759  001A3A  EC24  F019         	call	_UARTSendString	;wreg free
  3760  001A3E  0E6B               	movlw	low STR_28
  3761  001A40  0101               	movlb	1	; () banked
  3762  001A42  6F6F               	movwf	UARTSendString@str& (0+255),b
  3763  001A44  0E03               	movlw	high STR_28
  3764  001A46  6F70               	movwf	(UARTSendString@str+1)& (0+255),b
  3765  001A48  0E00               	movlw	0
  3766  001A4A  6F72               	movwf	(UARTSendString@max_length+1)& (0+255),b
  3767  001A4C  0E10               	movlw	16
  3768  001A4E  6F71               	movwf	UARTSendString@max_length& (0+255),b
  3769  001A50  EC24  F019         	call	_UARTSendString	;wreg free
  3770  001A54  0E00               	movlw	0
  3771  001A56  0100               	movlb	0	; () banked
  3772  001A58  6FAE               	movwf	(getAD_AN@porta+1)& (0+255),b
  3773  001A5A  0E03               	movlw	3
  3774  001A5C  6FAD               	movwf	getAD_AN@porta& (0+255),b
  3775  001A5E  EC15  F014         	call	_getAD_AN	;wreg free
  3776  001A62  C0AD  F0B3         	movff	?_getAD_AN,valorConvUART@valor
  3777  001A66  C0AE  F0B4         	movff	?_getAD_AN+1,valorConvUART@valor+1
  3778  001A6A  ECED  F019         	call	_valorConvUART	;wreg free
  3779  001A6E  C0B3  F16F         	movff	?_valorConvUART,UARTSendString@str
  3780  001A72  C0B4  F170         	movff	?_valorConvUART+1,UARTSendString@str+1
  3781  001A76  0E00               	movlw	0
  3782  001A78  0101               	movlb	1	; () banked
  3783  001A7A  6F72               	movwf	(UARTSendString@max_length+1)& (0+255),b
  3784  001A7C  0E10               	movlw	16
  3785  001A7E  6F71               	movwf	UARTSendString@max_length& (0+255),b
  3786  001A80  EC24  F019         	call	_UARTSendString	;wreg free
  3787  001A84  0E9C               	movlw	low STR_23
  3788  001A86  0101               	movlb	1	; () banked
  3789  001A88  6F6F               	movwf	UARTSendString@str& (0+255),b
  3790  001A8A  0E03               	movlw	high STR_23
  3791  001A8C  6F70               	movwf	(UARTSendString@str+1)& (0+255),b
  3792  001A8E  0E00               	movlw	0
  3793  001A90  6F72               	movwf	(UARTSendString@max_length+1)& (0+255),b
  3794  001A92  0E10               	movlw	16
  3795  001A94  6F71               	movwf	UARTSendString@max_length& (0+255),b
  3796  001A96  EC24  F019         	call	_UARTSendString	;wreg free
  3797  001A9A  0E71               	movlw	low STR_30
  3798  001A9C  0101               	movlb	1	; () banked
  3799  001A9E  6F6F               	movwf	UARTSendString@str& (0+255),b
  3800  001AA0  0E03               	movlw	high STR_30
  3801  001AA2  6F70               	movwf	(UARTSendString@str+1)& (0+255),b
  3802  001AA4  0E00               	movlw	0
  3803  001AA6  6F72               	movwf	(UARTSendString@max_length+1)& (0+255),b
  3804  001AA8  0E10               	movlw	16
  3805  001AAA  6F71               	movwf	UARTSendString@max_length& (0+255),b
  3806  001AAC  EC24  F019         	call	_UARTSendString	;wreg free
  3807  001AB0  0E00               	movlw	0
  3808  001AB2  0100               	movlb	0	; () banked
  3809  001AB4  6FAE               	movwf	(getAD_AN@porta+1)& (0+255),b
  3810  001AB6  0E04               	movlw	4
  3811  001AB8  6FAD               	movwf	getAD_AN@porta& (0+255),b
  3812  001ABA  EC15  F014         	call	_getAD_AN	;wreg free
  3813  001ABE  C0AD  F0B3         	movff	?_getAD_AN,valorConvUART@valor
  3814  001AC2  C0AE  F0B4         	movff	?_getAD_AN+1,valorConvUART@valor+1
  3815  001AC6  ECED  F019         	call	_valorConvUART	;wreg free
  3816  001ACA  C0B3  F16F         	movff	?_valorConvUART,UARTSendString@str
  3817  001ACE  C0B4  F170         	movff	?_valorConvUART+1,UARTSendString@str+1
  3818  001AD2  0E00               	movlw	0
  3819  001AD4  0101               	movlb	1	; () banked
  3820  001AD6  6F72               	movwf	(UARTSendString@max_length+1)& (0+255),b
  3821  001AD8  0E10               	movlw	16
  3822  001ADA  6F71               	movwf	UARTSendString@max_length& (0+255),b
  3823  001ADC  EC24  F019         	call	_UARTSendString	;wreg free
  3824  001AE0  0E9C               	movlw	low STR_23
  3825  001AE2  0101               	movlb	1	; () banked
  3826  001AE4  6F6F               	movwf	UARTSendString@str& (0+255),b
  3827  001AE6  0E03               	movlw	high STR_23
  3828  001AE8  6F70               	movwf	(UARTSendString@str+1)& (0+255),b
  3829  001AEA  0E00               	movlw	0
  3830  001AEC  6F72               	movwf	(UARTSendString@max_length+1)& (0+255),b
  3831  001AEE  0E10               	movlw	16
  3832  001AF0  6F71               	movwf	UARTSendString@max_length& (0+255),b
  3833  001AF2  EC24  F019         	call	_UARTSendString	;wreg free
  3834  001AF6  0E77               	movlw	low STR_32
  3835  001AF8  0101               	movlb	1	; () banked
  3836  001AFA  6F6F               	movwf	UARTSendString@str& (0+255),b
  3837  001AFC  0E03               	movlw	high STR_32
  3838  001AFE  6F70               	movwf	(UARTSendString@str+1)& (0+255),b
  3839  001B00  0E00               	movlw	0
  3840  001B02  6F72               	movwf	(UARTSendString@max_length+1)& (0+255),b
  3841  001B04  0E10               	movlw	16
  3842  001B06  6F71               	movwf	UARTSendString@max_length& (0+255),b
  3843  001B08  EC24  F019         	call	_UARTSendString	;wreg free
  3844  001B0C  0E00               	movlw	0
  3845  001B0E  0100               	movlb	0	; () banked
  3846  001B10  6FAE               	movwf	(getAD_AN@porta+1)& (0+255),b
  3847  001B12  0E05               	movlw	5
  3848  001B14  6FAD               	movwf	getAD_AN@porta& (0+255),b
  3849  001B16  EC15  F014         	call	_getAD_AN	;wreg free
  3850  001B1A  C0AD  F0B3         	movff	?_getAD_AN,valorConvUART@valor
  3851  001B1E  C0AE  F0B4         	movff	?_getAD_AN+1,valorConvUART@valor+1
  3852  001B22  ECED  F019         	call	_valorConvUART	;wreg free
  3853  001B26  C0B3  F16F         	movff	?_valorConvUART,UARTSendString@str
  3854  001B2A  C0B4  F170         	movff	?_valorConvUART+1,UARTSendString@str+1
  3855  001B2E  0E00               	movlw	0
  3856  001B30  0101               	movlb	1	; () banked
  3857  001B32  6F72               	movwf	(UARTSendString@max_length+1)& (0+255),b
  3858  001B34  0E10               	movlw	16
  3859  001B36  6F71               	movwf	UARTSendString@max_length& (0+255),b
  3860  001B38  EC24  F019         	call	_UARTSendString	;wreg free
  3861  001B3C  0E9C               	movlw	low STR_23
  3862  001B3E  0101               	movlb	1	; () banked
  3863  001B40  6F6F               	movwf	UARTSendString@str& (0+255),b
  3864  001B42  0E03               	movlw	high STR_23
  3865  001B44  6F70               	movwf	(UARTSendString@str+1)& (0+255),b
  3866  001B46  0E00               	movlw	0
  3867  001B48  6F72               	movwf	(UARTSendString@max_length+1)& (0+255),b
  3868  001B4A  0E10               	movlw	16
  3869  001B4C  6F71               	movwf	UARTSendString@max_length& (0+255),b
  3870  001B4E  EC24  F019         	call	_UARTSendString	;wreg free
  3871  001B52  0E7D               	movlw	low STR_34
  3872  001B54  0101               	movlb	1	; () banked
  3873  001B56  6F6F               	movwf	UARTSendString@str& (0+255),b
  3874  001B58  0E03               	movlw	high STR_34
  3875  001B5A  6F70               	movwf	(UARTSendString@str+1)& (0+255),b
  3876  001B5C  0E00               	movlw	0
  3877  001B5E  6F72               	movwf	(UARTSendString@max_length+1)& (0+255),b
  3878  001B60  0E10               	movlw	16
  3879  001B62  6F71               	movwf	UARTSendString@max_length& (0+255),b
  3880  001B64  EC24  F019         	call	_UARTSendString	;wreg free
  3881  001B68  0E00               	movlw	0
  3882  001B6A  0100               	movlb	0	; () banked
  3883  001B6C  6FAE               	movwf	(getAD_AN@porta+1)& (0+255),b
  3884  001B6E  0E06               	movlw	6
  3885  001B70  6FAD               	movwf	getAD_AN@porta& (0+255),b
  3886  001B72  EC15  F014         	call	_getAD_AN	;wreg free
  3887  001B76  C0AD  F0B3         	movff	?_getAD_AN,valorConvUART@valor
  3888  001B7A  C0AE  F0B4         	movff	?_getAD_AN+1,valorConvUART@valor+1
  3889  001B7E  ECED  F019         	call	_valorConvUART	;wreg free
  3890  001B82  C0B3  F16F         	movff	?_valorConvUART,UARTSendString@str
  3891  001B86  C0B4  F170         	movff	?_valorConvUART+1,UARTSendString@str+1
  3892  001B8A  0E00               	movlw	0
  3893  001B8C  0101               	movlb	1	; () banked
  3894  001B8E  6F72               	movwf	(UARTSendString@max_length+1)& (0+255),b
  3895  001B90  0E10               	movlw	16
  3896  001B92  6F71               	movwf	UARTSendString@max_length& (0+255),b
  3897  001B94  EC24  F019         	call	_UARTSendString	;wreg free
  3898  001B98  0E9C               	movlw	low STR_23
  3899  001B9A  0101               	movlb	1	; () banked
  3900  001B9C  6F6F               	movwf	UARTSendString@str& (0+255),b
  3901  001B9E  0E03               	movlw	high STR_23
  3902  001BA0  6F70               	movwf	(UARTSendString@str+1)& (0+255),b
  3903  001BA2  0E00               	movlw	0
  3904  001BA4  6F72               	movwf	(UARTSendString@max_length+1)& (0+255),b
  3905  001BA6  0E10               	movlw	16
  3906  001BA8  6F71               	movwf	UARTSendString@max_length& (0+255),b
  3907  001BAA  EC24  F019         	call	_UARTSendString	;wreg free
  3908  001BAE  0E83               	movlw	low STR_36
  3909  001BB0  0101               	movlb	1	; () banked
  3910  001BB2  6F6F               	movwf	UARTSendString@str& (0+255),b
  3911  001BB4  0E03               	movlw	high STR_36
  3912  001BB6  6F70               	movwf	(UARTSendString@str+1)& (0+255),b
  3913  001BB8  0E00               	movlw	0
  3914  001BBA  6F72               	movwf	(UARTSendString@max_length+1)& (0+255),b
  3915  001BBC  0E10               	movlw	16
  3916  001BBE  6F71               	movwf	UARTSendString@max_length& (0+255),b
  3917  001BC0  EC24  F019         	call	_UARTSendString	;wreg free
  3918  001BC4  0E00               	movlw	0
  3919  001BC6  0100               	movlb	0	; () banked
  3920  001BC8  6FAE               	movwf	(getAD_AN@porta+1)& (0+255),b
  3921  001BCA  0E07               	movlw	7
  3922  001BCC  6FAD               	movwf	getAD_AN@porta& (0+255),b
  3923  001BCE  EC15  F014         	call	_getAD_AN	;wreg free
  3924  001BD2  C0AD  F0B3         	movff	?_getAD_AN,valorConvUART@valor
  3925  001BD6  C0AE  F0B4         	movff	?_getAD_AN+1,valorConvUART@valor+1
  3926  001BDA  ECED  F019         	call	_valorConvUART	;wreg free
  3927  001BDE  C0B3  F16F         	movff	?_valorConvUART,UARTSendString@str
  3928  001BE2  C0B4  F170         	movff	?_valorConvUART+1,UARTSendString@str+1
  3929  001BE6  0E00               	movlw	0
  3930  001BE8  0101               	movlb	1	; () banked
  3931  001BEA  6F72               	movwf	(UARTSendString@max_length+1)& (0+255),b
  3932  001BEC  0E10               	movlw	16
  3933  001BEE  6F71               	movwf	UARTSendString@max_length& (0+255),b
  3934  001BF0  EC24  F019         	call	_UARTSendString	;wreg free
  3935  001BF4  0E9C               	movlw	low STR_23
  3936  001BF6  0101               	movlb	1	; () banked
  3937  001BF8  6F6F               	movwf	UARTSendString@str& (0+255),b
  3938  001BFA  0E03               	movlw	high STR_23
  3939  001BFC  6F70               	movwf	(UARTSendString@str+1)& (0+255),b
  3940  001BFE  0E00               	movlw	0
  3941  001C00  6F72               	movwf	(UARTSendString@max_length+1)& (0+255),b
  3942  001C02  0E10               	movlw	16
  3943  001C04  6F71               	movwf	UARTSendString@max_length& (0+255),b
  3944  001C06  EC24  F019         	call	_UARTSendString	;wreg free
  3945  001C0A  0E39               	movlw	low STR_38
  3946  001C0C  0101               	movlb	1	; () banked
  3947  001C0E  6F6F               	movwf	UARTSendString@str& (0+255),b
  3948  001C10  0E03               	movlw	high STR_38
  3949  001C12  6F70               	movwf	(UARTSendString@str+1)& (0+255),b
  3950  001C14  0E00               	movlw	0
  3951  001C16  6F72               	movwf	(UARTSendString@max_length+1)& (0+255),b
  3952  001C18  0E10               	movlw	16
  3953  001C1A  6F71               	movwf	UARTSendString@max_length& (0+255),b
  3954  001C1C  EC24  F019         	call	_UARTSendString	;wreg free
  3955  001C20  0E9C               	movlw	low STR_23
  3956  001C22  0101               	movlb	1	; () banked
  3957  001C24  6F6F               	movwf	UARTSendString@str& (0+255),b
  3958  001C26  0E03               	movlw	high STR_23
  3959  001C28  6F70               	movwf	(UARTSendString@str+1)& (0+255),b
  3960  001C2A  0E00               	movlw	0
  3961  001C2C  6F72               	movwf	(UARTSendString@max_length+1)& (0+255),b
  3962  001C2E  0E10               	movlw	16
  3963  001C30  6F71               	movwf	UARTSendString@max_length& (0+255),b
  3964  001C32  EC24  F019         	call	_UARTSendString	;wreg free
  3965  001C36  0E0D               	movlw	13
  3966  001C38  0101               	movlb	1	; () banked
  3967  001C3A  6F78               	movwf	(??_testeAD+1)& (0+255),b
  3968  001C3C  0EAF               	movlw	175
  3969  001C3E  6F77               	movwf	??_testeAD& (0+255),b
  3970  001C40  0EB6               	movlw	182
  3971  001C42                     u5777:
  3972  001C42  2EE8               	decfsz	wreg,f,c
  3973  001C44  D7FE               	bra	u5777
  3974  001C46  2F77               	decfsz	??_testeAD& (0+255),f,b
  3975  001C48  D7FC               	bra	u5777
  3976  001C4A  2F78               	decfsz	(??_testeAD+1)& (0+255),f,b
  3977  001C4C  D7FA               	bra	u5777
  3978  001C4E  F000               	nop	
  3979  001C50  0012               	return		;funcret
  3980  001C52                     __end_of_testeAD:
  3981                           	opt callstack 0
  3982                           
  3983 ;; *************** function _valorConvUART *****************
  3984 ;; Defined at:
  3985 ;;		line 32 in file "./ADC.h"
  3986 ;; Parameters:    Size  Location     Type
  3987 ;;  valor           2   83[BANK0 ] int 
  3988 ;; Auto vars:     Size  Location     Type
  3989 ;;  string          5    8[BANK1 ] unsigned char [5]
  3990 ;;  unidade         2    4[BANK1 ] int 
  3991 ;;  dezena          2    2[BANK1 ] int 
  3992 ;;  centena         2    0[BANK1 ] int 
  3993 ;; Return value:  Size  Location     Type
  3994 ;;                  2   83[BANK0 ] PTR const unsigned char 
  3995 ;; Registers used:
  3996 ;;		wreg, fsr2l, fsr2h, status,2, status,0, cstack
  3997 ;; Tracked objects:
  3998 ;;		On entry : 0/0
  3999 ;;		On exit  : 0/0
  4000 ;;		Unchanged: 0/0
  4001 ;; Data sizes:     COMRAM   BANK0   BANK1   BANK2
  4002 ;;      Params:         0       2       0       0
  4003 ;;      Locals:         0       0      13       0
  4004 ;;      Temps:          0       0       0       0
  4005 ;;      Totals:         0       2      13       0
  4006 ;;Total ram usage:       15 bytes
  4007 ;; Hardware stack levels used:    1
  4008 ;; Hardware stack levels required when called:    7
  4009 ;; This function calls:
  4010 ;;		___awdiv
  4011 ;;		___awmod
  4012 ;; This function is called by:
  4013 ;;		_testeAD
  4014 ;; This function uses a non-reentrant model
  4015 ;;
  4016                           
  4017                           	psect	text16
  4018  0033DA                     __ptext16:
  4019                           	opt callstack 0
  4020  0033DA                     _valorConvUART:
  4021                           	opt callstack 22
  4022  0033DA                     
  4023                           ;./ADC.h: 34:     int centena = valor / 100;
  4024  0033DA  C0B3  F07E         	movff	valorConvUART@valor,___awdiv@dividend
  4025  0033DE  C0B4  F07F         	movff	valorConvUART@valor+1,___awdiv@dividend+1
  4026  0033E2  0E00               	movlw	0
  4027  0033E4  0100               	movlb	0	; () banked
  4028  0033E6  6F81               	movwf	(___awdiv@divisor+1)& (0+255),b
  4029  0033E8  0E64               	movlw	100
  4030  0033EA  6F80               	movwf	___awdiv@divisor& (0+255),b
  4031  0033EC  EC8A  F019         	call	___awdiv	;wreg free
  4032  0033F0  C07E  F162         	movff	?___awdiv,valorConvUART@centena
  4033  0033F4  C07F  F163         	movff	?___awdiv+1,valorConvUART@centena+1
  4034                           
  4035                           ;./ADC.h: 35:     int dezena = (valor / 10) % 10;
  4036  0033F8  0E00               	movlw	0
  4037  0033FA  0100               	movlb	0	; () banked
  4038  0033FC  6F81               	movwf	(___awdiv@divisor+1)& (0+255),b
  4039  0033FE  0E0A               	movlw	10
  4040  003400  6F80               	movwf	___awdiv@divisor& (0+255),b
  4041  003402  C0B3  F07E         	movff	valorConvUART@valor,___awdiv@dividend
  4042  003406  C0B4  F07F         	movff	valorConvUART@valor+1,___awdiv@dividend+1
  4043  00340A  EC8A  F019         	call	___awdiv	;wreg free
  4044  00340E  C07E  F086         	movff	?___awdiv,___awmod@dividend
  4045  003412  C07F  F087         	movff	?___awdiv+1,___awmod@dividend+1
  4046  003416  0E00               	movlw	0
  4047  003418  0100               	movlb	0	; () banked
  4048  00341A  6F89               	movwf	(___awmod@divisor+1)& (0+255),b
  4049  00341C  0E0A               	movlw	10
  4050  00341E  6F88               	movwf	___awmod@divisor& (0+255),b
  4051  003420  EC4C  F01A         	call	___awmod	;wreg free
  4052  003424  C086  F164         	movff	?___awmod,valorConvUART@dezena
  4053  003428  C087  F165         	movff	?___awmod+1,valorConvUART@dezena+1
  4054                           
  4055                           ;./ADC.h: 36:     int unidade = (valor % 100) % 10;
  4056  00342C  0E00               	movlw	0
  4057  00342E  0100               	movlb	0	; () banked
  4058  003430  6F89               	movwf	(___awmod@divisor+1)& (0+255),b
  4059  003432  0E64               	movlw	100
  4060  003434  6F88               	movwf	___awmod@divisor& (0+255),b
  4061  003436  C0B3  F086         	movff	valorConvUART@valor,___awmod@dividend
  4062  00343A  C0B4  F087         	movff	valorConvUART@valor+1,___awmod@dividend+1
  4063  00343E  EC4C  F01A         	call	___awmod	;wreg free
  4064  003442  C086  F168         	movff	?___awmod,_valorConvUART$1568
  4065  003446  C087  F169         	movff	?___awmod+1,_valorConvUART$1568+1
  4066                           
  4067                           ;./ADC.h: 36:     int unidade = (valor % 100) % 10;
  4068  00344A  C168  F086         	movff	_valorConvUART$1568,___awmod@dividend
  4069  00344E  C169  F087         	movff	_valorConvUART$1568+1,___awmod@dividend+1
  4070  003452  0E00               	movlw	0
  4071  003454  0100               	movlb	0	; () banked
  4072  003456  6F89               	movwf	(___awmod@divisor+1)& (0+255),b
  4073  003458  0E0A               	movlw	10
  4074  00345A  6F88               	movwf	___awmod@divisor& (0+255),b
  4075  00345C  EC4C  F01A         	call	___awmod	;wreg free
  4076  003460  C086  F166         	movff	?___awmod,valorConvUART@unidade
  4077  003464  C087  F167         	movff	?___awmod+1,valorConvUART@unidade+1
  4078  003468                     
  4079                           ;./ADC.h: 38:     char string[5] = {'\0'};
  4080  003468  EE21  F06A         	lfsr	2,valorConvUART@string
  4081  00346C  0E04               	movlw	4
  4082  00346E                     u5071:
  4083  00346E  6ADE               	clrf	postinc2,c
  4084  003470  06E8               	decf	wreg,f,c
  4085  003472  E2FD               	bc	u5071
  4086  003474                     
  4087                           ;./ADC.h: 40:     string[0] = centena + '0';
  4088  003474  0101               	movlb	1	; () banked
  4089  003476  5162               	movf	valorConvUART@centena& (0+255),w,b
  4090  003478  0F30               	addlw	48
  4091  00347A  6F6A               	movwf	valorConvUART@string& (0+255),b
  4092  00347C                     
  4093                           ; BSR set to: 1
  4094                           ;./ADC.h: 41:     string[1] = '.';
  4095  00347C  0E2E               	movlw	46
  4096  00347E  6F6B               	movwf	(valorConvUART@string+1)& (0+255),b
  4097  003480                     
  4098                           ; BSR set to: 1
  4099                           ;./ADC.h: 42:     string[2] = dezena + '0';
  4100  003480  5164               	movf	valorConvUART@dezena& (0+255),w,b
  4101  003482  0F30               	addlw	48
  4102  003484  6F6C               	movwf	(valorConvUART@string+2)& (0+255),b
  4103  003486                     
  4104                           ; BSR set to: 1
  4105                           ;./ADC.h: 43:     string[3] = unidade + '0';
  4106  003486  5166               	movf	valorConvUART@unidade& (0+255),w,b
  4107  003488  0F30               	addlw	48
  4108  00348A  6F6D               	movwf	(valorConvUART@string+3)& (0+255),b
  4109  00348C                     
  4110                           ; BSR set to: 1
  4111                           ;./ADC.h: 45:     return string;
  4112  00348C  0E6A               	movlw	low valorConvUART@string
  4113  00348E  0100               	movlb	0	; () banked
  4114  003490  6FB3               	movwf	?_valorConvUART& (0+255),b
  4115  003492  0E01               	movlw	high valorConvUART@string
  4116  003494  6FB4               	movwf	(?_valorConvUART+1)& (0+255),b
  4117  003496                     
  4118                           ; BSR set to: 0
  4119  003496  0012               	return		;funcret
  4120  003498                     __end_of_valorConvUART:
  4121                           	opt callstack 0
  4122                           
  4123 ;; *************** function ___awmod *****************
  4124 ;; Defined at:
  4125 ;;		line 7 in file "C:\Program Files (x86)\Microchip\xc8\v2.10\pic\sources\c99\common\awmod.c"
  4126 ;; Parameters:    Size  Location     Type
  4127 ;;  dividend        2   38[BANK0 ] int 
  4128 ;;  divisor         2   40[BANK0 ] int 
  4129 ;; Auto vars:     Size  Location     Type
  4130 ;;  sign            1   43[BANK0 ] unsigned char 
  4131 ;;  counter         1   42[BANK0 ] unsigned char 
  4132 ;; Return value:  Size  Location     Type
  4133 ;;                  2   38[BANK0 ] int 
  4134 ;; Registers used:
  4135 ;;		wreg, status,2, status,0
  4136 ;; Tracked objects:
  4137 ;;		On entry : 0/0
  4138 ;;		On exit  : 0/0
  4139 ;;		Unchanged: 0/0
  4140 ;; Data sizes:     COMRAM   BANK0   BANK1   BANK2
  4141 ;;      Params:         0       4       0       0
  4142 ;;      Locals:         0       2       0       0
  4143 ;;      Temps:          0       0       0       0
  4144 ;;      Totals:         0       6       0       0
  4145 ;;Total ram usage:        6 bytes
  4146 ;; Hardware stack levels used:    1
  4147 ;; Hardware stack levels required when called:    6
  4148 ;; This function calls:
  4149 ;;		Nothing
  4150 ;; This function is called by:
  4151 ;;		_valorConvUART
  4152 ;;		_valorConvUARTbit
  4153 ;; This function uses a non-reentrant model
  4154 ;;
  4155                           
  4156                           	psect	text17
  4157  003498                     __ptext17:
  4158                           	opt callstack 0
  4159  003498                     ___awmod:
  4160                           	opt callstack 22
  4161  003498  0E00               	movlw	0
  4162  00349A  0100               	movlb	0	; () banked
  4163  00349C  6F8B               	movwf	___awmod@sign& (0+255),b
  4164  00349E                     
  4165                           ; BSR set to: 0
  4166  00349E  BF87               	btfsc	(___awmod@dividend+1)& (0+255),7,b
  4167  0034A0  EF56  F01A         	goto	u5000
  4168  0034A4  EF54  F01A         	goto	u5001
  4169  0034A8                     u5001:
  4170  0034A8  EF5C  F01A         	goto	l4620
  4171  0034AC                     u5000:
  4172  0034AC                     
  4173                           ; BSR set to: 0
  4174  0034AC  6D86               	negf	___awmod@dividend& (0+255),b
  4175  0034AE  1F87               	comf	(___awmod@dividend+1)& (0+255),f,b
  4176  0034B0  B0D8               	btfsc	status,0,c
  4177  0034B2  2B87               	incf	(___awmod@dividend+1)& (0+255),f,b
  4178  0034B4                     
  4179                           ; BSR set to: 0
  4180  0034B4  0E01               	movlw	1
  4181  0034B6  6F8B               	movwf	___awmod@sign& (0+255),b
  4182  0034B8                     l4620:
  4183                           
  4184                           ; BSR set to: 0
  4185  0034B8  BF89               	btfsc	(___awmod@divisor+1)& (0+255),7,b
  4186  0034BA  EF63  F01A         	goto	u5010
  4187  0034BE  EF61  F01A         	goto	u5011
  4188  0034C2                     u5011:
  4189  0034C2  EF67  F01A         	goto	l4624
  4190  0034C6                     u5010:
  4191  0034C6                     
  4192                           ; BSR set to: 0
  4193  0034C6  6D88               	negf	___awmod@divisor& (0+255),b
  4194  0034C8  1F89               	comf	(___awmod@divisor+1)& (0+255),f,b
  4195  0034CA  B0D8               	btfsc	status,0,c
  4196  0034CC  2B89               	incf	(___awmod@divisor+1)& (0+255),f,b
  4197  0034CE                     l4624:
  4198                           
  4199                           ; BSR set to: 0
  4200  0034CE  5188               	movf	___awmod@divisor& (0+255),w,b
  4201  0034D0  1189               	iorwf	(___awmod@divisor+1)& (0+255),w,b
  4202  0034D2  B4D8               	btfsc	status,2,c
  4203  0034D4  EF6E  F01A         	goto	u5021
  4204  0034D8  EF70  F01A         	goto	u5020
  4205  0034DC                     u5021:
  4206  0034DC  EF94  F01A         	goto	l4640
  4207  0034E0                     u5020:
  4208  0034E0                     
  4209                           ; BSR set to: 0
  4210  0034E0  0E01               	movlw	1
  4211  0034E2  6F8A               	movwf	___awmod@counter& (0+255),b
  4212  0034E4  EF78  F01A         	goto	l4630
  4213  0034E8                     l4628:
  4214                           
  4215                           ; BSR set to: 0
  4216  0034E8  90D8               	bcf	status,0,c
  4217  0034EA  3788               	rlcf	___awmod@divisor& (0+255),f,b
  4218  0034EC  3789               	rlcf	(___awmod@divisor+1)& (0+255),f,b
  4219  0034EE  2B8A               	incf	___awmod@counter& (0+255),f,b
  4220  0034F0                     l4630:
  4221                           
  4222                           ; BSR set to: 0
  4223  0034F0  AF89               	btfss	(___awmod@divisor+1)& (0+255),7,b
  4224  0034F2  EF7D  F01A         	goto	u5031
  4225  0034F6  EF7F  F01A         	goto	u5030
  4226  0034FA                     u5031:
  4227  0034FA  EF74  F01A         	goto	l4628
  4228  0034FE                     u5030:
  4229  0034FE                     l4632:
  4230                           
  4231                           ; BSR set to: 0
  4232  0034FE  5188               	movf	___awmod@divisor& (0+255),w,b
  4233  003500  5D86               	subwf	___awmod@dividend& (0+255),w,b
  4234  003502  5189               	movf	(___awmod@divisor+1)& (0+255),w,b
  4235  003504  5987               	subwfb	(___awmod@dividend+1)& (0+255),w,b
  4236  003506  A0D8               	btfss	status,0,c
  4237  003508  EF88  F01A         	goto	u5041
  4238  00350C  EF8A  F01A         	goto	u5040
  4239  003510                     u5041:
  4240  003510  EF8E  F01A         	goto	l4636
  4241  003514                     u5040:
  4242  003514                     
  4243                           ; BSR set to: 0
  4244  003514  5188               	movf	___awmod@divisor& (0+255),w,b
  4245  003516  5F86               	subwf	___awmod@dividend& (0+255),f,b
  4246  003518  5189               	movf	(___awmod@divisor+1)& (0+255),w,b
  4247  00351A  5B87               	subwfb	(___awmod@dividend+1)& (0+255),f,b
  4248  00351C                     l4636:
  4249                           
  4250                           ; BSR set to: 0
  4251  00351C  90D8               	bcf	status,0,c
  4252  00351E  3389               	rrcf	(___awmod@divisor+1)& (0+255),f,b
  4253  003520  3388               	rrcf	___awmod@divisor& (0+255),f,b
  4254  003522                     
  4255                           ; BSR set to: 0
  4256  003522  2F8A               	decfsz	___awmod@counter& (0+255),f,b
  4257  003524  EF7F  F01A         	goto	l4632
  4258  003528                     l4640:
  4259                           
  4260                           ; BSR set to: 0
  4261  003528  518B               	movf	___awmod@sign& (0+255),w,b
  4262  00352A  B4D8               	btfsc	status,2,c
  4263  00352C  EF9A  F01A         	goto	u5051
  4264  003530  EF9C  F01A         	goto	u5050
  4265  003534                     u5051:
  4266  003534  EFA0  F01A         	goto	l4644
  4267  003538                     u5050:
  4268  003538                     
  4269                           ; BSR set to: 0
  4270  003538  6D86               	negf	___awmod@dividend& (0+255),b
  4271  00353A  1F87               	comf	(___awmod@dividend+1)& (0+255),f,b
  4272  00353C  B0D8               	btfsc	status,0,c
  4273  00353E  2B87               	incf	(___awmod@dividend+1)& (0+255),f,b
  4274  003540                     l4644:
  4275                           
  4276                           ; BSR set to: 0
  4277  003540  C086  F086         	movff	___awmod@dividend,?___awmod
  4278  003544  C087  F087         	movff	___awmod@dividend+1,?___awmod+1
  4279  003548                     
  4280                           ; BSR set to: 0
  4281  003548  0012               	return		;funcret
  4282  00354A                     __end_of___awmod:
  4283                           	opt callstack 0
  4284                           
  4285 ;; *************** function ___awdiv *****************
  4286 ;; Defined at:
  4287 ;;		line 7 in file "C:\Program Files (x86)\Microchip\xc8\v2.10\pic\sources\c99\common\awdiv.c"
  4288 ;; Parameters:    Size  Location     Type
  4289 ;;  dividend        2   30[BANK0 ] int 
  4290 ;;  divisor         2   32[BANK0 ] int 
  4291 ;; Auto vars:     Size  Location     Type
  4292 ;;  quotient        2   36[BANK0 ] int 
  4293 ;;  sign            1   35[BANK0 ] unsigned char 
  4294 ;;  counter         1   34[BANK0 ] unsigned char 
  4295 ;; Return value:  Size  Location     Type
  4296 ;;                  2   30[BANK0 ] int 
  4297 ;; Registers used:
  4298 ;;		wreg, status,2, status,0
  4299 ;; Tracked objects:
  4300 ;;		On entry : 0/0
  4301 ;;		On exit  : 0/0
  4302 ;;		Unchanged: 0/0
  4303 ;; Data sizes:     COMRAM   BANK0   BANK1   BANK2
  4304 ;;      Params:         0       4       0       0
  4305 ;;      Locals:         0       4       0       0
  4306 ;;      Temps:          0       0       0       0
  4307 ;;      Totals:         0       8       0       0
  4308 ;;Total ram usage:        8 bytes
  4309 ;; Hardware stack levels used:    1
  4310 ;; Hardware stack levels required when called:    6
  4311 ;; This function calls:
  4312 ;;		Nothing
  4313 ;; This function is called by:
  4314 ;;		_valorConvUART
  4315 ;;		_valorConvUARTbit
  4316 ;; This function uses a non-reentrant model
  4317 ;;
  4318                           
  4319                           	psect	text18
  4320  003314                     __ptext18:
  4321                           	opt callstack 0
  4322  003314                     ___awdiv:
  4323                           	opt callstack 22
  4324  003314  0E00               	movlw	0
  4325  003316  0100               	movlb	0	; () banked
  4326  003318  6F83               	movwf	___awdiv@sign& (0+255),b
  4327  00331A                     
  4328                           ; BSR set to: 0
  4329  00331A  BF81               	btfsc	(___awdiv@divisor+1)& (0+255),7,b
  4330  00331C  EF94  F019         	goto	u4940
  4331  003320  EF92  F019         	goto	u4941
  4332  003324                     u4941:
  4333  003324  EF9A  F019         	goto	l4576
  4334  003328                     u4940:
  4335  003328                     
  4336                           ; BSR set to: 0
  4337  003328  6D80               	negf	___awdiv@divisor& (0+255),b
  4338  00332A  1F81               	comf	(___awdiv@divisor+1)& (0+255),f,b
  4339  00332C  B0D8               	btfsc	status,0,c
  4340  00332E  2B81               	incf	(___awdiv@divisor+1)& (0+255),f,b
  4341  003330                     
  4342                           ; BSR set to: 0
  4343  003330  0E01               	movlw	1
  4344  003332  6F83               	movwf	___awdiv@sign& (0+255),b
  4345  003334                     l4576:
  4346                           
  4347                           ; BSR set to: 0
  4348  003334  BF7F               	btfsc	(___awdiv@dividend+1)& (0+255),7,b
  4349  003336  EFA1  F019         	goto	u4950
  4350  00333A  EF9F  F019         	goto	u4951
  4351  00333E                     u4951:
  4352  00333E  EFA7  F019         	goto	l4582
  4353  003342                     u4950:
  4354  003342                     
  4355                           ; BSR set to: 0
  4356  003342  6D7E               	negf	___awdiv@dividend& (0+255),b
  4357  003344  1F7F               	comf	(___awdiv@dividend+1)& (0+255),f,b
  4358  003346  B0D8               	btfsc	status,0,c
  4359  003348  2B7F               	incf	(___awdiv@dividend+1)& (0+255),f,b
  4360  00334A                     
  4361                           ; BSR set to: 0
  4362  00334A  0E01               	movlw	1
  4363  00334C  1B83               	xorwf	___awdiv@sign& (0+255),f,b
  4364  00334E                     l4582:
  4365                           
  4366                           ; BSR set to: 0
  4367  00334E  0E00               	movlw	0
  4368  003350  6F85               	movwf	(___awdiv@quotient+1)& (0+255),b
  4369  003352  0E00               	movlw	0
  4370  003354  6F84               	movwf	___awdiv@quotient& (0+255),b
  4371  003356                     
  4372                           ; BSR set to: 0
  4373  003356  5180               	movf	___awdiv@divisor& (0+255),w,b
  4374  003358  1181               	iorwf	(___awdiv@divisor+1)& (0+255),w,b
  4375  00335A  B4D8               	btfsc	status,2,c
  4376  00335C  EFB2  F019         	goto	u4961
  4377  003360  EFB4  F019         	goto	u4960
  4378  003364                     u4961:
  4379  003364  EFDC  F019         	goto	l4604
  4380  003368                     u4960:
  4381  003368                     
  4382                           ; BSR set to: 0
  4383  003368  0E01               	movlw	1
  4384  00336A  6F82               	movwf	___awdiv@counter& (0+255),b
  4385  00336C  EFBC  F019         	goto	l4590
  4386  003370                     l4588:
  4387                           
  4388                           ; BSR set to: 0
  4389  003370  90D8               	bcf	status,0,c
  4390  003372  3780               	rlcf	___awdiv@divisor& (0+255),f,b
  4391  003374  3781               	rlcf	(___awdiv@divisor+1)& (0+255),f,b
  4392  003376  2B82               	incf	___awdiv@counter& (0+255),f,b
  4393  003378                     l4590:
  4394                           
  4395                           ; BSR set to: 0
  4396  003378  AF81               	btfss	(___awdiv@divisor+1)& (0+255),7,b
  4397  00337A  EFC1  F019         	goto	u4971
  4398  00337E  EFC3  F019         	goto	u4970
  4399  003382                     u4971:
  4400  003382  EFB8  F019         	goto	l4588
  4401  003386                     u4970:
  4402  003386                     l4592:
  4403                           
  4404                           ; BSR set to: 0
  4405  003386  90D8               	bcf	status,0,c
  4406  003388  3784               	rlcf	___awdiv@quotient& (0+255),f,b
  4407  00338A  3785               	rlcf	(___awdiv@quotient+1)& (0+255),f,b
  4408  00338C                     
  4409                           ; BSR set to: 0
  4410  00338C  5180               	movf	___awdiv@divisor& (0+255),w,b
  4411  00338E  5D7E               	subwf	___awdiv@dividend& (0+255),w,b
  4412  003390  5181               	movf	(___awdiv@divisor+1)& (0+255),w,b
  4413  003392  597F               	subwfb	(___awdiv@dividend+1)& (0+255),w,b
  4414  003394  A0D8               	btfss	status,0,c
  4415  003396  EFCF  F019         	goto	u4981
  4416  00339A  EFD1  F019         	goto	u4980
  4417  00339E                     u4981:
  4418  00339E  EFD6  F019         	goto	l4600
  4419  0033A2                     u4980:
  4420  0033A2                     
  4421                           ; BSR set to: 0
  4422  0033A2  5180               	movf	___awdiv@divisor& (0+255),w,b
  4423  0033A4  5F7E               	subwf	___awdiv@dividend& (0+255),f,b
  4424  0033A6  5181               	movf	(___awdiv@divisor+1)& (0+255),w,b
  4425  0033A8  5B7F               	subwfb	(___awdiv@dividend+1)& (0+255),f,b
  4426  0033AA                     
  4427                           ; BSR set to: 0
  4428  0033AA  8184               	bsf	___awdiv@quotient& (0+255),0,b
  4429  0033AC                     l4600:
  4430                           
  4431                           ; BSR set to: 0
  4432  0033AC  90D8               	bcf	status,0,c
  4433  0033AE  3381               	rrcf	(___awdiv@divisor+1)& (0+255),f,b
  4434  0033B0  3380               	rrcf	___awdiv@divisor& (0+255),f,b
  4435  0033B2                     
  4436                           ; BSR set to: 0
  4437  0033B2  2F82               	decfsz	___awdiv@counter& (0+255),f,b
  4438  0033B4  EFC3  F019         	goto	l4592
  4439  0033B8                     l4604:
  4440                           
  4441                           ; BSR set to: 0
  4442  0033B8  5183               	movf	___awdiv@sign& (0+255),w,b
  4443  0033BA  B4D8               	btfsc	status,2,c
  4444  0033BC  EFE2  F019         	goto	u4991
  4445  0033C0  EFE4  F019         	goto	u4990
  4446  0033C4                     u4991:
  4447  0033C4  EFE8  F019         	goto	l4608
  4448  0033C8                     u4990:
  4449  0033C8                     
  4450                           ; BSR set to: 0
  4451  0033C8  6D84               	negf	___awdiv@quotient& (0+255),b
  4452  0033CA  1F85               	comf	(___awdiv@quotient+1)& (0+255),f,b
  4453  0033CC  B0D8               	btfsc	status,0,c
  4454  0033CE  2B85               	incf	(___awdiv@quotient+1)& (0+255),f,b
  4455  0033D0                     l4608:
  4456                           
  4457                           ; BSR set to: 0
  4458  0033D0  C084  F07E         	movff	___awdiv@quotient,?___awdiv
  4459  0033D4  C085  F07F         	movff	___awdiv@quotient+1,?___awdiv+1
  4460  0033D8                     
  4461                           ; BSR set to: 0
  4462  0033D8  0012               	return		;funcret
  4463  0033DA                     __end_of___awdiv:
  4464                           	opt callstack 0
  4465                           
  4466 ;; *************** function _getAD_AN *****************
  4467 ;; Defined at:
  4468 ;;		line 89 in file "./ADC.h"
  4469 ;; Parameters:    Size  Location     Type
  4470 ;;  porta           2   77[BANK0 ] int 
  4471 ;; Auto vars:     Size  Location     Type
  4472 ;;  ANread          4   79[BANK0 ] float 
  4473 ;; Return value:  Size  Location     Type
  4474 ;;                  2   77[BANK0 ] int 
  4475 ;; Registers used:
  4476 ;;		wreg, status,2, status,0, prodl, prodh, cstack
  4477 ;; Tracked objects:
  4478 ;;		On entry : 0/0
  4479 ;;		On exit  : 0/0
  4480 ;;		Unchanged: 0/0
  4481 ;; Data sizes:     COMRAM   BANK0   BANK1   BANK2
  4482 ;;      Params:         0       2       0       0
  4483 ;;      Locals:         0       4       0       0
  4484 ;;      Temps:          0       0       0       0
  4485 ;;      Totals:         0       6       0       0
  4486 ;;Total ram usage:        6 bytes
  4487 ;; Hardware stack levels used:    1
  4488 ;; Hardware stack levels required when called:    8
  4489 ;; This function calls:
  4490 ;;		___fltol
  4491 ;;		_bitExtract
  4492 ;;		_readAD_AN
  4493 ;; This function is called by:
  4494 ;;		_testeAD
  4495 ;; This function uses a non-reentrant model
  4496 ;;
  4497                           
  4498                           	psect	text19
  4499  00282A                     __ptext19:
  4500                           	opt callstack 0
  4501  00282A                     _getAD_AN:
  4502                           	opt callstack 21
  4503  00282A                     
  4504                           ;./ADC.h: 91:     ADCON0bits.ACMOD = bitExtract(porta, 2, 0);
  4505  00282A  C0AD  F07E         	movff	getAD_AN@porta,bitExtract@numero
  4506  00282E  C0AE  F07F         	movff	getAD_AN@porta+1,bitExtract@numero+1
  4507  002832  0E00               	movlw	0
  4508  002834  0100               	movlb	0	; () banked
  4509  002836  6F81               	movwf	(bitExtract@k+1)& (0+255),b
  4510  002838  0E02               	movlw	2
  4511  00283A  6F80               	movwf	bitExtract@k& (0+255),b
  4512  00283C  0E00               	movlw	0
  4513  00283E  6F83               	movwf	(bitExtract@p+1)& (0+255),b
  4514  002840  0E00               	movlw	0
  4515  002842  6F82               	movwf	bitExtract@p& (0+255),b
  4516  002844  ECFB  F01B         	call	_bitExtract	;wreg free
  4517  002848  0100               	movlb	0	; () banked
  4518  00284A  477E               	rlncf	?_bitExtract& (0+255),f,b
  4519  00284C  477E               	rlncf	?_bitExtract& (0+255),f,b
  4520  00284E  50C2               	movf	194,w,c	;volatile
  4521  002850  197E               	xorwf	?_bitExtract& (0+255),w,b
  4522  002852  0BF3               	andlw	-13
  4523  002854  197E               	xorwf	?_bitExtract& (0+255),w,b
  4524  002856  6EC2               	movwf	194,c	;volatile
  4525                           
  4526                           ;./ADC.h: 93:     ADCHSbits.GASEL0 = bitExtract(porta, 1, 2);
  4527  002858  C0AD  F07E         	movff	getAD_AN@porta,bitExtract@numero
  4528  00285C  C0AE  F07F         	movff	getAD_AN@porta+1,bitExtract@numero+1
  4529  002860  0E00               	movlw	0
  4530  002862  6F81               	movwf	(bitExtract@k+1)& (0+255),b
  4531  002864  0E01               	movlw	1
  4532  002866  6F80               	movwf	bitExtract@k& (0+255),b
  4533  002868  0E00               	movlw	0
  4534  00286A  6F83               	movwf	(bitExtract@p+1)& (0+255),b
  4535  00286C  0E02               	movlw	2
  4536  00286E  6F82               	movwf	bitExtract@p& (0+255),b
  4537  002870  ECFB  F01B         	call	_bitExtract	;wreg free
  4538  002874  5099               	movf	153,w,c	;volatile
  4539  002876  0100               	movlb	0	; () banked
  4540  002878  197E               	xorwf	?_bitExtract& (0+255),w,b
  4541  00287A  0BFE               	andlw	-2
  4542  00287C  197E               	xorwf	?_bitExtract& (0+255),w,b
  4543  00287E  6E99               	movwf	153,c	;volatile
  4544                           
  4545                           ;./ADC.h: 94:     ADCHSbits.GBSEL0 = bitExtract(porta, 1, 2);
  4546  002880  C0AD  F07E         	movff	getAD_AN@porta,bitExtract@numero
  4547  002884  C0AE  F07F         	movff	getAD_AN@porta+1,bitExtract@numero+1
  4548  002888  0E00               	movlw	0
  4549  00288A  6F81               	movwf	(bitExtract@k+1)& (0+255),b
  4550  00288C  0E01               	movlw	1
  4551  00288E  6F80               	movwf	bitExtract@k& (0+255),b
  4552  002890  0E00               	movlw	0
  4553  002892  6F83               	movwf	(bitExtract@p+1)& (0+255),b
  4554  002894  0E02               	movlw	2
  4555  002896  6F82               	movwf	bitExtract@p& (0+255),b
  4556  002898  ECFB  F01B         	call	_bitExtract	;wreg free
  4557  00289C  0100               	movlb	0	; () banked
  4558  00289E  3B7E               	swapf	?_bitExtract& (0+255),f,b
  4559  0028A0  5099               	movf	153,w,c	;volatile
  4560  0028A2  197E               	xorwf	?_bitExtract& (0+255),w,b
  4561  0028A4  0BEF               	andlw	-17
  4562  0028A6  197E               	xorwf	?_bitExtract& (0+255),w,b
  4563  0028A8  6E99               	movwf	153,c	;volatile
  4564                           
  4565                           ;./ADC.h: 95:     ADCHSbits.GCSEL0 = bitExtract(porta, 1, 2);
  4566  0028AA  C0AD  F07E         	movff	getAD_AN@porta,bitExtract@numero
  4567  0028AE  C0AE  F07F         	movff	getAD_AN@porta+1,bitExtract@numero+1
  4568  0028B2  0E00               	movlw	0
  4569  0028B4  6F81               	movwf	(bitExtract@k+1)& (0+255),b
  4570  0028B6  0E01               	movlw	1
  4571  0028B8  6F80               	movwf	bitExtract@k& (0+255),b
  4572  0028BA  0E00               	movlw	0
  4573  0028BC  6F83               	movwf	(bitExtract@p+1)& (0+255),b
  4574  0028BE  0E02               	movlw	2
  4575  0028C0  6F82               	movwf	bitExtract@p& (0+255),b
  4576  0028C2  ECFB  F01B         	call	_bitExtract	;wreg free
  4577  0028C6  0100               	movlb	0	; () banked
  4578  0028C8  477E               	rlncf	?_bitExtract& (0+255),f,b
  4579  0028CA  477E               	rlncf	?_bitExtract& (0+255),f,b
  4580  0028CC  5099               	movf	153,w,c	;volatile
  4581  0028CE  197E               	xorwf	?_bitExtract& (0+255),w,b
  4582  0028D0  0BFB               	andlw	-5
  4583  0028D2  197E               	xorwf	?_bitExtract& (0+255),w,b
  4584  0028D4  6E99               	movwf	153,c	;volatile
  4585                           
  4586                           ;./ADC.h: 96:     ADCHSbits.GDSEL0 = bitExtract(porta, 1, 2);
  4587  0028D6  C0AD  F07E         	movff	getAD_AN@porta,bitExtract@numero
  4588  0028DA  C0AE  F07F         	movff	getAD_AN@porta+1,bitExtract@numero+1
  4589  0028DE  0E00               	movlw	0
  4590  0028E0  6F81               	movwf	(bitExtract@k+1)& (0+255),b
  4591  0028E2  0E01               	movlw	1
  4592  0028E4  6F80               	movwf	bitExtract@k& (0+255),b
  4593  0028E6  0E00               	movlw	0
  4594  0028E8  6F83               	movwf	(bitExtract@p+1)& (0+255),b
  4595  0028EA  0E02               	movlw	2
  4596  0028EC  6F82               	movwf	bitExtract@p& (0+255),b
  4597  0028EE  ECFB  F01B         	call	_bitExtract	;wreg free
  4598  0028F2  0100               	movlb	0	; () banked
  4599  0028F4  3B7E               	swapf	?_bitExtract& (0+255),f,b
  4600  0028F6  477E               	rlncf	?_bitExtract& (0+255),f,b
  4601  0028F8  477E               	rlncf	?_bitExtract& (0+255),f,b
  4602  0028FA  5099               	movf	153,w,c	;volatile
  4603  0028FC  197E               	xorwf	?_bitExtract& (0+255),w,b
  4604  0028FE  0BBF               	andlw	-65
  4605  002900  197E               	xorwf	?_bitExtract& (0+255),w,b
  4606  002902  6E99               	movwf	153,c	;volatile
  4607  002904                     
  4608                           ; BSR set to: 0
  4609                           ;./ADC.h: 98:     ADCON0bits.ADON = 1;
  4610  002904  80C2               	bsf	194,0,c	;volatile
  4611  002906                     
  4612                           ; BSR set to: 0
  4613                           ;./ADC.h: 99:     ADCON0bits.GODONE = 1;
  4614  002906  82C2               	bsf	194,1,c	;volatile
  4615  002908                     l142:
  4616  002908  B2C2               	btfsc	194,1,c	;volatile
  4617  00290A  EF89  F014         	goto	u5091
  4618  00290E  EF8B  F014         	goto	u5090
  4619  002912                     u5091:
  4620  002912  EF84  F014         	goto	l142
  4621  002916                     u5090:
  4622  002916                     
  4623                           ;./ADC.h: 102:     float ANread = readAD_AN();
  4624  002916  ECFD  F01A         	call	_readAD_AN	;wreg free
  4625  00291A  C0A5  F0AF         	movff	?_readAD_AN,getAD_AN@ANread
  4626  00291E  C0A6  F0B0         	movff	?_readAD_AN+1,getAD_AN@ANread+1
  4627  002922  C0A7  F0B1         	movff	?_readAD_AN+2,getAD_AN@ANread+2
  4628  002926  C0A8  F0B2         	movff	?_readAD_AN+3,getAD_AN@ANread+3
  4629  00292A                     
  4630                           ;./ADC.h: 103:     ADCON0bits.ADON = 0;
  4631  00292A  90C2               	bcf	194,0,c	;volatile
  4632  00292C                     
  4633                           ;./ADC.h: 105:     return (int) ANread;
  4634  00292C  C0AF  F07E         	movff	getAD_AN@ANread,___fltol@f1
  4635  002930  C0B0  F07F         	movff	getAD_AN@ANread+1,___fltol@f1+1
  4636  002934  C0B1  F080         	movff	getAD_AN@ANread+2,___fltol@f1+2
  4637  002938  C0B2  F081         	movff	getAD_AN@ANread+3,___fltol@f1+3
  4638  00293C  ECB7  F015         	call	___fltol	;wreg free
  4639  002940  C07E  F0AD         	movff	?___fltol,?_getAD_AN
  4640  002944  C07F  F0AE         	movff	?___fltol+1,?_getAD_AN+1
  4641  002948  0012               	return		;funcret
  4642  00294A                     __end_of_getAD_AN:
  4643                           	opt callstack 0
  4644                           
  4645 ;; *************** function _readAD_AN *****************
  4646 ;; Defined at:
  4647 ;;		line 69 in file "./ADC.h"
  4648 ;; Parameters:    Size  Location     Type
  4649 ;;		None
  4650 ;; Auto vars:     Size  Location     Type
  4651 ;;		None
  4652 ;; Return value:  Size  Location     Type
  4653 ;;                  4   69[BANK0 ] float 
  4654 ;; Registers used:
  4655 ;;		wreg, status,2, status,0, prodl, prodh, cstack
  4656 ;; Tracked objects:
  4657 ;;		On entry : 0/0
  4658 ;;		On exit  : 0/0
  4659 ;;		Unchanged: 0/0
  4660 ;; Data sizes:     COMRAM   BANK0   BANK1   BANK2
  4661 ;;      Params:         0       4       0       0
  4662 ;;      Locals:         0       4       0       0
  4663 ;;      Temps:          0       0       0       0
  4664 ;;      Totals:         0       8       0       0
  4665 ;;Total ram usage:        8 bytes
  4666 ;; Hardware stack levels used:    1
  4667 ;; Hardware stack levels required when called:    7
  4668 ;; This function calls:
  4669 ;;		___flmul
  4670 ;;		___xxtofl
  4671 ;; This function is called by:
  4672 ;;		_getAD_AN
  4673 ;; This function uses a non-reentrant model
  4674 ;;
  4675                           
  4676                           	psect	text20
  4677  0035FA                     __ptext20:
  4678                           	opt callstack 0
  4679  0035FA                     _readAD_AN:
  4680                           	opt callstack 21
  4681  0035FA                     
  4682                           ;./ADC.h: 71:     vdig_AN = ADRESH;
  4683  0035FA  CFC4 F0D7          	movff	4036,_vdig_AN	;volatile
  4684  0035FE  0100               	movlb	0	; () banked
  4685  003600  6BD8               	clrf	(_vdig_AN+1)& (0+255),b
  4686  003602                     
  4687                           ; BSR set to: 0
  4688                           ;./ADC.h: 72:     vdig_AN = vdig_AN << 8;
  4689  003602  51D7               	movf	_vdig_AN& (0+255),w,b
  4690  003604  6FD8               	movwf	(_vdig_AN+1)& (0+255),b
  4691  003606  6BD7               	clrf	_vdig_AN& (0+255),b
  4692  003608                     
  4693                           ; BSR set to: 0
  4694                           ;./ADC.h: 73:     vdig_AN += ADRESL;
  4695  003608  50C3               	movf	195,w,c	;volatile
  4696  00360A  27D7               	addwf	_vdig_AN& (0+255),f,b
  4697  00360C  0E00               	movlw	0
  4698  00360E  23D8               	addwfc	(_vdig_AN+1)& (0+255),f,b
  4699  003610                     
  4700                           ; BSR set to: 0
  4701                           ;./ADC.h: 75:     vanal_AN = 4.88 * vdig_AN * 0.1;
  4702  003610  0EF6               	movlw	246
  4703  003612  6F90               	movwf	___flmul@a& (0+255),b
  4704  003614  0E28               	movlw	40
  4705  003616  6F91               	movwf	(___flmul@a+1)& (0+255),b
  4706  003618  0E9C               	movlw	156
  4707  00361A  6F92               	movwf	(___flmul@a+2)& (0+255),b
  4708  00361C  0E40               	movlw	64
  4709  00361E  6F93               	movwf	(___flmul@a+3)& (0+255),b
  4710  003620  C0D7  F07E         	movff	_vdig_AN,___xxtofl@val
  4711  003624  C0D8  F07F         	movff	_vdig_AN+1,___xxtofl@val+1
  4712  003628  0E00               	movlw	0
  4713  00362A  BF7F               	btfsc	(___xxtofl@val+1)& (0+255),7,b
  4714  00362C  0EFF               	movlw	-1
  4715  00362E  6F80               	movwf	(___xxtofl@val+2)& (0+255),b
  4716  003630  6F81               	movwf	(___xxtofl@val+3)& (0+255),b
  4717  003632  0E01               	movlw	1
  4718  003634  EC8E  F00F         	call	___xxtofl
  4719  003638  C07E  F08C         	movff	?___xxtofl,___flmul@b
  4720  00363C  C07F  F08D         	movff	?___xxtofl+1,___flmul@b+1
  4721  003640  C080  F08E         	movff	?___xxtofl+2,___flmul@b+2
  4722  003644  C081  F08F         	movff	?___xxtofl+3,___flmul@b+3
  4723  003648  EC9D  F006         	call	___flmul	;wreg free
  4724  00364C  C08C  F0A9         	movff	?___flmul,_readAD_AN$1570
  4725  003650  C08D  F0AA         	movff	?___flmul+1,_readAD_AN$1570+1
  4726  003654  C08E  F0AB         	movff	?___flmul+2,_readAD_AN$1570+2
  4727  003658  C08F  F0AC         	movff	?___flmul+3,_readAD_AN$1570+3
  4728  00365C                     
  4729                           ;./ADC.h: 75:     vanal_AN = 4.88 * vdig_AN * 0.1;
  4730  00365C  C0A9  F08C         	movff	_readAD_AN$1570,___flmul@b
  4731  003660  C0AA  F08D         	movff	_readAD_AN$1570+1,___flmul@b+1
  4732  003664  C0AB  F08E         	movff	_readAD_AN$1570+2,___flmul@b+2
  4733  003668  C0AC  F08F         	movff	_readAD_AN$1570+3,___flmul@b+3
  4734  00366C  0ECD               	movlw	205
  4735  00366E  0100               	movlb	0	; () banked
  4736  003670  6F90               	movwf	___flmul@a& (0+255),b
  4737  003672  0ECC               	movlw	204
  4738  003674  6F91               	movwf	(___flmul@a+1)& (0+255),b
  4739  003676  0ECC               	movlw	204
  4740  003678  6F92               	movwf	(___flmul@a+2)& (0+255),b
  4741  00367A  0E3D               	movlw	61
  4742  00367C  6F93               	movwf	(___flmul@a+3)& (0+255),b
  4743  00367E  EC9D  F006         	call	___flmul	;wreg free
  4744  003682  C08C  F0D1         	movff	?___flmul,_vanal_AN
  4745  003686  C08D  F0D2         	movff	?___flmul+1,_vanal_AN+1
  4746  00368A  C08E  F0D3         	movff	?___flmul+2,_vanal_AN+2
  4747  00368E  C08F  F0D4         	movff	?___flmul+3,_vanal_AN+3
  4748  003692                     
  4749                           ;./ADC.h: 77:     return vanal_AN;
  4750  003692  C0D1  F0A5         	movff	_vanal_AN,?_readAD_AN
  4751  003696  C0D2  F0A6         	movff	_vanal_AN+1,?_readAD_AN+1
  4752  00369A  C0D3  F0A7         	movff	_vanal_AN+2,?_readAD_AN+2
  4753  00369E  C0D4  F0A8         	movff	_vanal_AN+3,?_readAD_AN+3
  4754  0036A2  0012               	return		;funcret
  4755  0036A4                     __end_of_readAD_AN:
  4756                           	opt callstack 0
  4757                           
  4758 ;; *************** function ___xxtofl *****************
  4759 ;; Defined at:
  4760 ;;		line 10 in file "C:\Program Files (x86)\Microchip\xc8\v2.10\pic\sources\c99\common\xxtofl.c"
  4761 ;; Parameters:    Size  Location     Type
  4762 ;;  sign            1    wreg     unsigned char 
  4763 ;;  val             4   30[BANK0 ] long 
  4764 ;; Auto vars:     Size  Location     Type
  4765 ;;  sign            1   38[BANK0 ] unsigned char 
  4766 ;;  arg             4   40[BANK0 ] unsigned long 
  4767 ;;  exp             1   39[BANK0 ] unsigned char 
  4768 ;; Return value:  Size  Location     Type
  4769 ;;                  4   30[BANK0 ] unsigned char 
  4770 ;; Registers used:
  4771 ;;		wreg, status,2, status,0
  4772 ;; Tracked objects:
  4773 ;;		On entry : 0/0
  4774 ;;		On exit  : 0/0
  4775 ;;		Unchanged: 0/0
  4776 ;; Data sizes:     COMRAM   BANK0   BANK1   BANK2
  4777 ;;      Params:         0       4       0       0
  4778 ;;      Locals:         0       6       0       0
  4779 ;;      Temps:          0       4       0       0
  4780 ;;      Totals:         0      14       0       0
  4781 ;;Total ram usage:       14 bytes
  4782 ;; Hardware stack levels used:    1
  4783 ;; Hardware stack levels required when called:    6
  4784 ;; This function calls:
  4785 ;;		Nothing
  4786 ;; This function is called by:
  4787 ;;		_readAD_AN
  4788 ;; This function uses a non-reentrant model
  4789 ;;
  4790                           
  4791                           	psect	text21
  4792  001F1C                     __ptext21:
  4793                           	opt callstack 0
  4794  001F1C                     ___xxtofl:
  4795                           	opt callstack 21
  4796                           
  4797                           ;incstack = 0
  4798                           ;___xxtofl@sign stored from wreg
  4799  001F1C  0100               	movlb	0	; () banked
  4800  001F1E  6F86               	movwf	___xxtofl@sign& (0+255),b
  4801  001F20  0100               	movlb	0	; () banked
  4802  001F22  5186               	movf	___xxtofl@sign& (0+255),w,b
  4803  001F24  B4D8               	btfsc	status,2,c
  4804  001F26  EF97  F00F         	goto	u3391
  4805  001F2A  EF99  F00F         	goto	u3390
  4806  001F2E                     u3391:
  4807  001F2E  EFBB  F00F         	goto	l1027
  4808  001F32                     u3390:
  4809  001F32                     
  4810                           ; BSR set to: 0
  4811  001F32  BF81               	btfsc	(___xxtofl@val+3)& (0+255),7,b
  4812  001F34  EFA0  F00F         	goto	u3400
  4813  001F38  EF9E  F00F         	goto	u3401
  4814  001F3C                     u3401:
  4815  001F3C  EFBB  F00F         	goto	l1027
  4816  001F40                     u3400:
  4817  001F40                     
  4818                           ; BSR set to: 0
  4819  001F40  C07E  F082         	movff	___xxtofl@val,??___xxtofl
  4820  001F44  C07F  F083         	movff	___xxtofl@val+1,??___xxtofl+1
  4821  001F48  C080  F084         	movff	___xxtofl@val+2,??___xxtofl+2
  4822  001F4C  C081  F085         	movff	___xxtofl@val+3,??___xxtofl+3
  4823  001F50  1F82               	comf	??___xxtofl& (0+255),f,b
  4824  001F52  1F83               	comf	(??___xxtofl+1)& (0+255),f,b
  4825  001F54  1F84               	comf	(??___xxtofl+2)& (0+255),f,b
  4826  001F56  1F85               	comf	(??___xxtofl+3)& (0+255),f,b
  4827  001F58  2B82               	incf	??___xxtofl& (0+255),f,b
  4828  001F5A  0E00               	movlw	0
  4829  001F5C  2383               	addwfc	(??___xxtofl+1)& (0+255),f,b
  4830  001F5E  2384               	addwfc	(??___xxtofl+2)& (0+255),f,b
  4831  001F60  2385               	addwfc	(??___xxtofl+3)& (0+255),f,b
  4832  001F62  C082  F088         	movff	??___xxtofl,___xxtofl@arg
  4833  001F66  C083  F089         	movff	??___xxtofl+1,___xxtofl@arg+1
  4834  001F6A  C084  F08A         	movff	??___xxtofl+2,___xxtofl@arg+2
  4835  001F6E  C085  F08B         	movff	??___xxtofl+3,___xxtofl@arg+3
  4836  001F72  EFC3  F00F         	goto	l3314
  4837  001F76                     l1027:
  4838                           
  4839                           ; BSR set to: 0
  4840  001F76  C07E  F088         	movff	___xxtofl@val,___xxtofl@arg
  4841  001F7A  C07F  F089         	movff	___xxtofl@val+1,___xxtofl@arg+1
  4842  001F7E  C080  F08A         	movff	___xxtofl@val+2,___xxtofl@arg+2
  4843  001F82  C081  F08B         	movff	___xxtofl@val+3,___xxtofl@arg+3
  4844  001F86                     l3314:
  4845                           
  4846                           ; BSR set to: 0
  4847  001F86  517E               	movf	___xxtofl@val& (0+255),w,b
  4848  001F88  117F               	iorwf	(___xxtofl@val+1)& (0+255),w,b
  4849  001F8A  1180               	iorwf	(___xxtofl@val+2)& (0+255),w,b
  4850  001F8C  1181               	iorwf	(___xxtofl@val+3)& (0+255),w,b
  4851  001F8E  A4D8               	btfss	status,2,c
  4852  001F90  EFCC  F00F         	goto	u3411
  4853  001F94  EFCE  F00F         	goto	u3410
  4854  001F98                     u3411:
  4855  001F98  EFD8  F00F         	goto	l3320
  4856  001F9C                     u3410:
  4857  001F9C                     
  4858                           ; BSR set to: 0
  4859  001F9C  0E00               	movlw	0
  4860  001F9E  6F7E               	movwf	?___xxtofl& (0+255),b
  4861  001FA0  0E00               	movlw	0
  4862  001FA2  6F7F               	movwf	(?___xxtofl+1)& (0+255),b
  4863  001FA4  0E00               	movlw	0
  4864  001FA6  6F80               	movwf	(?___xxtofl+2)& (0+255),b
  4865  001FA8  0E00               	movlw	0
  4866  001FAA  6F81               	movwf	(?___xxtofl+3)& (0+255),b
  4867  001FAC  EF69  F010         	goto	l1030
  4868  001FB0                     l3320:
  4869                           
  4870                           ; BSR set to: 0
  4871  001FB0  0E96               	movlw	150
  4872  001FB2  6F87               	movwf	___xxtofl@exp& (0+255),b
  4873  001FB4  EFE2  F00F         	goto	l3324
  4874  001FB8                     l3322:
  4875                           
  4876                           ; BSR set to: 0
  4877  001FB8  2B87               	incf	___xxtofl@exp& (0+255),f,b
  4878  001FBA  90D8               	bcf	status,0,c
  4879  001FBC  338B               	rrcf	(___xxtofl@arg+3)& (0+255),f,b
  4880  001FBE  338A               	rrcf	(___xxtofl@arg+2)& (0+255),f,b
  4881  001FC0  3389               	rrcf	(___xxtofl@arg+1)& (0+255),f,b
  4882  001FC2  3388               	rrcf	___xxtofl@arg& (0+255),f,b
  4883  001FC4                     l3324:
  4884                           
  4885                           ; BSR set to: 0
  4886  001FC4  0E00               	movlw	0
  4887  001FC6  1588               	andwf	___xxtofl@arg& (0+255),w,b
  4888  001FC8  6F82               	movwf	??___xxtofl& (0+255),b
  4889  001FCA  0E00               	movlw	0
  4890  001FCC  1589               	andwf	(___xxtofl@arg+1)& (0+255),w,b
  4891  001FCE  6F83               	movwf	(??___xxtofl+1)& (0+255),b
  4892  001FD0  0E00               	movlw	0
  4893  001FD2  158A               	andwf	(___xxtofl@arg+2)& (0+255),w,b
  4894  001FD4  6F84               	movwf	(??___xxtofl+2)& (0+255),b
  4895  001FD6  0EFE               	movlw	254
  4896  001FD8  158B               	andwf	(___xxtofl@arg+3)& (0+255),w,b
  4897  001FDA  6F85               	movwf	(??___xxtofl+3)& (0+255),b
  4898  001FDC  5182               	movf	??___xxtofl& (0+255),w,b
  4899  001FDE  1183               	iorwf	(??___xxtofl+1)& (0+255),w,b
  4900  001FE0  1184               	iorwf	(??___xxtofl+2)& (0+255),w,b
  4901  001FE2  1185               	iorwf	(??___xxtofl+3)& (0+255),w,b
  4902  001FE4  A4D8               	btfss	status,2,c
  4903  001FE6  EFF7  F00F         	goto	u3421
  4904  001FEA  EFF9  F00F         	goto	u3420
  4905  001FEE                     u3421:
  4906  001FEE  EFDC  F00F         	goto	l3322
  4907  001FF2                     u3420:
  4908  001FF2  EF07  F010         	goto	l1034
  4909  001FF6                     l3326:
  4910                           
  4911                           ; BSR set to: 0
  4912  001FF6  2B87               	incf	___xxtofl@exp& (0+255),f,b
  4913  001FF8                     
  4914                           ; BSR set to: 0
  4915  001FF8  0E01               	movlw	1
  4916  001FFA  2788               	addwf	___xxtofl@arg& (0+255),f,b
  4917  001FFC  0E00               	movlw	0
  4918  001FFE  2389               	addwfc	(___xxtofl@arg+1)& (0+255),f,b
  4919  002000  238A               	addwfc	(___xxtofl@arg+2)& (0+255),f,b
  4920  002002  238B               	addwfc	(___xxtofl@arg+3)& (0+255),f,b
  4921  002004                     
  4922                           ; BSR set to: 0
  4923  002004  90D8               	bcf	status,0,c
  4924  002006  338B               	rrcf	(___xxtofl@arg+3)& (0+255),f,b
  4925  002008  338A               	rrcf	(___xxtofl@arg+2)& (0+255),f,b
  4926  00200A  3389               	rrcf	(___xxtofl@arg+1)& (0+255),f,b
  4927  00200C  3388               	rrcf	___xxtofl@arg& (0+255),f,b
  4928  00200E                     l1034:
  4929                           
  4930                           ; BSR set to: 0
  4931  00200E  0E00               	movlw	0
  4932  002010  1588               	andwf	___xxtofl@arg& (0+255),w,b
  4933  002012  6F82               	movwf	??___xxtofl& (0+255),b
  4934  002014  0E00               	movlw	0
  4935  002016  1589               	andwf	(___xxtofl@arg+1)& (0+255),w,b
  4936  002018  6F83               	movwf	(??___xxtofl+1)& (0+255),b
  4937  00201A  0E00               	movlw	0
  4938  00201C  158A               	andwf	(___xxtofl@arg+2)& (0+255),w,b
  4939  00201E  6F84               	movwf	(??___xxtofl+2)& (0+255),b
  4940  002020  0EFF               	movlw	255
  4941  002022  158B               	andwf	(___xxtofl@arg+3)& (0+255),w,b
  4942  002024  6F85               	movwf	(??___xxtofl+3)& (0+255),b
  4943  002026  5182               	movf	??___xxtofl& (0+255),w,b
  4944  002028  1183               	iorwf	(??___xxtofl+1)& (0+255),w,b
  4945  00202A  1184               	iorwf	(??___xxtofl+2)& (0+255),w,b
  4946  00202C  1185               	iorwf	(??___xxtofl+3)& (0+255),w,b
  4947  00202E  A4D8               	btfss	status,2,c
  4948  002030  EF1C  F010         	goto	u3431
  4949  002034  EF1E  F010         	goto	u3430
  4950  002038                     u3431:
  4951  002038  EFFB  F00F         	goto	l3326
  4952  00203C                     u3430:
  4953  00203C  EF26  F010         	goto	l3334
  4954  002040                     l3332:
  4955                           
  4956                           ; BSR set to: 0
  4957  002040  0787               	decf	___xxtofl@exp& (0+255),f,b
  4958  002042  90D8               	bcf	status,0,c
  4959  002044  3788               	rlcf	___xxtofl@arg& (0+255),f,b
  4960  002046  3789               	rlcf	(___xxtofl@arg+1)& (0+255),f,b
  4961  002048  378A               	rlcf	(___xxtofl@arg+2)& (0+255),f,b
  4962  00204A  378B               	rlcf	(___xxtofl@arg+3)& (0+255),f,b
  4963  00204C                     l3334:
  4964                           
  4965                           ; BSR set to: 0
  4966  00204C  BF8A               	btfsc	(___xxtofl@arg+2)& (0+255),7,b
  4967  00204E  EF2B  F010         	goto	u3441
  4968  002052  EF2D  F010         	goto	u3440
  4969  002056                     u3441:
  4970  002056  EF35  F010         	goto	l1041
  4971  00205A                     u3440:
  4972  00205A                     
  4973                           ; BSR set to: 0
  4974  00205A  0E02               	movlw	2
  4975  00205C  6187               	cpfslt	___xxtofl@exp& (0+255),b
  4976  00205E  EF33  F010         	goto	u3451
  4977  002062  EF35  F010         	goto	u3450
  4978  002066                     u3451:
  4979  002066  EF20  F010         	goto	l3332
  4980  00206A                     u3450:
  4981  00206A                     l1041:
  4982                           
  4983                           ; BSR set to: 0
  4984  00206A  B187               	btfsc	___xxtofl@exp& (0+255),0,b
  4985  00206C  EF3A  F010         	goto	u3461
  4986  002070  EF3C  F010         	goto	u3460
  4987  002074                     u3461:
  4988  002074  EF3D  F010         	goto	l3340
  4989  002078                     u3460:
  4990  002078                     
  4991                           ; BSR set to: 0
  4992  002078  9F8A               	bcf	(___xxtofl@arg+2)& (0+255),7,b
  4993  00207A                     l3340:
  4994                           
  4995                           ; BSR set to: 0
  4996  00207A  90D8               	bcf	status,0,c
  4997  00207C  3387               	rrcf	___xxtofl@exp& (0+255),f,b
  4998  00207E                     
  4999                           ; BSR set to: 0
  5000  00207E  C087  F082         	movff	___xxtofl@exp,??___xxtofl
  5001  002082  6B83               	clrf	(??___xxtofl+1)& (0+255),b
  5002  002084  6B84               	clrf	(??___xxtofl+2)& (0+255),b
  5003  002086  6B85               	clrf	(??___xxtofl+3)& (0+255),b
  5004  002088  C082  F085         	movff	??___xxtofl,??___xxtofl+3
  5005  00208C  6B84               	clrf	(??___xxtofl+2)& (0+255),b
  5006  00208E  6B83               	clrf	(??___xxtofl+1)& (0+255),b
  5007  002090  6B82               	clrf	??___xxtofl& (0+255),b
  5008  002092  5182               	movf	??___xxtofl& (0+255),w,b
  5009  002094  1388               	iorwf	___xxtofl@arg& (0+255),f,b
  5010  002096  5183               	movf	(??___xxtofl+1)& (0+255),w,b
  5011  002098  1389               	iorwf	(___xxtofl@arg+1)& (0+255),f,b
  5012  00209A  5184               	movf	(??___xxtofl+2)& (0+255),w,b
  5013  00209C  138A               	iorwf	(___xxtofl@arg+2)& (0+255),f,b
  5014  00209E  5185               	movf	(??___xxtofl+3)& (0+255),w,b
  5015  0020A0  138B               	iorwf	(___xxtofl@arg+3)& (0+255),f,b
  5016  0020A2                     
  5017                           ; BSR set to: 0
  5018  0020A2  5186               	movf	___xxtofl@sign& (0+255),w,b
  5019  0020A4  B4D8               	btfsc	status,2,c
  5020  0020A6  EF57  F010         	goto	u3471
  5021  0020AA  EF59  F010         	goto	u3470
  5022  0020AE                     u3471:
  5023  0020AE  EF61  F010         	goto	l3350
  5024  0020B2                     u3470:
  5025  0020B2                     
  5026                           ; BSR set to: 0
  5027  0020B2  BF81               	btfsc	(___xxtofl@val+3)& (0+255),7,b
  5028  0020B4  EF60  F010         	goto	u3480
  5029  0020B8  EF5E  F010         	goto	u3481
  5030  0020BC                     u3481:
  5031  0020BC  EF61  F010         	goto	l3350
  5032  0020C0                     u3480:
  5033  0020C0                     
  5034                           ; BSR set to: 0
  5035  0020C0  8F8B               	bsf	(___xxtofl@arg+3)& (0+255),7,b
  5036  0020C2                     l3350:
  5037                           
  5038                           ; BSR set to: 0
  5039  0020C2  C088  F07E         	movff	___xxtofl@arg,?___xxtofl
  5040  0020C6  C089  F07F         	movff	___xxtofl@arg+1,?___xxtofl+1
  5041  0020CA  C08A  F080         	movff	___xxtofl@arg+2,?___xxtofl+2
  5042  0020CE  C08B  F081         	movff	___xxtofl@arg+3,?___xxtofl+3
  5043  0020D2                     l1030:
  5044                           
  5045                           ; BSR set to: 0
  5046  0020D2  0012               	return		;funcret
  5047  0020D4                     __end_of___xxtofl:
  5048                           	opt callstack 0
  5049                           
  5050 ;; *************** function ___flmul *****************
  5051 ;; Defined at:
  5052 ;;		line 8 in file "C:\Program Files (x86)\Microchip\xc8\v2.10\pic\sources\c99\common\sprcmul.c"
  5053 ;; Parameters:    Size  Location     Type
  5054 ;;  b               4   44[BANK0 ] unsigned char 
  5055 ;;  a               4   48[BANK0 ] unsigned char 
  5056 ;; Auto vars:     Size  Location     Type
  5057 ;;  prod            4   63[BANK0 ] struct .
  5058 ;;  grs             4   57[BANK0 ] unsigned long 
  5059 ;;  temp            2   67[BANK0 ] struct .
  5060 ;;  bexp            1   62[BANK0 ] unsigned char 
  5061 ;;  aexp            1   61[BANK0 ] unsigned char 
  5062 ;;  sign            1   56[BANK0 ] unsigned char 
  5063 ;; Return value:  Size  Location     Type
  5064 ;;                  4   44[BANK0 ] unsigned char 
  5065 ;; Registers used:
  5066 ;;		wreg, status,2, status,0, prodl, prodh
  5067 ;; Tracked objects:
  5068 ;;		On entry : 0/0
  5069 ;;		On exit  : 0/0
  5070 ;;		Unchanged: 0/0
  5071 ;; Data sizes:     COMRAM   BANK0   BANK1   BANK2
  5072 ;;      Params:         0       8       0       0
  5073 ;;      Locals:         0      13       0       0
  5074 ;;      Temps:          0       4       0       0
  5075 ;;      Totals:         0      25       0       0
  5076 ;;Total ram usage:       25 bytes
  5077 ;; Hardware stack levels used:    1
  5078 ;; Hardware stack levels required when called:    6
  5079 ;; This function calls:
  5080 ;;		Nothing
  5081 ;; This function is called by:
  5082 ;;		_readAD_AN
  5083 ;; This function uses a non-reentrant model
  5084 ;;
  5085                           
  5086                           	psect	text22
  5087  000D3A                     __ptext22:
  5088                           	opt callstack 0
  5089  000D3A                     ___flmul:
  5090                           	opt callstack 21
  5091  000D3A  0100               	movlb	0	; () banked
  5092  000D3C  518F               	movf	(___flmul@b+3)& (0+255),w,b
  5093  000D3E  0B80               	andlw	128
  5094  000D40  6F98               	movwf	___flmul@sign& (0+255),b
  5095  000D42  518F               	movf	(___flmul@b+3)& (0+255),w,b
  5096  000D44  258F               	addwf	(___flmul@b+3)& (0+255),w,b
  5097  000D46  6F9E               	movwf	___flmul@bexp& (0+255),b
  5098  000D48                     
  5099                           ; BSR set to: 0
  5100  000D48  AF8E               	btfss	(___flmul@b+2)& (0+255),7,b
  5101  000D4A  EFA9  F006         	goto	u3201
  5102  000D4E  EFAB  F006         	goto	u3200
  5103  000D52                     u3201:
  5104  000D52  EFAC  F006         	goto	l3184
  5105  000D56                     u3200:
  5106  000D56                     
  5107                           ; BSR set to: 0
  5108  000D56  819E               	bsf	___flmul@bexp& (0+255),0,b
  5109  000D58                     l3184:
  5110                           
  5111                           ; BSR set to: 0
  5112  000D58  519E               	movf	___flmul@bexp& (0+255),w,b
  5113  000D5A  B4D8               	btfsc	status,2,c
  5114  000D5C  EFB2  F006         	goto	u3211
  5115  000D60  EFB4  F006         	goto	u3210
  5116  000D64                     u3211:
  5117  000D64  EFC7  F006         	goto	l3192
  5118  000D68                     u3210:
  5119  000D68                     
  5120                           ; BSR set to: 0
  5121  000D68  299E               	incf	___flmul@bexp& (0+255),w,b
  5122  000D6A  A4D8               	btfss	status,2,c
  5123  000D6C  EFBA  F006         	goto	u3221
  5124  000D70  EFBC  F006         	goto	u3220
  5125  000D74                     u3221:
  5126  000D74  EFC4  F006         	goto	l3190
  5127  000D78                     u3220:
  5128  000D78                     
  5129                           ; BSR set to: 0
  5130  000D78  0E00               	movlw	0
  5131  000D7A  6F8C               	movwf	___flmul@b& (0+255),b
  5132  000D7C  0E00               	movlw	0
  5133  000D7E  6F8D               	movwf	(___flmul@b+1)& (0+255),b
  5134  000D80  0E00               	movlw	0
  5135  000D82  6F8E               	movwf	(___flmul@b+2)& (0+255),b
  5136  000D84  0E00               	movlw	0
  5137  000D86  6F8F               	movwf	(___flmul@b+3)& (0+255),b
  5138  000D88                     l3190:
  5139                           
  5140                           ; BSR set to: 0
  5141  000D88  8F8E               	bsf	(___flmul@b+2)& (0+255),7,b
  5142  000D8A  EFCF  F006         	goto	l3194
  5143  000D8E                     l3192:
  5144                           
  5145                           ; BSR set to: 0
  5146  000D8E  0E00               	movlw	0
  5147  000D90  6F8C               	movwf	___flmul@b& (0+255),b
  5148  000D92  0E00               	movlw	0
  5149  000D94  6F8D               	movwf	(___flmul@b+1)& (0+255),b
  5150  000D96  0E00               	movlw	0
  5151  000D98  6F8E               	movwf	(___flmul@b+2)& (0+255),b
  5152  000D9A  0E00               	movlw	0
  5153  000D9C  6F8F               	movwf	(___flmul@b+3)& (0+255),b
  5154  000D9E                     l3194:
  5155                           
  5156                           ; BSR set to: 0
  5157  000D9E  5193               	movf	(___flmul@a+3)& (0+255),w,b
  5158  000DA0  0B80               	andlw	128
  5159  000DA2  1B98               	xorwf	___flmul@sign& (0+255),f,b
  5160  000DA4                     
  5161                           ; BSR set to: 0
  5162  000DA4  5193               	movf	(___flmul@a+3)& (0+255),w,b
  5163  000DA6  2593               	addwf	(___flmul@a+3)& (0+255),w,b
  5164  000DA8  6F9D               	movwf	___flmul@aexp& (0+255),b
  5165  000DAA                     
  5166                           ; BSR set to: 0
  5167  000DAA  AF92               	btfss	(___flmul@a+2)& (0+255),7,b
  5168  000DAC  EFDA  F006         	goto	u3231
  5169  000DB0  EFDC  F006         	goto	u3230
  5170  000DB4                     u3231:
  5171  000DB4  EFDD  F006         	goto	l3202
  5172  000DB8                     u3230:
  5173  000DB8                     
  5174                           ; BSR set to: 0
  5175  000DB8  819D               	bsf	___flmul@aexp& (0+255),0,b
  5176  000DBA                     l3202:
  5177                           
  5178                           ; BSR set to: 0
  5179  000DBA  519D               	movf	___flmul@aexp& (0+255),w,b
  5180  000DBC  B4D8               	btfsc	status,2,c
  5181  000DBE  EFE3  F006         	goto	u3241
  5182  000DC2  EFE5  F006         	goto	u3240
  5183  000DC6                     u3241:
  5184  000DC6  EFF8  F006         	goto	l3210
  5185  000DCA                     u3240:
  5186  000DCA                     
  5187                           ; BSR set to: 0
  5188  000DCA  299D               	incf	___flmul@aexp& (0+255),w,b
  5189  000DCC  A4D8               	btfss	status,2,c
  5190  000DCE  EFEB  F006         	goto	u3251
  5191  000DD2  EFED  F006         	goto	u3250
  5192  000DD6                     u3251:
  5193  000DD6  EFF5  F006         	goto	l3208
  5194  000DDA                     u3250:
  5195  000DDA                     
  5196                           ; BSR set to: 0
  5197  000DDA  0E00               	movlw	0
  5198  000DDC  6F90               	movwf	___flmul@a& (0+255),b
  5199  000DDE  0E00               	movlw	0
  5200  000DE0  6F91               	movwf	(___flmul@a+1)& (0+255),b
  5201  000DE2  0E00               	movlw	0
  5202  000DE4  6F92               	movwf	(___flmul@a+2)& (0+255),b
  5203  000DE6  0E00               	movlw	0
  5204  000DE8  6F93               	movwf	(___flmul@a+3)& (0+255),b
  5205  000DEA                     l3208:
  5206                           
  5207                           ; BSR set to: 0
  5208  000DEA  8F92               	bsf	(___flmul@a+2)& (0+255),7,b
  5209  000DEC  EF00  F007         	goto	l986
  5210  000DF0                     l3210:
  5211                           
  5212                           ; BSR set to: 0
  5213  000DF0  0E00               	movlw	0
  5214  000DF2  6F90               	movwf	___flmul@a& (0+255),b
  5215  000DF4  0E00               	movlw	0
  5216  000DF6  6F91               	movwf	(___flmul@a+1)& (0+255),b
  5217  000DF8  0E00               	movlw	0
  5218  000DFA  6F92               	movwf	(___flmul@a+2)& (0+255),b
  5219  000DFC  0E00               	movlw	0
  5220  000DFE  6F93               	movwf	(___flmul@a+3)& (0+255),b
  5221  000E00                     l986:
  5222                           
  5223                           ; BSR set to: 0
  5224  000E00  519D               	movf	___flmul@aexp& (0+255),w,b
  5225  000E02  B4D8               	btfsc	status,2,c
  5226  000E04  EF06  F007         	goto	u3261
  5227  000E08  EF08  F007         	goto	u3260
  5228  000E0C                     u3261:
  5229  000E0C  EF10  F007         	goto	l3214
  5230  000E10                     u3260:
  5231  000E10                     
  5232                           ; BSR set to: 0
  5233  000E10  519E               	movf	___flmul@bexp& (0+255),w,b
  5234  000E12  A4D8               	btfss	status,2,c
  5235  000E14  EF0E  F007         	goto	u3271
  5236  000E18  EF10  F007         	goto	u3270
  5237  000E1C                     u3271:
  5238  000E1C  EF1A  F007         	goto	l3218
  5239  000E20                     u3270:
  5240  000E20                     l3214:
  5241                           
  5242                           ; BSR set to: 0
  5243  000E20  0E00               	movlw	0
  5244  000E22  6F8C               	movwf	?___flmul& (0+255),b
  5245  000E24  0E00               	movlw	0
  5246  000E26  6F8D               	movwf	(?___flmul+1)& (0+255),b
  5247  000E28  0E00               	movlw	0
  5248  000E2A  6F8E               	movwf	(?___flmul+2)& (0+255),b
  5249  000E2C  0E00               	movlw	0
  5250  000E2E  6F8F               	movwf	(?___flmul+3)& (0+255),b
  5251  000E30  EFB2  F008         	goto	l990
  5252  000E34                     l3218:
  5253                           
  5254                           ; BSR set to: 0
  5255  000E34  5192               	movf	(___flmul@a+2)& (0+255),w,b
  5256  000E36  038C               	mulwf	___flmul@b& (0+255),b
  5257  000E38  CFF3 F0A3          	movff	prodl,___flmul@temp
  5258  000E3C  CFF4 F0A4          	movff	prodh,___flmul@temp+1
  5259  000E40                     
  5260                           ; BSR set to: 0
  5261  000E40  51A3               	movf	___flmul@temp& (0+255),w,b
  5262  000E42  6F99               	movwf	___flmul@grs& (0+255),b
  5263  000E44  6B9A               	clrf	(___flmul@grs+1)& (0+255),b
  5264  000E46  6B9B               	clrf	(___flmul@grs+2)& (0+255),b
  5265  000E48  6B9C               	clrf	(___flmul@grs+3)& (0+255),b
  5266  000E4A                     
  5267                           ; BSR set to: 0
  5268  000E4A  51A4               	movf	(___flmul@temp+1)& (0+255),w,b
  5269  000E4C  6F9F               	movwf	___flmul@prod& (0+255),b
  5270  000E4E  6BA0               	clrf	(___flmul@prod+1)& (0+255),b
  5271  000E50  6BA1               	clrf	(___flmul@prod+2)& (0+255),b
  5272  000E52  6BA2               	clrf	(___flmul@prod+3)& (0+255),b
  5273  000E54  5191               	movf	(___flmul@a+1)& (0+255),w,b
  5274  000E56  038D               	mulwf	(___flmul@b+1)& (0+255),b
  5275  000E58  CFF3 F0A3          	movff	prodl,___flmul@temp
  5276  000E5C  CFF4 F0A4          	movff	prodh,___flmul@temp+1
  5277  000E60                     
  5278                           ; BSR set to: 0
  5279  000E60  51A3               	movf	___flmul@temp& (0+255),w,b
  5280  000E62  2799               	addwf	___flmul@grs& (0+255),f,b
  5281  000E64  0E00               	movlw	0
  5282  000E66  239A               	addwfc	(___flmul@grs+1)& (0+255),f,b
  5283  000E68  239B               	addwfc	(___flmul@grs+2)& (0+255),f,b
  5284  000E6A  239C               	addwfc	(___flmul@grs+3)& (0+255),f,b
  5285  000E6C                     
  5286                           ; BSR set to: 0
  5287  000E6C  51A4               	movf	(___flmul@temp+1)& (0+255),w,b
  5288  000E6E  279F               	addwf	___flmul@prod& (0+255),f,b
  5289  000E70  0E00               	movlw	0
  5290  000E72  23A0               	addwfc	(___flmul@prod+1)& (0+255),f,b
  5291  000E74  23A1               	addwfc	(___flmul@prod+2)& (0+255),f,b
  5292  000E76  23A2               	addwfc	(___flmul@prod+3)& (0+255),f,b
  5293  000E78  5190               	movf	___flmul@a& (0+255),w,b
  5294  000E7A  038E               	mulwf	(___flmul@b+2)& (0+255),b
  5295  000E7C  CFF3 F0A3          	movff	prodl,___flmul@temp
  5296  000E80  CFF4 F0A4          	movff	prodh,___flmul@temp+1
  5297  000E84                     
  5298                           ; BSR set to: 0
  5299  000E84  51A3               	movf	___flmul@temp& (0+255),w,b
  5300  000E86  2799               	addwf	___flmul@grs& (0+255),f,b
  5301  000E88  0E00               	movlw	0
  5302  000E8A  239A               	addwfc	(___flmul@grs+1)& (0+255),f,b
  5303  000E8C  239B               	addwfc	(___flmul@grs+2)& (0+255),f,b
  5304  000E8E  239C               	addwfc	(___flmul@grs+3)& (0+255),f,b
  5305  000E90                     
  5306                           ; BSR set to: 0
  5307  000E90  51A4               	movf	(___flmul@temp+1)& (0+255),w,b
  5308  000E92  279F               	addwf	___flmul@prod& (0+255),f,b
  5309  000E94  0E00               	movlw	0
  5310  000E96  23A0               	addwfc	(___flmul@prod+1)& (0+255),f,b
  5311  000E98  23A1               	addwfc	(___flmul@prod+2)& (0+255),f,b
  5312  000E9A  23A2               	addwfc	(___flmul@prod+3)& (0+255),f,b
  5313  000E9C                     
  5314                           ; BSR set to: 0
  5315  000E9C  C09B  F09C         	movff	___flmul@grs+2,___flmul@grs+3
  5316  000EA0  C09A  F09B         	movff	___flmul@grs+1,___flmul@grs+2
  5317  000EA4  C099  F09A         	movff	___flmul@grs,___flmul@grs+1
  5318  000EA8  6B99               	clrf	___flmul@grs& (0+255),b
  5319  000EAA                     
  5320                           ; BSR set to: 0
  5321  000EAA  5190               	movf	___flmul@a& (0+255),w,b
  5322  000EAC  038D               	mulwf	(___flmul@b+1)& (0+255),b
  5323  000EAE  CFF3 F0A3          	movff	prodl,___flmul@temp
  5324  000EB2  CFF4 F0A4          	movff	prodh,___flmul@temp+1
  5325  000EB6                     
  5326                           ; BSR set to: 0
  5327  000EB6  51A3               	movf	___flmul@temp& (0+255),w,b
  5328  000EB8  2799               	addwf	___flmul@grs& (0+255),f,b
  5329  000EBA  51A4               	movf	(___flmul@temp+1)& (0+255),w,b
  5330  000EBC  239A               	addwfc	(___flmul@grs+1)& (0+255),f,b
  5331  000EBE  0E00               	movlw	0
  5332  000EC0  239B               	addwfc	(___flmul@grs+2)& (0+255),f,b
  5333  000EC2  0E00               	movlw	0
  5334  000EC4  239C               	addwfc	(___flmul@grs+3)& (0+255),f,b
  5335  000EC6                     
  5336                           ; BSR set to: 0
  5337  000EC6  5191               	movf	(___flmul@a+1)& (0+255),w,b
  5338  000EC8  038C               	mulwf	___flmul@b& (0+255),b
  5339  000ECA  CFF3 F0A3          	movff	prodl,___flmul@temp
  5340  000ECE  CFF4 F0A4          	movff	prodh,___flmul@temp+1
  5341  000ED2                     
  5342                           ; BSR set to: 0
  5343  000ED2  51A3               	movf	___flmul@temp& (0+255),w,b
  5344  000ED4  2799               	addwf	___flmul@grs& (0+255),f,b
  5345  000ED6  51A4               	movf	(___flmul@temp+1)& (0+255),w,b
  5346  000ED8  239A               	addwfc	(___flmul@grs+1)& (0+255),f,b
  5347  000EDA  0E00               	movlw	0
  5348  000EDC  239B               	addwfc	(___flmul@grs+2)& (0+255),f,b
  5349  000EDE  0E00               	movlw	0
  5350  000EE0  239C               	addwfc	(___flmul@grs+3)& (0+255),f,b
  5351  000EE2                     
  5352                           ; BSR set to: 0
  5353  000EE2  C09B  F09C         	movff	___flmul@grs+2,___flmul@grs+3
  5354  000EE6  C09A  F09B         	movff	___flmul@grs+1,___flmul@grs+2
  5355  000EEA  C099  F09A         	movff	___flmul@grs,___flmul@grs+1
  5356  000EEE  6B99               	clrf	___flmul@grs& (0+255),b
  5357  000EF0  5190               	movf	___flmul@a& (0+255),w,b
  5358  000EF2  038C               	mulwf	___flmul@b& (0+255),b
  5359  000EF4  CFF3 F0A3          	movff	prodl,___flmul@temp
  5360  000EF8  CFF4 F0A4          	movff	prodh,___flmul@temp+1
  5361  000EFC                     
  5362                           ; BSR set to: 0
  5363  000EFC  51A3               	movf	___flmul@temp& (0+255),w,b
  5364  000EFE  2799               	addwf	___flmul@grs& (0+255),f,b
  5365  000F00  51A4               	movf	(___flmul@temp+1)& (0+255),w,b
  5366  000F02  239A               	addwfc	(___flmul@grs+1)& (0+255),f,b
  5367  000F04  0E00               	movlw	0
  5368  000F06  239B               	addwfc	(___flmul@grs+2)& (0+255),f,b
  5369  000F08  0E00               	movlw	0
  5370  000F0A  239C               	addwfc	(___flmul@grs+3)& (0+255),f,b
  5371  000F0C                     
  5372                           ; BSR set to: 0
  5373  000F0C  5192               	movf	(___flmul@a+2)& (0+255),w,b
  5374  000F0E  038D               	mulwf	(___flmul@b+1)& (0+255),b
  5375  000F10  CFF3 F0A3          	movff	prodl,___flmul@temp
  5376  000F14  CFF4 F0A4          	movff	prodh,___flmul@temp+1
  5377  000F18  51A3               	movf	___flmul@temp& (0+255),w,b
  5378  000F1A  279F               	addwf	___flmul@prod& (0+255),f,b
  5379  000F1C  51A4               	movf	(___flmul@temp+1)& (0+255),w,b
  5380  000F1E  23A0               	addwfc	(___flmul@prod+1)& (0+255),f,b
  5381  000F20  0E00               	movlw	0
  5382  000F22  23A1               	addwfc	(___flmul@prod+2)& (0+255),f,b
  5383  000F24  0E00               	movlw	0
  5384  000F26  23A2               	addwfc	(___flmul@prod+3)& (0+255),f,b
  5385  000F28                     
  5386                           ; BSR set to: 0
  5387  000F28  5191               	movf	(___flmul@a+1)& (0+255),w,b
  5388  000F2A  038E               	mulwf	(___flmul@b+2)& (0+255),b
  5389  000F2C  CFF3 F0A3          	movff	prodl,___flmul@temp
  5390  000F30  CFF4 F0A4          	movff	prodh,___flmul@temp+1
  5391  000F34                     
  5392                           ; BSR set to: 0
  5393  000F34  51A3               	movf	___flmul@temp& (0+255),w,b
  5394  000F36  279F               	addwf	___flmul@prod& (0+255),f,b
  5395  000F38  51A4               	movf	(___flmul@temp+1)& (0+255),w,b
  5396  000F3A  23A0               	addwfc	(___flmul@prod+1)& (0+255),f,b
  5397  000F3C  0E00               	movlw	0
  5398  000F3E  23A1               	addwfc	(___flmul@prod+2)& (0+255),f,b
  5399  000F40  0E00               	movlw	0
  5400  000F42  23A2               	addwfc	(___flmul@prod+3)& (0+255),f,b
  5401  000F44  5192               	movf	(___flmul@a+2)& (0+255),w,b
  5402  000F46  038E               	mulwf	(___flmul@b+2)& (0+255),b
  5403  000F48  CFF3 F0A3          	movff	prodl,___flmul@temp
  5404  000F4C  CFF4 F0A4          	movff	prodh,___flmul@temp+1
  5405  000F50                     
  5406                           ; BSR set to: 0
  5407  000F50  51A3               	movf	___flmul@temp& (0+255),w,b
  5408  000F52  6F94               	movwf	??___flmul& (0+255),b
  5409  000F54  51A4               	movf	(___flmul@temp+1)& (0+255),w,b
  5410  000F56  6F95               	movwf	(??___flmul+1)& (0+255),b
  5411  000F58  6B96               	clrf	(??___flmul+2)& (0+255),b
  5412  000F5A  6B97               	clrf	(??___flmul+3)& (0+255),b
  5413  000F5C  C096  F097         	movff	??___flmul+2,??___flmul+3
  5414  000F60  C095  F096         	movff	??___flmul+1,??___flmul+2
  5415  000F64  C094  F095         	movff	??___flmul,??___flmul+1
  5416  000F68  6B94               	clrf	??___flmul& (0+255),b
  5417  000F6A  5194               	movf	??___flmul& (0+255),w,b
  5418  000F6C  279F               	addwf	___flmul@prod& (0+255),f,b
  5419  000F6E  5195               	movf	(??___flmul+1)& (0+255),w,b
  5420  000F70  23A0               	addwfc	(___flmul@prod+1)& (0+255),f,b
  5421  000F72  5196               	movf	(??___flmul+2)& (0+255),w,b
  5422  000F74  23A1               	addwfc	(___flmul@prod+2)& (0+255),f,b
  5423  000F76  5197               	movf	(??___flmul+3)& (0+255),w,b
  5424  000F78  23A2               	addwfc	(___flmul@prod+3)& (0+255),f,b
  5425  000F7A                     
  5426                           ; BSR set to: 0
  5427  000F7A  C099  F094         	movff	___flmul@grs,??___flmul
  5428  000F7E  C09A  F095         	movff	___flmul@grs+1,??___flmul+1
  5429  000F82  C09B  F096         	movff	___flmul@grs+2,??___flmul+2
  5430  000F86  C09C  F097         	movff	___flmul@grs+3,??___flmul+3
  5431  000F8A  0E19               	movlw	25
  5432  000F8C  EFCD  F007         	goto	u3280
  5433  000F90                     u3285:
  5434  000F90  90D8               	bcf	status,0,c
  5435  000F92  3397               	rrcf	(??___flmul+3)& (0+255),f,b
  5436  000F94  3396               	rrcf	(??___flmul+2)& (0+255),f,b
  5437  000F96  3395               	rrcf	(??___flmul+1)& (0+255),f,b
  5438  000F98  3394               	rrcf	??___flmul& (0+255),f,b
  5439  000F9A                     u3280:
  5440  000F9A  2EE8               	decfsz	wreg,f,c
  5441  000F9C  EFC8  F007         	goto	u3285
  5442  000FA0  5194               	movf	??___flmul& (0+255),w,b
  5443  000FA2  279F               	addwf	___flmul@prod& (0+255),f,b
  5444  000FA4  5195               	movf	(??___flmul+1)& (0+255),w,b
  5445  000FA6  23A0               	addwfc	(___flmul@prod+1)& (0+255),f,b
  5446  000FA8  5196               	movf	(??___flmul+2)& (0+255),w,b
  5447  000FAA  23A1               	addwfc	(___flmul@prod+2)& (0+255),f,b
  5448  000FAC  5197               	movf	(??___flmul+3)& (0+255),w,b
  5449  000FAE  23A2               	addwfc	(___flmul@prod+3)& (0+255),f,b
  5450  000FB0                     
  5451                           ; BSR set to: 0
  5452  000FB0  C09B  F09C         	movff	___flmul@grs+2,___flmul@grs+3
  5453  000FB4  C09A  F09B         	movff	___flmul@grs+1,___flmul@grs+2
  5454  000FB8  C099  F09A         	movff	___flmul@grs,___flmul@grs+1
  5455  000FBC  6B99               	clrf	___flmul@grs& (0+255),b
  5456  000FBE                     
  5457                           ; BSR set to: 0
  5458  000FBE  519D               	movf	___flmul@aexp& (0+255),w,b
  5459  000FC0  C09E  F094         	movff	___flmul@bexp,??___flmul
  5460  000FC4  6B95               	clrf	(??___flmul+1)& (0+255),b
  5461  000FC6  2794               	addwf	??___flmul& (0+255),f,b
  5462  000FC8  0E00               	movlw	0
  5463  000FCA  2395               	addwfc	(??___flmul+1)& (0+255),f,b
  5464  000FCC  0E82               	movlw	130
  5465  000FCE  2594               	addwf	??___flmul& (0+255),w,b
  5466  000FD0  6FA3               	movwf	___flmul@temp& (0+255),b
  5467  000FD2  0EFF               	movlw	255
  5468  000FD4  2195               	addwfc	(??___flmul+1)& (0+255),w,b
  5469  000FD6  6FA4               	movwf	(___flmul@temp+1)& (0+255),b
  5470  000FD8  EF03  F008         	goto	l3266
  5471  000FDC                     l3260:
  5472                           
  5473                           ; BSR set to: 0
  5474  000FDC  90D8               	bcf	status,0,c
  5475  000FDE  379F               	rlcf	___flmul@prod& (0+255),f,b
  5476  000FE0  37A0               	rlcf	(___flmul@prod+1)& (0+255),f,b
  5477  000FE2  37A1               	rlcf	(___flmul@prod+2)& (0+255),f,b
  5478  000FE4  37A2               	rlcf	(___flmul@prod+3)& (0+255),f,b
  5479  000FE6                     
  5480                           ; BSR set to: 0
  5481  000FE6  AF9C               	btfss	(___flmul@grs+3)& (0+255),7,b
  5482  000FE8  EFF8  F007         	goto	u3291
  5483  000FEC  EFFA  F007         	goto	u3290
  5484  000FF0                     u3291:
  5485  000FF0  EFFB  F007         	goto	l993
  5486  000FF4                     u3290:
  5487  000FF4                     
  5488                           ; BSR set to: 0
  5489  000FF4  819F               	bsf	___flmul@prod& (0+255),0,b
  5490  000FF6                     l993:
  5491                           
  5492                           ; BSR set to: 0
  5493  000FF6  90D8               	bcf	status,0,c
  5494  000FF8  3799               	rlcf	___flmul@grs& (0+255),f,b
  5495  000FFA  379A               	rlcf	(___flmul@grs+1)& (0+255),f,b
  5496  000FFC  379B               	rlcf	(___flmul@grs+2)& (0+255),f,b
  5497  000FFE  379C               	rlcf	(___flmul@grs+3)& (0+255),f,b
  5498  001000  07A3               	decf	___flmul@temp& (0+255),f,b
  5499  001002  A0D8               	btfss	status,0,c
  5500  001004  07A4               	decf	(___flmul@temp+1)& (0+255),f,b
  5501  001006                     l3266:
  5502                           
  5503                           ; BSR set to: 0
  5504  001006  AFA1               	btfss	(___flmul@prod+2)& (0+255),7,b
  5505  001008  EF08  F008         	goto	u3301
  5506  00100C  EF0A  F008         	goto	u3300
  5507  001010                     u3301:
  5508  001010  EFEE  F007         	goto	l3260
  5509  001014                     u3300:
  5510  001014                     
  5511                           ; BSR set to: 0
  5512  001014  0E00               	movlw	0
  5513  001016  6F9D               	movwf	___flmul@aexp& (0+255),b
  5514  001018                     
  5515                           ; BSR set to: 0
  5516  001018  AF9C               	btfss	(___flmul@grs+3)& (0+255),7,b
  5517  00101A  EF11  F008         	goto	u3311
  5518  00101E  EF13  F008         	goto	u3310
  5519  001022                     u3311:
  5520  001022  EF37  F008         	goto	l995
  5521  001026                     u3310:
  5522  001026                     
  5523                           ; BSR set to: 0
  5524  001026  0EFF               	movlw	255
  5525  001028  1599               	andwf	___flmul@grs& (0+255),w,b
  5526  00102A  6F94               	movwf	??___flmul& (0+255),b
  5527  00102C  0EFF               	movlw	255
  5528  00102E  159A               	andwf	(___flmul@grs+1)& (0+255),w,b
  5529  001030  6F95               	movwf	(??___flmul+1)& (0+255),b
  5530  001032  0EFF               	movlw	255
  5531  001034  159B               	andwf	(___flmul@grs+2)& (0+255),w,b
  5532  001036  6F96               	movwf	(??___flmul+2)& (0+255),b
  5533  001038  0E7F               	movlw	127
  5534  00103A  159C               	andwf	(___flmul@grs+3)& (0+255),w,b
  5535  00103C  6F97               	movwf	(??___flmul+3)& (0+255),b
  5536  00103E  5194               	movf	??___flmul& (0+255),w,b
  5537  001040  1195               	iorwf	(??___flmul+1)& (0+255),w,b
  5538  001042  1196               	iorwf	(??___flmul+2)& (0+255),w,b
  5539  001044  1197               	iorwf	(??___flmul+3)& (0+255),w,b
  5540  001046  B4D8               	btfsc	status,2,c
  5541  001048  EF28  F008         	goto	u3321
  5542  00104C  EF2A  F008         	goto	u3320
  5543  001050                     u3321:
  5544  001050  EF2E  F008         	goto	l996
  5545  001054                     u3320:
  5546  001054                     l3274:
  5547                           
  5548                           ; BSR set to: 0
  5549  001054  0E01               	movlw	1
  5550  001056  6F9D               	movwf	___flmul@aexp& (0+255),b
  5551  001058  EF37  F008         	goto	l995
  5552  00105C                     l996:
  5553                           
  5554                           ; BSR set to: 0
  5555  00105C  A19F               	btfss	___flmul@prod& (0+255),0,b
  5556  00105E  EF33  F008         	goto	u3331
  5557  001062  EF35  F008         	goto	u3330
  5558  001066                     u3331:
  5559  001066  EF37  F008         	goto	l995
  5560  00106A                     u3330:
  5561  00106A  EF2A  F008         	goto	l3274
  5562  00106E                     l995:
  5563                           
  5564                           ; BSR set to: 0
  5565  00106E  519D               	movf	___flmul@aexp& (0+255),w,b
  5566  001070  B4D8               	btfsc	status,2,c
  5567  001072  EF3D  F008         	goto	u3341
  5568  001076  EF3F  F008         	goto	u3340
  5569  00107A                     u3341:
  5570  00107A  EF63  F008         	goto	l3286
  5571  00107E                     u3340:
  5572  00107E                     
  5573                           ; BSR set to: 0
  5574  00107E  0E01               	movlw	1
  5575  001080  279F               	addwf	___flmul@prod& (0+255),f,b
  5576  001082  0E00               	movlw	0
  5577  001084  23A0               	addwfc	(___flmul@prod+1)& (0+255),f,b
  5578  001086  23A1               	addwfc	(___flmul@prod+2)& (0+255),f,b
  5579  001088  23A2               	addwfc	(___flmul@prod+3)& (0+255),f,b
  5580  00108A                     
  5581                           ; BSR set to: 0
  5582  00108A  A1A2               	btfss	(___flmul@prod+3)& (0+255),0,b
  5583  00108C  EF4A  F008         	goto	u3351
  5584  001090  EF4C  F008         	goto	u3350
  5585  001094                     u3351:
  5586  001094  EF63  F008         	goto	l3286
  5587  001098                     u3350:
  5588  001098                     
  5589                           ; BSR set to: 0
  5590  001098  C09F  F094         	movff	___flmul@prod,??___flmul
  5591  00109C  C0A0  F095         	movff	___flmul@prod+1,??___flmul+1
  5592  0010A0  C0A1  F096         	movff	___flmul@prod+2,??___flmul+2
  5593  0010A4  C0A2  F097         	movff	___flmul@prod+3,??___flmul+3
  5594  0010A8  3597               	rlcf	(??___flmul+3)& (0+255),w,b
  5595  0010AA  3397               	rrcf	(??___flmul+3)& (0+255),f,b
  5596  0010AC  3396               	rrcf	(??___flmul+2)& (0+255),f,b
  5597  0010AE  3395               	rrcf	(??___flmul+1)& (0+255),f,b
  5598  0010B0  3394               	rrcf	??___flmul& (0+255),f,b
  5599  0010B2  C094  F09F         	movff	??___flmul,___flmul@prod
  5600  0010B6  C095  F0A0         	movff	??___flmul+1,___flmul@prod+1
  5601  0010BA  C096  F0A1         	movff	??___flmul+2,___flmul@prod+2
  5602  0010BE  C097  F0A2         	movff	??___flmul+3,___flmul@prod+3
  5603  0010C2                     
  5604                           ; BSR set to: 0
  5605  0010C2  4BA3               	infsnz	___flmul@temp& (0+255),f,b
  5606  0010C4  2BA4               	incf	(___flmul@temp+1)& (0+255),f,b
  5607  0010C6                     l3286:
  5608                           
  5609                           ; BSR set to: 0
  5610  0010C6  BFA4               	btfsc	(___flmul@temp+1)& (0+255),7,b
  5611  0010C8  EF6E  F008         	goto	u3361
  5612  0010CC  51A4               	movf	(___flmul@temp+1)& (0+255),w,b
  5613  0010CE  E108               	bnz	u3360
  5614  0010D0  29A3               	incf	___flmul@temp& (0+255),w,b
  5615  0010D2  A0D8               	btfss	status,0,c
  5616  0010D4  EF6E  F008         	goto	u3361
  5617  0010D8  EF70  F008         	goto	u3360
  5618  0010DC                     u3361:
  5619  0010DC  EF7A  F008         	goto	l3290
  5620  0010E0                     u3360:
  5621  0010E0                     
  5622                           ; BSR set to: 0
  5623  0010E0  0E00               	movlw	0
  5624  0010E2  6F9F               	movwf	___flmul@prod& (0+255),b
  5625  0010E4  0E00               	movlw	0
  5626  0010E6  6FA0               	movwf	(___flmul@prod+1)& (0+255),b
  5627  0010E8  0E80               	movlw	128
  5628  0010EA  6FA1               	movwf	(___flmul@prod+2)& (0+255),b
  5629  0010EC  0E7F               	movlw	127
  5630  0010EE  6FA2               	movwf	(___flmul@prod+3)& (0+255),b
  5631  0010F0  EFA8  F008         	goto	l3302
  5632  0010F4                     l3290:
  5633                           
  5634                           ; BSR set to: 0
  5635  0010F4  BFA4               	btfsc	(___flmul@temp+1)& (0+255),7,b
  5636  0010F6  EF87  F008         	goto	u3370
  5637  0010FA  51A4               	movf	(___flmul@temp+1)& (0+255),w,b
  5638  0010FC  E106               	bnz	u3371
  5639  0010FE  05A3               	decf	___flmul@temp& (0+255),w,b
  5640  001100  B0D8               	btfsc	status,0,c
  5641  001102  EF85  F008         	goto	u3371
  5642  001106  EF87  F008         	goto	u3370
  5643  00110A                     u3371:
  5644  00110A  EF93  F008         	goto	l1003
  5645  00110E                     u3370:
  5646  00110E                     
  5647                           ; BSR set to: 0
  5648  00110E  0E00               	movlw	0
  5649  001110  6F9F               	movwf	___flmul@prod& (0+255),b
  5650  001112  0E00               	movlw	0
  5651  001114  6FA0               	movwf	(___flmul@prod+1)& (0+255),b
  5652  001116  0E00               	movlw	0
  5653  001118  6FA1               	movwf	(___flmul@prod+2)& (0+255),b
  5654  00111A  0E00               	movlw	0
  5655  00111C  6FA2               	movwf	(___flmul@prod+3)& (0+255),b
  5656  00111E  0E00               	movlw	0
  5657  001120  6F98               	movwf	___flmul@sign& (0+255),b
  5658  001122  EFA8  F008         	goto	l3302
  5659  001126                     l1003:
  5660                           
  5661                           ; BSR set to: 0
  5662  001126  C0A3  F09E         	movff	___flmul@temp,___flmul@bexp
  5663  00112A                     
  5664                           ; BSR set to: 0
  5665  00112A  0EFF               	movlw	255
  5666  00112C  179F               	andwf	___flmul@prod& (0+255),f,b
  5667  00112E  0EFF               	movlw	255
  5668  001130  17A0               	andwf	(___flmul@prod+1)& (0+255),f,b
  5669  001132  0E7F               	movlw	127
  5670  001134  17A1               	andwf	(___flmul@prod+2)& (0+255),f,b
  5671  001136  0E00               	movlw	0
  5672  001138  17A2               	andwf	(___flmul@prod+3)& (0+255),f,b
  5673  00113A                     
  5674                           ; BSR set to: 0
  5675  00113A  A19E               	btfss	___flmul@bexp& (0+255),0,b
  5676  00113C  EFA2  F008         	goto	u3381
  5677  001140  EFA4  F008         	goto	u3380
  5678  001144                     u3381:
  5679  001144  EFA5  F008         	goto	l3300
  5680  001148                     u3380:
  5681  001148                     
  5682                           ; BSR set to: 0
  5683  001148  8FA1               	bsf	(___flmul@prod+2)& (0+255),7,b
  5684  00114A                     l3300:
  5685                           
  5686                           ; BSR set to: 0
  5687  00114A  90D8               	bcf	status,0,c
  5688  00114C  319E               	rrcf	___flmul@bexp& (0+255),w,b
  5689  00114E  6FA2               	movwf	(___flmul@prod+3)& (0+255),b
  5690  001150                     l3302:
  5691                           
  5692                           ; BSR set to: 0
  5693  001150  5198               	movf	___flmul@sign& (0+255),w,b
  5694  001152  13A2               	iorwf	(___flmul@prod+3)& (0+255),f,b
  5695  001154                     
  5696                           ; BSR set to: 0
  5697  001154  C09F  F08C         	movff	___flmul@prod,?___flmul
  5698  001158  C0A0  F08D         	movff	___flmul@prod+1,?___flmul+1
  5699  00115C  C0A1  F08E         	movff	___flmul@prod+2,?___flmul+2
  5700  001160  C0A2  F08F         	movff	___flmul@prod+3,?___flmul+3
  5701  001164                     l990:
  5702                           
  5703                           ; BSR set to: 0
  5704  001164  0012               	return		;funcret
  5705  001166                     __end_of___flmul:
  5706                           	opt callstack 0
  5707                           
  5708 ;; *************** function _bitExtract *****************
  5709 ;; Defined at:
  5710 ;;		line 72 in file "./geral.h"
  5711 ;; Parameters:    Size  Location     Type
  5712 ;;  numero          2   30[BANK0 ] int 
  5713 ;;  k               2   32[BANK0 ] int 
  5714 ;;  p               2   34[BANK0 ] int 
  5715 ;; Auto vars:     Size  Location     Type
  5716 ;;		None
  5717 ;; Return value:  Size  Location     Type
  5718 ;;                  2   30[BANK0 ] int 
  5719 ;; Registers used:
  5720 ;;		wreg, status,2, status,0
  5721 ;; Tracked objects:
  5722 ;;		On entry : 0/0
  5723 ;;		On exit  : 0/0
  5724 ;;		Unchanged: 0/0
  5725 ;; Data sizes:     COMRAM   BANK0   BANK1   BANK2
  5726 ;;      Params:         0       6       0       0
  5727 ;;      Locals:         0       0       0       0
  5728 ;;      Temps:          0       8       0       0
  5729 ;;      Totals:         0      14       0       0
  5730 ;;Total ram usage:       14 bytes
  5731 ;; Hardware stack levels used:    1
  5732 ;; Hardware stack levels required when called:    6
  5733 ;; This function calls:
  5734 ;;		Nothing
  5735 ;; This function is called by:
  5736 ;;		_getAD_AN
  5737 ;;		_getAD_ANbit
  5738 ;;		_testeLampadas
  5739 ;; This function uses a non-reentrant model
  5740 ;;
  5741                           
  5742                           	psect	text23
  5743  0037F6                     __ptext23:
  5744                           	opt callstack 0
  5745  0037F6                     _bitExtract:
  5746                           	opt callstack 23
  5747  0037F6                     
  5748                           ;./geral.h: 73:         _delay((unsigned long)((20)*(20000000/4000.0)));
  5749  0037F6  C082  F084         	movff	bitExtract@p,??_bitExtract
  5750  0037FA  C07E  F085         	movff	bitExtract@numero,??_bitExtract+1
  5751  0037FE  C07F  F086         	movff	bitExtract@numero+1,??_bitExtract+2
  5752  003802  0100               	movlb	0	; () banked
  5753  003804  2B84               	incf	??_bitExtract& (0+255),f,b
  5754  003806  EF08  F01C         	goto	u4864
  5755  00380A                     u4865:
  5756  00380A  3586               	rlcf	(??_bitExtract+2)& (0+255),w,b
  5757  00380C  3386               	rrcf	(??_bitExtract+2)& (0+255),f,b
  5758  00380E  3385               	rrcf	(??_bitExtract+1)& (0+255),f,b
  5759  003810                     u4864:
  5760  003810  2F84               	decfsz	??_bitExtract& (0+255),f,b
  5761  003812  EF05  F01C         	goto	u4865
  5762  003816  0EFF               	movlw	255
  5763  003818  0100               	movlb	0	; () banked
  5764  00381A  6F87               	movwf	(??_bitExtract+3)& (0+255),b
  5765  00381C  0EFF               	movlw	255
  5766  00381E  6F88               	movwf	(??_bitExtract+4)& (0+255),b
  5767  003820  C080  F089         	movff	bitExtract@k,??_bitExtract+5
  5768  003824  0E01               	movlw	1
  5769  003826  6F8A               	movwf	(??_bitExtract+6)& (0+255),b
  5770  003828  0E00               	movlw	0
  5771  00382A  6F8B               	movwf	(??_bitExtract+7)& (0+255),b
  5772  00382C  2B89               	incf	(??_bitExtract+5)& (0+255),f,b
  5773  00382E  EF1C  F01C         	goto	u4874
  5774  003832                     u4875:
  5775  003832  90D8               	bcf	status,0,c
  5776  003834  378A               	rlcf	(??_bitExtract+6)& (0+255),f,b
  5777  003836  378B               	rlcf	(??_bitExtract+7)& (0+255),f,b
  5778  003838                     u4874:
  5779  003838  2F89               	decfsz	(??_bitExtract+5)& (0+255),f,b
  5780  00383A  EF19  F01C         	goto	u4875
  5781  00383E  0100               	movlb	0	; () banked
  5782  003840  5187               	movf	(??_bitExtract+3)& (0+255),w,b
  5783  003842  278A               	addwf	(??_bitExtract+6)& (0+255),f,b
  5784  003844  5188               	movf	(??_bitExtract+4)& (0+255),w,b
  5785  003846  238B               	addwfc	(??_bitExtract+7)& (0+255),f,b
  5786  003848  5185               	movf	(??_bitExtract+1)& (0+255),w,b
  5787  00384A  158A               	andwf	(??_bitExtract+6)& (0+255),w,b
  5788  00384C  6F7E               	movwf	?_bitExtract& (0+255),b
  5789  00384E  5186               	movf	(??_bitExtract+2)& (0+255),w,b
  5790  003850  158B               	andwf	(??_bitExtract+7)& (0+255),w,b
  5791  003852  6F7F               	movwf	(?_bitExtract+1)& (0+255),b
  5792  003854                     
  5793                           ; BSR set to: 0
  5794  003854  0012               	return		;funcret
  5795  003856                     __end_of_bitExtract:
  5796                           	opt callstack 0
  5797                           
  5798 ;; *************** function ___fltol *****************
  5799 ;; Defined at:
  5800 ;;		line 43 in file "C:\Program Files (x86)\Microchip\xc8\v2.10\pic\sources\c99\common\fltol.c"
  5801 ;; Parameters:    Size  Location     Type
  5802 ;;  f1              4   30[BANK0 ] int 
  5803 ;; Auto vars:     Size  Location     Type
  5804 ;;  exp1            1   39[BANK0 ] unsigned char 
  5805 ;;  sign1           1   38[BANK0 ] unsigned char 
  5806 ;; Return value:  Size  Location     Type
  5807 ;;                  4   30[BANK0 ] long 
  5808 ;; Registers used:
  5809 ;;		wreg, status,2, status,0
  5810 ;; Tracked objects:
  5811 ;;		On entry : 0/0
  5812 ;;		On exit  : 0/0
  5813 ;;		Unchanged: 0/0
  5814 ;; Data sizes:     COMRAM   BANK0   BANK1   BANK2
  5815 ;;      Params:         0       4       0       0
  5816 ;;      Locals:         0       2       0       0
  5817 ;;      Temps:          0       4       0       0
  5818 ;;      Totals:         0      10       0       0
  5819 ;;Total ram usage:       10 bytes
  5820 ;; Hardware stack levels used:    1
  5821 ;; Hardware stack levels required when called:    6
  5822 ;; This function calls:
  5823 ;;		Nothing
  5824 ;; This function is called by:
  5825 ;;		_getAD_AN
  5826 ;; This function uses a non-reentrant model
  5827 ;;
  5828                           
  5829                           	psect	text24
  5830  002B6E                     __ptext24:
  5831                           	opt callstack 0
  5832  002B6E                     ___fltol:
  5833                           	opt callstack 22
  5834  002B6E  0100               	movlb	0	; () banked
  5835  002B70  3580               	rlcf	(___fltol@f1+2)& (0+255),w,b
  5836  002B72  3581               	rlcf	(___fltol@f1+3)& (0+255),w,b
  5837  002B74  6F87               	movwf	___fltol@exp1& (0+255),b
  5838  002B76  5187               	movf	___fltol@exp1& (0+255),w,b
  5839  002B78  A4D8               	btfss	status,2,c
  5840  002B7A  EFC1  F015         	goto	u4111
  5841  002B7E  EFC3  F015         	goto	u4110
  5842  002B82                     u4111:
  5843  002B82  EFCD  F015         	goto	l3786
  5844  002B86                     u4110:
  5845  002B86                     l3782:
  5846                           
  5847                           ; BSR set to: 0
  5848  002B86  0E00               	movlw	0
  5849  002B88  6F7E               	movwf	?___fltol& (0+255),b
  5850  002B8A  0E00               	movlw	0
  5851  002B8C  6F7F               	movwf	(?___fltol+1)& (0+255),b
  5852  002B8E  0E00               	movlw	0
  5853  002B90  6F80               	movwf	(?___fltol+2)& (0+255),b
  5854  002B92  0E00               	movlw	0
  5855  002B94  6F81               	movwf	(?___fltol+3)& (0+255),b
  5856  002B96  EF3A  F016         	goto	l669
  5857  002B9A                     l3786:
  5858                           
  5859                           ; BSR set to: 0
  5860  002B9A  C07E  F082         	movff	___fltol@f1,??___fltol
  5861  002B9E  C07F  F083         	movff	___fltol@f1+1,??___fltol+1
  5862  002BA2  C080  F084         	movff	___fltol@f1+2,??___fltol+2
  5863  002BA6  C081  F085         	movff	___fltol@f1+3,??___fltol+3
  5864  002BAA  0E20               	movlw	32
  5865  002BAC  EFDD  F015         	goto	u4120
  5866  002BB0                     u4125:
  5867  002BB0  90D8               	bcf	status,0,c
  5868  002BB2  3385               	rrcf	(??___fltol+3)& (0+255),f,b
  5869  002BB4  3384               	rrcf	(??___fltol+2)& (0+255),f,b
  5870  002BB6  3383               	rrcf	(??___fltol+1)& (0+255),f,b
  5871  002BB8  3382               	rrcf	??___fltol& (0+255),f,b
  5872  002BBA                     u4120:
  5873  002BBA  2EE8               	decfsz	wreg,f,c
  5874  002BBC  EFD8  F015         	goto	u4125
  5875  002BC0  5182               	movf	??___fltol& (0+255),w,b
  5876  002BC2  6F86               	movwf	___fltol@sign1& (0+255),b
  5877  002BC4                     
  5878                           ; BSR set to: 0
  5879  002BC4  8F80               	bsf	(___fltol@f1+2)& (0+255),7,b
  5880  002BC6                     
  5881                           ; BSR set to: 0
  5882  002BC6  0EFF               	movlw	255
  5883  002BC8  177E               	andwf	___fltol@f1& (0+255),f,b
  5884  002BCA  0EFF               	movlw	255
  5885  002BCC  177F               	andwf	(___fltol@f1+1)& (0+255),f,b
  5886  002BCE  0EFF               	movlw	255
  5887  002BD0  1780               	andwf	(___fltol@f1+2)& (0+255),f,b
  5888  002BD2  0E00               	movlw	0
  5889  002BD4  1781               	andwf	(___fltol@f1+3)& (0+255),f,b
  5890  002BD6                     
  5891                           ; BSR set to: 0
  5892  002BD6  0E96               	movlw	150
  5893  002BD8  5F87               	subwf	___fltol@exp1& (0+255),f,b
  5894  002BDA                     
  5895                           ; BSR set to: 0
  5896  002BDA  BF87               	btfsc	___fltol@exp1& (0+255),7,b
  5897  002BDC  EFF4  F015         	goto	u4130
  5898  002BE0  EFF2  F015         	goto	u4131
  5899  002BE4                     u4131:
  5900  002BE4  EF0A  F016         	goto	l3806
  5901  002BE8                     u4130:
  5902  002BE8                     
  5903                           ; BSR set to: 0
  5904  002BE8  5187               	movf	___fltol@exp1& (0+255),w,b
  5905  002BEA  0A80               	xorlw	128
  5906  002BEC  0F97               	addlw	151
  5907  002BEE  B0D8               	btfsc	status,0,c
  5908  002BF0  EFFC  F015         	goto	u4141
  5909  002BF4  EFFE  F015         	goto	u4140
  5910  002BF8                     u4141:
  5911  002BF8  EF00  F016         	goto	l3802
  5912  002BFC                     u4140:
  5913  002BFC  EFC3  F015         	goto	l3782
  5914  002C00                     l3802:
  5915                           
  5916                           ; BSR set to: 0
  5917  002C00  90D8               	bcf	status,0,c
  5918  002C02  3381               	rrcf	(___fltol@f1+3)& (0+255),f,b
  5919  002C04  3380               	rrcf	(___fltol@f1+2)& (0+255),f,b
  5920  002C06  337F               	rrcf	(___fltol@f1+1)& (0+255),f,b
  5921  002C08  337E               	rrcf	___fltol@f1& (0+255),f,b
  5922  002C0A                     
  5923                           ; BSR set to: 0
  5924  002C0A  3F87               	incfsz	___fltol@exp1& (0+255),f,b
  5925  002C0C  EF00  F016         	goto	l3802
  5926  002C10  EF22  F016         	goto	l3816
  5927  002C14                     l3806:
  5928                           
  5929                           ; BSR set to: 0
  5930  002C14  0E1F               	movlw	31
  5931  002C16  6587               	cpfsgt	___fltol@exp1& (0+255),b
  5932  002C18  EF10  F016         	goto	u4151
  5933  002C1C  EF12  F016         	goto	u4150
  5934  002C20                     u4151:
  5935  002C20  EF1A  F016         	goto	l3814
  5936  002C24                     u4150:
  5937  002C24  EFC3  F015         	goto	l3782
  5938  002C28                     l3812:
  5939                           
  5940                           ; BSR set to: 0
  5941  002C28  90D8               	bcf	status,0,c
  5942  002C2A  377E               	rlcf	___fltol@f1& (0+255),f,b
  5943  002C2C  377F               	rlcf	(___fltol@f1+1)& (0+255),f,b
  5944  002C2E  3780               	rlcf	(___fltol@f1+2)& (0+255),f,b
  5945  002C30  3781               	rlcf	(___fltol@f1+3)& (0+255),f,b
  5946  002C32  0787               	decf	___fltol@exp1& (0+255),f,b
  5947  002C34                     l3814:
  5948                           
  5949                           ; BSR set to: 0
  5950  002C34  5187               	movf	___fltol@exp1& (0+255),w,b
  5951  002C36  A4D8               	btfss	status,2,c
  5952  002C38  EF20  F016         	goto	u4161
  5953  002C3C  EF22  F016         	goto	u4160
  5954  002C40                     u4161:
  5955  002C40  EF14  F016         	goto	l3812
  5956  002C44                     u4160:
  5957  002C44                     l3816:
  5958                           
  5959                           ; BSR set to: 0
  5960  002C44  5186               	movf	___fltol@sign1& (0+255),w,b
  5961  002C46  B4D8               	btfsc	status,2,c
  5962  002C48  EF28  F016         	goto	u4171
  5963  002C4C  EF2A  F016         	goto	u4170
  5964  002C50                     u4171:
  5965  002C50  EF32  F016         	goto	l3820
  5966  002C54                     u4170:
  5967  002C54                     
  5968                           ; BSR set to: 0
  5969  002C54  1F81               	comf	(___fltol@f1+3)& (0+255),f,b
  5970  002C56  1F80               	comf	(___fltol@f1+2)& (0+255),f,b
  5971  002C58  1F7F               	comf	(___fltol@f1+1)& (0+255),f,b
  5972  002C5A  6D7E               	negf	___fltol@f1& (0+255),b
  5973  002C5C  0E00               	movlw	0
  5974  002C5E  237F               	addwfc	(___fltol@f1+1)& (0+255),f,b
  5975  002C60  2380               	addwfc	(___fltol@f1+2)& (0+255),f,b
  5976  002C62  2381               	addwfc	(___fltol@f1+3)& (0+255),f,b
  5977  002C64                     l3820:
  5978                           
  5979                           ; BSR set to: 0
  5980  002C64  C07E  F07E         	movff	___fltol@f1,?___fltol
  5981  002C68  C07F  F07F         	movff	___fltol@f1+1,?___fltol+1
  5982  002C6C  C080  F080         	movff	___fltol@f1+2,?___fltol+2
  5983  002C70  C081  F081         	movff	___fltol@f1+3,?___fltol+3
  5984  002C74                     l669:
  5985                           
  5986                           ; BSR set to: 0
  5987  002C74  0012               	return		;funcret
  5988  002C76                     __end_of___fltol:
  5989                           	opt callstack 0
  5990                           
  5991 ;; *************** function _UARTSendString *****************
  5992 ;; Defined at:
  5993 ;;		line 57 in file "./bluetooth.h"
  5994 ;; Parameters:    Size  Location     Type
  5995 ;;  str             2   13[BANK1 ] PTR unsigned char 
  5996 ;;		 -> STR_52(2), STR_51(5), STR_50(5), STR_49(11), 
  5997 ;;		 -> STR_48(4), STR_47(3), STR_46(14), STR_45(13), 
  5998 ;;		 -> STR_44(10), STR_43(2), STR_42(11), STR_41(2), 
  5999 ;;		 -> STR_40(2), testeADbit@string(2), STR_39(2), STR_38(11), 
  6000 ;;		 -> STR_37(2), STR_36(6), STR_35(2), STR_34(6), 
  6001 ;;		 -> STR_33(2), STR_32(6), STR_31(2), STR_30(6), 
  6002 ;;		 -> STR_29(2), STR_28(6), STR_27(2), STR_26(6), 
  6003 ;;		 -> STR_25(2), STR_24(6), STR_23(2), STR_22(6), 
  6004 ;;		 -> STR_5(15), STR_2(14), STR_1(1), valorConvUARTbit@string(5), 
  6005 ;;		 -> valorConvUART@string(5), 
  6006 ;;  max_length      2   15[BANK1 ] const int 
  6007 ;; Auto vars:     Size  Location     Type
  6008 ;;  i               2   19[BANK1 ] int 
  6009 ;; Return value:  Size  Location     Type
  6010 ;;                  1    wreg      void 
  6011 ;; Registers used:
  6012 ;;		wreg, fsr2l, fsr2h, status,2, status,0, tblptrl, tblptrh, tblptru, cstack
  6013 ;; Tracked objects:
  6014 ;;		On entry : 0/0
  6015 ;;		On exit  : 0/0
  6016 ;;		Unchanged: 0/0
  6017 ;; Data sizes:     COMRAM   BANK0   BANK1   BANK2
  6018 ;;      Params:         0       0       4       0
  6019 ;;      Locals:         0       0       2       0
  6020 ;;      Temps:          0       0       2       0
  6021 ;;      Totals:         0       0       8       0
  6022 ;;Total ram usage:        8 bytes
  6023 ;; Hardware stack levels used:    1
  6024 ;; Hardware stack levels required when called:    8
  6025 ;; This function calls:
  6026 ;;		_UARTSendChar
  6027 ;;		_UARTWriteTest
  6028 ;; This function is called by:
  6029 ;;		_testeMotores
  6030 ;;		_testeAD
  6031 ;;		_testeADbit
  6032 ;;		_main
  6033 ;; This function uses a non-reentrant model
  6034 ;;
  6035                           
  6036                           	psect	text25
  6037  003248                     __ptext25:
  6038                           	opt callstack 0
  6039  003248                     _UARTSendString:
  6040                           	opt callstack 21
  6041  003248                     
  6042                           ;./bluetooth.h: 58:     int i = 0;
  6043  003248  0E00               	movlw	0
  6044  00324A  0101               	movlb	1	; () banked
  6045  00324C  6F76               	movwf	(UARTSendString@i+1)& (0+255),b
  6046  00324E  0E00               	movlw	0
  6047  003250  6F75               	movwf	UARTSendString@i& (0+255),b
  6048                           
  6049                           ;./bluetooth.h: 60:     for (i = 0; i < max_length; i++) {
  6050  003252  0E00               	movlw	0
  6051  003254  6F76               	movwf	(UARTSendString@i+1)& (0+255),b
  6052  003256  0E00               	movlw	0
  6053  003258  6F75               	movwf	UARTSendString@i& (0+255),b
  6054  00325A                     
  6055                           ; BSR set to: 1
  6056  00325A  BF72               	btfsc	(UARTSendString@max_length+1)& (0+255),7,b
  6057  00325C  EF3A  F019         	goto	u5110
  6058  003260  5172               	movf	(UARTSendString@max_length+1)& (0+255),w,b
  6059  003262  E106               	bnz	u5111
  6060  003264  0571               	decf	UARTSendString@max_length& (0+255),w,b
  6061  003266  B0D8               	btfsc	status,0,c
  6062  003268  EF38  F019         	goto	u5111
  6063  00326C  EF3A  F019         	goto	u5110
  6064  003270                     u5111:
  6065  003270  EF3C  F019         	goto	l4740
  6066  003274                     u5110:
  6067  003274  EF89  F019         	goto	l192
  6068  003278                     l4740:
  6069                           
  6070                           ; BSR set to: 1
  6071                           ;./bluetooth.h: 62:         if (str[i] == '\0') break;
  6072  003278  5175               	movf	UARTSendString@i& (0+255),w,b
  6073  00327A  256F               	addwf	UARTSendString@str& (0+255),w,b
  6074  00327C  6F73               	movwf	??_UARTSendString& (0+255),b
  6075  00327E  5176               	movf	(UARTSendString@i+1)& (0+255),w,b
  6076  003280  2170               	addwfc	(UARTSendString@str+1)& (0+255),w,b
  6077  003282  6F74               	movwf	(??_UARTSendString+1)& (0+255),b
  6078  003284  C173  FFF6         	movff	??_UARTSendString,tblptrl
  6079  003288  C174  FFF7         	movff	??_UARTSendString+1,tblptrh
  6080  00328C  6AF8               	clrf	tblptru,c
  6081  00328E  0E02               	movlw	(high __ramtop+-1)
  6082  003290  64F7               	cpfsgt	tblptrh,c
  6083  003292  D003               	bra	u5127
  6084  003294  0008               	tblrd		*
  6085  003296  50F5               	movf	tablat,w,c
  6086  003298  D005               	bra	u5120
  6087  00329A                     u5127:
  6088  00329A  CFF6 FFD9          	movff	tblptrl,fsr2l
  6089  00329E  CFF7 FFDA          	movff	tblptrh,fsr2h
  6090  0032A2  50DF               	movf	indf2,w,c
  6091  0032A4                     u5120:
  6092  0032A4  0900               	iorlw	0
  6093  0032A6  A4D8               	btfss	status,2,c
  6094  0032A8  EF58  F019         	goto	u5131
  6095  0032AC  EF5A  F019         	goto	u5130
  6096  0032B0                     u5131:
  6097  0032B0  EF5C  F019         	goto	l4744
  6098  0032B4                     u5130:
  6099  0032B4  EF89  F019         	goto	l192
  6100  0032B8                     l4744:
  6101                           
  6102                           ;./bluetooth.h: 63:         UARTSendChar(str[i]);
  6103  0032B8  0101               	movlb	1	; () banked
  6104  0032BA  5175               	movf	UARTSendString@i& (0+255),w,b
  6105  0032BC  256F               	addwf	UARTSendString@str& (0+255),w,b
  6106  0032BE  6F73               	movwf	??_UARTSendString& (0+255),b
  6107  0032C0  5176               	movf	(UARTSendString@i+1)& (0+255),w,b
  6108  0032C2  2170               	addwfc	(UARTSendString@str+1)& (0+255),w,b
  6109  0032C4  6F74               	movwf	(??_UARTSendString+1)& (0+255),b
  6110  0032C6  C173  FFF6         	movff	??_UARTSendString,tblptrl
  6111  0032CA  C174  FFF7         	movff	??_UARTSendString+1,tblptrh
  6112  0032CE  6AF8               	clrf	tblptru,c
  6113  0032D0  0E02               	movlw	(high __ramtop+-1)
  6114  0032D2  64F7               	cpfsgt	tblptrh,c
  6115  0032D4  D003               	bra	u5147
  6116  0032D6  0008               	tblrd		*
  6117  0032D8  50F5               	movf	tablat,w,c
  6118  0032DA  D005               	bra	u5140
  6119  0032DC                     u5147:
  6120  0032DC  CFF6 FFD9          	movff	tblptrl,fsr2l
  6121  0032E0  CFF7 FFDA          	movff	tblptrh,fsr2h
  6122  0032E4  50DF               	movf	indf2,w,c
  6123  0032E6                     u5140:
  6124  0032E6  EC2E  F01E         	call	_UARTSendChar
  6125  0032EA                     
  6126                           ;./bluetooth.h: 64:         UARTWriteTest();
  6127  0032EA  EC1E  F01E         	call	_UARTWriteTest	;wreg free
  6128  0032EE                     
  6129                           ;./bluetooth.h: 66:     }
  6130  0032EE  0101               	movlb	1	; () banked
  6131  0032F0  4B75               	infsnz	UARTSendString@i& (0+255),f,b
  6132  0032F2  2B76               	incf	(UARTSendString@i+1)& (0+255),f,b
  6133  0032F4                     
  6134                           ; BSR set to: 1
  6135  0032F4  5171               	movf	UARTSendString@max_length& (0+255),w,b
  6136  0032F6  5D75               	subwf	UARTSendString@i& (0+255),w,b
  6137  0032F8  5176               	movf	(UARTSendString@i+1)& (0+255),w,b
  6138  0032FA  0A80               	xorlw	128
  6139  0032FC  6F73               	movwf	??_UARTSendString& (0+255),b
  6140  0032FE  5172               	movf	(UARTSendString@max_length+1)& (0+255),w,b
  6141  003300  0A80               	xorlw	128
  6142  003302  5973               	subwfb	??_UARTSendString& (0+255),w,b
  6143  003304  A0D8               	btfss	status,0,c
  6144  003306  EF87  F019         	goto	u5151
  6145  00330A  EF89  F019         	goto	u5150
  6146  00330E                     u5151:
  6147  00330E  EF3C  F019         	goto	l4740
  6148  003312                     u5150:
  6149  003312                     l192:
  6150  003312  0012               	return		;funcret
  6151  003314                     __end_of_UARTSendString:
  6152                           	opt callstack 0
  6153                           
  6154 ;; *************** function _UARTSendChar *****************
  6155 ;; Defined at:
  6156 ;;		line 52 in file "./bluetooth.h"
  6157 ;; Parameters:    Size  Location     Type
  6158 ;;  c               1    wreg     unsigned char 
  6159 ;; Auto vars:     Size  Location     Type
  6160 ;;  c               1   30[BANK0 ] unsigned char 
  6161 ;; Return value:  Size  Location     Type
  6162 ;;                  1    wreg      void 
  6163 ;; Registers used:
  6164 ;;		wreg, cstack
  6165 ;; Tracked objects:
  6166 ;;		On entry : 0/0
  6167 ;;		On exit  : 0/0
  6168 ;;		Unchanged: 0/0
  6169 ;; Data sizes:     COMRAM   BANK0   BANK1   BANK2
  6170 ;;      Params:         0       0       0       0
  6171 ;;      Locals:         0       1       0       0
  6172 ;;      Temps:          0       0       0       0
  6173 ;;      Totals:         0       1       0       0
  6174 ;;Total ram usage:        1 bytes
  6175 ;; Hardware stack levels used:    1
  6176 ;; Hardware stack levels required when called:    7
  6177 ;; This function calls:
  6178 ;;		_UARTWriteTest
  6179 ;; This function is called by:
  6180 ;;		_UARTSendString
  6181 ;;		_main
  6182 ;; This function uses a non-reentrant model
  6183 ;;
  6184                           
  6185                           	psect	text26
  6186  003C5C                     __ptext26:
  6187                           	opt callstack 0
  6188  003C5C                     _UARTSendChar:
  6189                           	opt callstack 21
  6190                           
  6191                           ;incstack = 0
  6192                           ;UARTSendChar@c stored from wreg
  6193  003C5C  0100               	movlb	0	; () banked
  6194  003C5E  6F7E               	movwf	UARTSendChar@c& (0+255),b
  6195  003C60                     
  6196                           ;./bluetooth.h: 53:     TXREG = c;
  6197  003C60  C07E  FFAD         	movff	UARTSendChar@c,4013	;volatile
  6198  003C64                     
  6199                           ;./bluetooth.h: 54:     UARTWriteTest();
  6200  003C64  EC1E  F01E         	call	_UARTWriteTest	;wreg free
  6201  003C68  0012               	return		;funcret
  6202  003C6A                     __end_of_UARTSendChar:
  6203                           	opt callstack 0
  6204                           
  6205 ;; *************** function _UARTWriteTest *****************
  6206 ;; Defined at:
  6207 ;;		line 48 in file "./bluetooth.h"
  6208 ;; Parameters:    Size  Location     Type
  6209 ;;		None
  6210 ;; Auto vars:     Size  Location     Type
  6211 ;;		None
  6212 ;; Return value:  Size  Location     Type
  6213 ;;                  1    wreg      void 
  6214 ;; Registers used:
  6215 ;;		None
  6216 ;; Tracked objects:
  6217 ;;		On entry : 0/0
  6218 ;;		On exit  : 0/0
  6219 ;;		Unchanged: 0/0
  6220 ;; Data sizes:     COMRAM   BANK0   BANK1   BANK2
  6221 ;;      Params:         0       0       0       0
  6222 ;;      Locals:         0       0       0       0
  6223 ;;      Temps:          0       0       0       0
  6224 ;;      Totals:         0       0       0       0
  6225 ;;Total ram usage:        0 bytes
  6226 ;; Hardware stack levels used:    1
  6227 ;; Hardware stack levels required when called:    6
  6228 ;; This function calls:
  6229 ;;		Nothing
  6230 ;; This function is called by:
  6231 ;;		_UARTSendChar
  6232 ;;		_UARTSendString
  6233 ;; This function uses a non-reentrant model
  6234 ;;
  6235                           
  6236                           	psect	text27
  6237  003C3C                     __ptext27:
  6238                           	opt callstack 0
  6239  003C3C                     _UARTWriteTest:
  6240                           	opt callstack 22
  6241  003C3C                     l180:
  6242  003C3C  A2AC               	btfss	4012,1,c	;volatile
  6243  003C3E  EF23  F01E         	goto	u4851
  6244  003C42  EF25  F01E         	goto	u4850
  6245  003C46                     u4851:
  6246  003C46  EF1E  F01E         	goto	l180
  6247  003C4A                     u4850:
  6248  003C4A  0012               	return		;funcret
  6249  003C4C                     __end_of_UARTWriteTest:
  6250                           	opt callstack 0
  6251                           
  6252 ;; *************** function _initTimer0 *****************
  6253 ;; Defined at:
  6254 ;;		line 10 in file "./Timer0.h"
  6255 ;; Parameters:    Size  Location     Type
  6256 ;;  tempoInicial    2   30[BANK0 ] int 
  6257 ;; Auto vars:     Size  Location     Type
  6258 ;;		None
  6259 ;; Return value:  Size  Location     Type
  6260 ;;                  1    wreg      void 
  6261 ;; Registers used:
  6262 ;;		wreg, status,2
  6263 ;; Tracked objects:
  6264 ;;		On entry : 0/0
  6265 ;;		On exit  : 0/0
  6266 ;;		Unchanged: 0/0
  6267 ;; Data sizes:     COMRAM   BANK0   BANK1   BANK2
  6268 ;;      Params:         0       2       0       0
  6269 ;;      Locals:         0       0       0       0
  6270 ;;      Temps:          0       0       0       0
  6271 ;;      Totals:         0       2       0       0
  6272 ;;Total ram usage:        2 bytes
  6273 ;; Hardware stack levels used:    1
  6274 ;; Hardware stack levels required when called:    6
  6275 ;; This function calls:
  6276 ;;		Nothing
  6277 ;; This function is called by:
  6278 ;;		_main
  6279 ;; This function uses a non-reentrant model
  6280 ;;
  6281                           
  6282                           	psect	text28
  6283  003C76                     __ptext28:
  6284                           	opt callstack 0
  6285  003C76                     _initTimer0:
  6286                           	opt callstack 24
  6287  003C76                     
  6288                           ;./Timer0.h: 13:     T0CON = 0b11010100;
  6289  003C76  0ED4               	movlw	212
  6290  003C78  6ED5               	movwf	213,c	;volatile
  6291  003C7A                     
  6292                           ;./Timer0.h: 14:     TMR0L = tempoInicial;
  6293  003C7A  C07E  FFD6         	movff	initTimer0@tempoInicial,4054	;volatile
  6294  003C7E  0012               	return		;funcret
  6295  003C80                     __end_of_initTimer0:
  6296                           	opt callstack 0
  6297                           
  6298 ;; *************** function _configUSART *****************
  6299 ;; Defined at:
  6300 ;;		line 9 in file "./bluetooth.h"
  6301 ;; Parameters:    Size  Location     Type
  6302 ;;		None
  6303 ;; Auto vars:     Size  Location     Type
  6304 ;;		None
  6305 ;; Return value:  Size  Location     Type
  6306 ;;                  1    wreg      void 
  6307 ;; Registers used:
  6308 ;;		wreg, status,2
  6309 ;; Tracked objects:
  6310 ;;		On entry : 0/0
  6311 ;;		On exit  : 0/0
  6312 ;;		Unchanged: 0/0
  6313 ;; Data sizes:     COMRAM   BANK0   BANK1   BANK2
  6314 ;;      Params:         0       0       0       0
  6315 ;;      Locals:         0       0       0       0
  6316 ;;      Temps:          0       0       0       0
  6317 ;;      Totals:         0       0       0       0
  6318 ;;Total ram usage:        0 bytes
  6319 ;; Hardware stack levels used:    1
  6320 ;; Hardware stack levels required when called:    6
  6321 ;; This function calls:
  6322 ;;		Nothing
  6323 ;; This function is called by:
  6324 ;;		_main
  6325 ;; This function uses a non-reentrant model
  6326 ;;
  6327                           
  6328                           	psect	text29
  6329  003C1E                     __ptext29:
  6330                           	opt callstack 0
  6331  003C1E                     _configUSART:
  6332                           	opt callstack 24
  6333  003C1E                     
  6334                           ;./bluetooth.h: 10:     SPBRG = 0x81;
  6335  003C1E  0E81               	movlw	129
  6336  003C20  6EAF               	movwf	175,c	;volatile
  6337  003C22                     
  6338                           ;./bluetooth.h: 22:     TXSTAbits.BRGH = 1;
  6339  003C22  84AC               	bsf	172,2,c	;volatile
  6340  003C24                     
  6341                           ;./bluetooth.h: 24:     TXSTAbits.SYNC = 0;
  6342  003C24  98AC               	bcf	172,4,c	;volatile
  6343  003C26                     
  6344                           ;./bluetooth.h: 25:     TXSTAbits.TX9 = 0;
  6345  003C26  9CAC               	bcf	172,6,c	;volatile
  6346  003C28                     
  6347                           ;./bluetooth.h: 26:     TXSTAbits.TXEN = 1;
  6348  003C28  8AAC               	bsf	172,5,c	;volatile
  6349  003C2A                     
  6350                           ;./bluetooth.h: 27:     PIE1bits.TXIE = 0;
  6351  003C2A  989D               	bcf	157,4,c	;volatile
  6352  003C2C                     
  6353                           ;./bluetooth.h: 29:     RCSTAbits.SPEN = 1;
  6354  003C2C  8EAB               	bsf	171,7,c	;volatile
  6355  003C2E                     
  6356                           ;./bluetooth.h: 30:     RCSTAbits.RX9 = 0;
  6357  003C2E  9CAB               	bcf	171,6,c	;volatile
  6358  003C30                     
  6359                           ;./bluetooth.h: 31:     RCSTAbits.CREN = 1;
  6360  003C30  88AB               	bsf	171,4,c	;volatile
  6361  003C32                     
  6362                           ;./bluetooth.h: 32:     TRISCbits.TRISC6 = 0;
  6363  003C32  9C94               	bcf	148,6,c	;volatile
  6364  003C34                     
  6365                           ;./bluetooth.h: 33:     TRISCbits.TRISC7 = 1;
  6366  003C34  8E94               	bsf	148,7,c	;volatile
  6367  003C36                     
  6368                           ;./bluetooth.h: 35:     PIR1bits.RCIF = 0;
  6369  003C36  9A9E               	bcf	158,5,c	;volatile
  6370  003C38                     
  6371                           ;./bluetooth.h: 36:     PIE1bits.RCIE = 1;
  6372  003C38  8A9D               	bsf	157,5,c	;volatile
  6373  003C3A  0012               	return		;funcret
  6374  003C3C                     __end_of_configUSART:
  6375                           	opt callstack 0
  6376                           
  6377 ;; *************** function _configPWM *****************
  6378 ;; Defined at:
  6379 ;;		line 9 in file "./PWM.h"
  6380 ;; Parameters:    Size  Location     Type
  6381 ;;		None
  6382 ;; Auto vars:     Size  Location     Type
  6383 ;;		None
  6384 ;; Return value:  Size  Location     Type
  6385 ;;                  1    wreg      void 
  6386 ;; Registers used:
  6387 ;;		wreg, status,2
  6388 ;; Tracked objects:
  6389 ;;		On entry : 0/0
  6390 ;;		On exit  : 0/0
  6391 ;;		Unchanged: 0/0
  6392 ;; Data sizes:     COMRAM   BANK0   BANK1   BANK2
  6393 ;;      Params:         0       0       0       0
  6394 ;;      Locals:         0       0       0       0
  6395 ;;      Temps:          0       0       0       0
  6396 ;;      Totals:         0       0       0       0
  6397 ;;Total ram usage:        0 bytes
  6398 ;; Hardware stack levels used:    1
  6399 ;; Hardware stack levels required when called:    6
  6400 ;; This function calls:
  6401 ;;		Nothing
  6402 ;; This function is called by:
  6403 ;;		_main
  6404 ;; This function uses a non-reentrant model
  6405 ;;
  6406                           
  6407                           	psect	text30
  6408  003BB6                     __ptext30:
  6409                           	opt callstack 0
  6410  003BB6                     _configPWM:
  6411                           	opt callstack 24
  6412  003BB6                     
  6413                           ;./PWM.h: 11:     PTCON0 = 0b00000000;
  6414  003BB6  0E00               	movlw	0
  6415  003BB8  6E7F               	movwf	127,c	;volatile
  6416                           
  6417                           ;./PWM.h: 12:     PTCON1 = 0b10000000;
  6418  003BBA  0E80               	movlw	128
  6419  003BBC  6E7E               	movwf	126,c	;volatile
  6420                           
  6421                           ;./PWM.h: 13:     PWMCON0 = 0b01011111;
  6422  003BBE  0E5F               	movlw	95
  6423  003BC0  6E6F               	movwf	111,c	;volatile
  6424                           
  6425                           ;./PWM.h: 14:     PWMCON1 = 0b00000001;
  6426  003BC2  0E01               	movlw	1
  6427  003BC4  6E6E               	movwf	110,c	;volatile
  6428                           
  6429                           ;./PWM.h: 15:     DTCON = 0b00010000;
  6430  003BC6  0E10               	movlw	16
  6431  003BC8  6E6D               	movwf	109,c	;volatile
  6432  003BCA                     
  6433                           ;./PWM.h: 16:     OVDCOND = 0b11111111;
  6434  003BCA  686B               	setf	107,c	;volatile
  6435                           
  6436                           ;./PWM.h: 17:     OVDCONS = 0b00000000;
  6437  003BCC  0E00               	movlw	0
  6438  003BCE  6E6A               	movwf	106,c	;volatile
  6439                           
  6440                           ;./PWM.h: 18:     PTPERL = 0b10010110;
  6441  003BD0  0E96               	movlw	150
  6442  003BD2  6E7B               	movwf	123,c	;volatile
  6443                           
  6444                           ;./PWM.h: 19:     PTPERH = 0b00000000;
  6445  003BD4  0E00               	movlw	0
  6446  003BD6  6E7A               	movwf	122,c	;volatile
  6447  003BD8  0012               	return		;funcret
  6448  003BDA                     __end_of_configPWM:
  6449                           	opt callstack 0
  6450                           
  6451 ;; *************** function _configBits *****************
  6452 ;; Defined at:
  6453 ;;		line 11 in file "./geral.h"
  6454 ;; Parameters:    Size  Location     Type
  6455 ;;		None
  6456 ;; Auto vars:     Size  Location     Type
  6457 ;;		None
  6458 ;; Return value:  Size  Location     Type
  6459 ;;                  1    wreg      void 
  6460 ;; Registers used:
  6461 ;;		None
  6462 ;; Tracked objects:
  6463 ;;		On entry : 0/0
  6464 ;;		On exit  : 0/0
  6465 ;;		Unchanged: 0/0
  6466 ;; Data sizes:     COMRAM   BANK0   BANK1   BANK2
  6467 ;;      Params:         0       0       0       0
  6468 ;;      Locals:         0       0       0       0
  6469 ;;      Temps:          0       0       0       0
  6470 ;;      Totals:         0       0       0       0
  6471 ;;Total ram usage:        0 bytes
  6472 ;; Hardware stack levels used:    1
  6473 ;; Hardware stack levels required when called:    6
  6474 ;; This function calls:
  6475 ;;		Nothing
  6476 ;; This function is called by:
  6477 ;;		_main
  6478 ;; This function uses a non-reentrant model
  6479 ;;
  6480                           
  6481                           	psect	text31
  6482  003CA2                     __ptext31:
  6483                           	opt callstack 0
  6484  003CA2                     _configBits:
  6485                           	opt callstack 24
  6486  003CA2  0012               	return		;funcret
  6487  003CA4                     __end_of_configBits:
  6488                           	opt callstack 0
  6489                           
  6490 ;; *************** function _configAD *****************
  6491 ;; Defined at:
  6492 ;;		line 8 in file "./ADC.h"
  6493 ;; Parameters:    Size  Location     Type
  6494 ;;		None
  6495 ;; Auto vars:     Size  Location     Type
  6496 ;;		None
  6497 ;; Return value:  Size  Location     Type
  6498 ;;                  1    wreg      void 
  6499 ;; Registers used:
  6500 ;;		wreg, status,2
  6501 ;; Tracked objects:
  6502 ;;		On entry : 0/0
  6503 ;;		On exit  : 0/0
  6504 ;;		Unchanged: 0/0
  6505 ;; Data sizes:     COMRAM   BANK0   BANK1   BANK2
  6506 ;;      Params:         0       0       0       0
  6507 ;;      Locals:         0       0       0       0
  6508 ;;      Temps:          0       0       0       0
  6509 ;;      Totals:         0       0       0       0
  6510 ;;Total ram usage:        0 bytes
  6511 ;; Hardware stack levels used:    1
  6512 ;; Hardware stack levels required when called:    6
  6513 ;; This function calls:
  6514 ;;		Nothing
  6515 ;; This function is called by:
  6516 ;;		_main
  6517 ;; This function uses a non-reentrant model
  6518 ;;
  6519                           
  6520                           	psect	text32
  6521  003BDA                     __ptext32:
  6522                           	opt callstack 0
  6523  003BDA                     _configAD:
  6524                           	opt callstack 24
  6525  003BDA                     
  6526                           ;./ADC.h: 10:     ADCON1bits.VCFG0 = 0;
  6527  003BDA  9CC1               	bcf	193,6,c	;volatile
  6528                           
  6529                           ;./ADC.h: 11:     ADCON1bits.VCFG1 = 0;
  6530  003BDC  9EC1               	bcf	193,7,c	;volatile
  6531                           
  6532                           ;./ADC.h: 15:     ADCON0bits.ACONV = 0;
  6533  003BDE  9AC2               	bcf	194,5,c	;volatile
  6534                           
  6535                           ;./ADC.h: 16:     ADCON0bits.ACSCH = 0;
  6536  003BE0  98C2               	bcf	194,4,c	;volatile
  6537  003BE2                     
  6538                           ;./ADC.h: 18:     ADCON0bits.ACMOD = 0b00;
  6539  003BE2  0EF3               	movlw	-13
  6540  003BE4  16C2               	andwf	194,f,c	;volatile
  6541  003BE6                     
  6542                           ;./ADC.h: 20:     ADCON2bits.ADFM = 1;
  6543  003BE6  8EC0               	bsf	192,7,c	;volatile
  6544                           
  6545                           ;./ADC.h: 22:     ADCON2bits.ACQT = 0b0110;
  6546  003BE8  50C0               	movf	192,w,c	;volatile
  6547  003BEA  0B87               	andlw	-121
  6548  003BEC  0930               	iorlw	48
  6549  003BEE  6EC0               	movwf	192,c	;volatile
  6550                           
  6551                           ;./ADC.h: 23:     ADCON2bits.ADCS = 0b101;
  6552  003BF0  50C0               	movf	192,w,c	;volatile
  6553  003BF2  0BF8               	andlw	-8
  6554  003BF4  0905               	iorlw	5
  6555  003BF6  6EC0               	movwf	192,c	;volatile
  6556                           
  6557                           ;./ADC.h: 29:     ADCON3 = 0b00000000;
  6558  003BF8  0E00               	movlw	0
  6559  003BFA  6E9A               	movwf	154,c	;volatile
  6560  003BFC  0012               	return		;funcret
  6561  003BFE                     __end_of_configAD:
  6562                           	opt callstack 0
  6563                           
  6564 ;; *************** function _UARTReadChar *****************
  6565 ;; Defined at:
  6566 ;;		line 43 in file "./bluetooth.h"
  6567 ;; Parameters:    Size  Location     Type
  6568 ;;		None
  6569 ;; Auto vars:     Size  Location     Type
  6570 ;;  ler             1   30[BANK0 ] unsigned char 
  6571 ;; Return value:  Size  Location     Type
  6572 ;;                  1    wreg      unsigned char 
  6573 ;; Registers used:
  6574 ;;		wreg, status,2
  6575 ;; Tracked objects:
  6576 ;;		On entry : 0/0
  6577 ;;		On exit  : 0/0
  6578 ;;		Unchanged: 0/0
  6579 ;; Data sizes:     COMRAM   BANK0   BANK1   BANK2
  6580 ;;      Params:         0       0       0       0
  6581 ;;      Locals:         0       1       0       0
  6582 ;;      Temps:          0       0       0       0
  6583 ;;      Totals:         0       1       0       0
  6584 ;;Total ram usage:        1 bytes
  6585 ;; Hardware stack levels used:    1
  6586 ;; Hardware stack levels required when called:    6
  6587 ;; This function calls:
  6588 ;;		Nothing
  6589 ;; This function is called by:
  6590 ;;		_main
  6591 ;; This function uses a non-reentrant model
  6592 ;;
  6593                           
  6594                           	psect	text33
  6595  003C80                     __ptext33:
  6596                           	opt callstack 0
  6597  003C80                     _UARTReadChar:
  6598                           	opt callstack 24
  6599  003C80                     
  6600                           ;./bluetooth.h: 44:     char ler = RCREG;
  6601  003C80  CFAE F07E          	movff	4014,UARTReadChar@ler	;volatile
  6602  003C84                     
  6603                           ;./bluetooth.h: 45:     return ler;
  6604  003C84  0100               	movlb	0	; () banked
  6605  003C86  517E               	movf	UARTReadChar@ler& (0+255),w,b
  6606  003C88                     
  6607                           ; BSR set to: 0
  6608  003C88  0012               	return		;funcret
  6609  003C8A                     __end_of_UARTReadChar:
  6610                           	opt callstack 0
  6611                           
  6612 ;; *************** function _ISR *****************
  6613 ;; Defined at:
  6614 ;;		line 25 in file "main.c"
  6615 ;; Parameters:    Size  Location     Type
  6616 ;;		None
  6617 ;; Auto vars:     Size  Location     Type
  6618 ;;		None
  6619 ;; Return value:  Size  Location     Type
  6620 ;;                  1    wreg      void 
  6621 ;; Registers used:
  6622 ;;		wreg, fsr2l, fsr2h, status,2, status,0, tblptrl, tblptrh, tblptru, prodl, prodh, cstack
  6623 ;; Tracked objects:
  6624 ;;		On entry : 0/0
  6625 ;;		On exit  : 0/0
  6626 ;;		Unchanged: 0/0
  6627 ;; Data sizes:     COMRAM   BANK0   BANK1   BANK2
  6628 ;;      Params:         0       0       0       0
  6629 ;;      Locals:         0       0       0       0
  6630 ;;      Temps:          0       8       0       0
  6631 ;;      Totals:         0       8       0       0
  6632 ;;Total ram usage:        8 bytes
  6633 ;; Hardware stack levels used:    1
  6634 ;; Hardware stack levels required when called:    5
  6635 ;; This function calls:
  6636 ;;		_ligaTimer0
  6637 ;;		_setEstrategia
  6638 ;;		_setPID
  6639 ;;		i2_UARTSendString
  6640 ;;		i2_setDutyPWM0
  6641 ;;		i2_setDutyPWM2
  6642 ;;		i2_setDutyPWM4
  6643 ;;		i2_setDutyPWM6
  6644 ;; This function is called by:
  6645 ;;		Interrupt level 2
  6646 ;; This function uses a non-reentrant model
  6647 ;;
  6648                           
  6649                           	psect	intcode
  6650  000008                     __pintcode:
  6651                           	opt callstack 0
  6652  000008                     _ISR:
  6653                           	opt callstack 21
  6654                           
  6655                           ; BSR set to: 0
  6656                           ;incstack = 0
  6657  000008  825F               	bsf	int$flags,1,c	;set compiler interrupt flag (level 2)
  6658  00000A  CFD9 F076          	movff	fsr2l,??_ISR
  6659  00000E  CFDA F077          	movff	fsr2h,??_ISR+1
  6660  000012  CFF3 F078          	movff	prodl,??_ISR+2
  6661  000016  CFF4 F079          	movff	prodh,??_ISR+3
  6662  00001A  CFF6 F07A          	movff	tblptrl,??_ISR+4
  6663  00001E  CFF7 F07B          	movff	tblptrh,??_ISR+5
  6664  000022  CFF8 F07C          	movff	tblptru,??_ISR+6
  6665  000026  CFF5 F07D          	movff	tablat,??_ISR+7
  6666  00002A                     
  6667                           ;main.c: 27:     if (TMR0IF) {
  6668  00002A  A4F2               	btfss	4082,2,c	;volatile
  6669  00002C  EF1A  F000         	goto	i2u548_41
  6670  000030  EF1C  F000         	goto	i2u548_40
  6671  000034                     i2u548_41:
  6672  000034  EF26  F000         	goto	i2l5040
  6673  000038                     i2u548_40:
  6674  000038                     
  6675                           ;main.c: 28:         TMR0L = 99;
  6676  000038  0E63               	movlw	99
  6677  00003A  6ED6               	movwf	214,c	;volatile
  6678  00003C                     
  6679                           ;main.c: 29:         millis++;
  6680  00003C  0E01               	movlw	1
  6681  00003E  0100               	movlb	0	; () banked
  6682  000040  27CD               	addwf	_millis& (0+255),f,b
  6683  000042  0E00               	movlw	0
  6684  000044  23CE               	addwfc	(_millis+1)& (0+255),f,b
  6685  000046  23CF               	addwfc	(_millis+2)& (0+255),f,b
  6686  000048  23D0               	addwfc	(_millis+3)& (0+255),f,b
  6687  00004A                     
  6688                           ; BSR set to: 0
  6689                           ;main.c: 30:         TMR0IF = 0;
  6690  00004A  94F2               	bcf	4082,2,c	;volatile
  6691  00004C                     i2l5040:
  6692                           
  6693                           ;main.c: 33:     if (PIR1bits.RCIF) {
  6694  00004C  AA9E               	btfss	158,5,c	;volatile
  6695  00004E  EF2B  F000         	goto	i2u549_41
  6696  000052  EF2D  F000         	goto	i2u549_40
  6697  000056                     i2u549_41:
  6698  000056  EF47  F001         	goto	i2l356
  6699  00005A                     i2u549_40:
  6700  00005A                     
  6701                           ;main.c: 35:         if (RCSTAbits.FERR || RCSTAbits.OERR) {
  6702  00005A  B4AB               	btfsc	171,2,c	;volatile
  6703  00005C  EF32  F000         	goto	i2u550_41
  6704  000060  EF34  F000         	goto	i2u550_40
  6705  000064                     i2u550_41:
  6706  000064  EF3B  F000         	goto	i2l345
  6707  000068                     i2u550_40:
  6708  000068  A2AB               	btfss	171,1,c	;volatile
  6709  00006A  EF39  F000         	goto	i2u551_41
  6710  00006E  EF3B  F000         	goto	i2u551_40
  6711  000072                     i2u551_41:
  6712  000072  EF3E  F000         	goto	i2l5046
  6713  000076                     i2u551_40:
  6714  000076                     i2l345:
  6715                           
  6716                           ;main.c: 36:             RCSTAbits.OERR = 1;
  6717  000076  82AB               	bsf	171,1,c	;volatile
  6718                           
  6719                           ;main.c: 37:             RCSTAbits.CREN = 0;
  6720  000078  98AB               	bcf	171,4,c	;volatile
  6721                           
  6722                           ;main.c: 38:             RCSTAbits.CREN = 1;
  6723  00007A  88AB               	bsf	171,4,c	;volatile
  6724  00007C                     i2l5046:
  6725                           
  6726                           ;main.c: 41:         if (RCREG == '1') {
  6727  00007C  0E31               	movlw	49
  6728  00007E  18AE               	xorwf	174,w,c	;volatile
  6729  000080  A4D8               	btfss	status,2,c
  6730  000082  EF45  F000         	goto	i2u552_41
  6731  000086  EF47  F000         	goto	i2u552_40
  6732  00008A                     i2u552_41:
  6733  00008A  EF53  F000         	goto	i2l5052
  6734  00008E                     i2u552_40:
  6735  00008E                     
  6736                           ;main.c: 42:             ligaTimer0();
  6737  00008E  EC4F  F01E         	call	_ligaTimer0	;wreg free
  6738  000092                     
  6739                           ;main.c: 43:             UARTSendString("Timer0 on", 16);
  6740  000092  0E4F               	movlw	low STR_44
  6741  000094  6E02               	movwf	i2UARTSendString@str^0,c
  6742  000096  0E03               	movlw	high STR_44
  6743  000098  6E03               	movwf	(i2UARTSendString@str+1)^0,c
  6744  00009A  0E00               	movlw	0
  6745  00009C  6E05               	movwf	(i2UARTSendString@max_length+1)^0,c
  6746  00009E  0E10               	movlw	16
  6747  0000A0  6E04               	movwf	i2UARTSendString@max_length^0,c
  6748  0000A2  ECA5  F01A         	call	i2_UARTSendString	;wreg free
  6749  0000A6                     i2l5052:
  6750                           
  6751                           ;main.c: 46:         if (RCREG == 'a') {
  6752  0000A6  0E61               	movlw	97
  6753  0000A8  18AE               	xorwf	174,w,c	;volatile
  6754  0000AA  A4D8               	btfss	status,2,c
  6755  0000AC  EF5A  F000         	goto	i2u553_41
  6756  0000B0  EF5C  F000         	goto	i2u553_40
  6757  0000B4                     i2u553_41:
  6758  0000B4  EF6C  F000         	goto	i2l5058
  6759  0000B8                     i2u553_40:
  6760  0000B8                     
  6761                           ;main.c: 47:             setEstrategia("testeMotores");
  6762  0000B8  0E2C               	movlw	low STR_45
  6763  0000BA  6E01               	movwf	setEstrategia@c^0,c
  6764  0000BC  0E03               	movlw	high STR_45
  6765  0000BE  6E02               	movwf	(setEstrategia@c+1)^0,c
  6766  0000C0  EC45  F01E         	call	_setEstrategia	;wreg free
  6767  0000C4                     
  6768                           ;main.c: 48:             UARTSendString(comando, 16);
  6769  0000C4  C0DF  F002         	movff	_comando,i2UARTSendString@str
  6770  0000C8  C0E0  F003         	movff	_comando+1,i2UARTSendString@str+1
  6771  0000CC  0E00               	movlw	0
  6772  0000CE  6E05               	movwf	(i2UARTSendString@max_length+1)^0,c
  6773  0000D0  0E10               	movlw	16
  6774  0000D2  6E04               	movwf	i2UARTSendString@max_length^0,c
  6775  0000D4  ECA5  F01A         	call	i2_UARTSendString	;wreg free
  6776  0000D8                     i2l5058:
  6777                           
  6778                           ;main.c: 51:         if (RCREG == 'b') {
  6779  0000D8  0E62               	movlw	98
  6780  0000DA  18AE               	xorwf	174,w,c	;volatile
  6781  0000DC  A4D8               	btfss	status,2,c
  6782  0000DE  EF73  F000         	goto	i2u554_41
  6783  0000E2  EF75  F000         	goto	i2u554_40
  6784  0000E6                     i2u554_41:
  6785  0000E6  EF85  F000         	goto	i2l5064
  6786  0000EA                     i2u554_40:
  6787  0000EA                     
  6788                           ;main.c: 52:             setEstrategia("testeLampadas");
  6789  0000EA  0E1E               	movlw	low STR_46
  6790  0000EC  6E01               	movwf	setEstrategia@c^0,c
  6791  0000EE  0E03               	movlw	high STR_46
  6792  0000F0  6E02               	movwf	(setEstrategia@c+1)^0,c
  6793  0000F2  EC45  F01E         	call	_setEstrategia	;wreg free
  6794  0000F6                     
  6795                           ;main.c: 53:             UARTSendString(comando, 16);
  6796  0000F6  C0DF  F002         	movff	_comando,i2UARTSendString@str
  6797  0000FA  C0E0  F003         	movff	_comando+1,i2UARTSendString@str+1
  6798  0000FE  0E00               	movlw	0
  6799  000100  6E05               	movwf	(i2UARTSendString@max_length+1)^0,c
  6800  000102  0E10               	movlw	16
  6801  000104  6E04               	movwf	i2UARTSendString@max_length^0,c
  6802  000106  ECA5  F01A         	call	i2_UARTSendString	;wreg free
  6803  00010A                     i2l5064:
  6804                           
  6805                           ;main.c: 56:         if (RCREG == 'c') {
  6806  00010A  0E63               	movlw	99
  6807  00010C  18AE               	xorwf	174,w,c	;volatile
  6808  00010E  A4D8               	btfss	status,2,c
  6809  000110  EF8C  F000         	goto	i2u555_41
  6810  000114  EF8E  F000         	goto	i2u555_40
  6811  000118                     i2u555_41:
  6812  000118  EF9E  F000         	goto	i2l5070
  6813  00011C                     i2u555_40:
  6814  00011C                     
  6815                           ;main.c: 57:             setEstrategia("AD");
  6816  00011C  0E97               	movlw	low STR_47
  6817  00011E  6E01               	movwf	setEstrategia@c^0,c
  6818  000120  0E03               	movlw	high STR_47
  6819  000122  6E02               	movwf	(setEstrategia@c+1)^0,c
  6820  000124  EC45  F01E         	call	_setEstrategia	;wreg free
  6821  000128                     
  6822                           ;main.c: 58:             UARTSendString(comando, 16);
  6823  000128  C0DF  F002         	movff	_comando,i2UARTSendString@str
  6824  00012C  C0E0  F003         	movff	_comando+1,i2UARTSendString@str+1
  6825  000130  0E00               	movlw	0
  6826  000132  6E05               	movwf	(i2UARTSendString@max_length+1)^0,c
  6827  000134  0E10               	movlw	16
  6828  000136  6E04               	movwf	i2UARTSendString@max_length^0,c
  6829  000138  ECA5  F01A         	call	i2_UARTSendString	;wreg free
  6830  00013C                     i2l5070:
  6831                           
  6832                           ;main.c: 61:         if (RCREG == 'd') {
  6833  00013C  0E64               	movlw	100
  6834  00013E  18AE               	xorwf	174,w,c	;volatile
  6835  000140  A4D8               	btfss	status,2,c
  6836  000142  EFA5  F000         	goto	i2u556_41
  6837  000146  EFA7  F000         	goto	i2u556_40
  6838  00014A                     i2u556_41:
  6839  00014A  EFEE  F000         	goto	i2l5090
  6840  00014E                     i2u556_40:
  6841  00014E                     
  6842                           ;main.c: 62:             for (millis = 0; millis < 60000; millis++) {
  6843  00014E  0E00               	movlw	0
  6844  000150  0100               	movlb	0	; () banked
  6845  000152  6FCD               	movwf	_millis& (0+255),b
  6846  000154  0E00               	movlw	0
  6847  000156  6FCE               	movwf	(_millis+1)& (0+255),b
  6848  000158  0E00               	movlw	0
  6849  00015A  6FCF               	movwf	(_millis+2)& (0+255),b
  6850  00015C  0E00               	movlw	0
  6851  00015E  6FD0               	movwf	(_millis+3)& (0+255),b
  6852  000160                     i2l5074:
  6853                           
  6854                           ; BSR set to: 0
  6855  000160  51D0               	movf	(_millis+3)& (0+255),w,b
  6856  000162  11CF               	iorwf	(_millis+2)& (0+255),w,b
  6857  000164  E10B               	bnz	i2u557_40
  6858  000166  0E60               	movlw	96
  6859  000168  5DCD               	subwf	_millis& (0+255),w,b
  6860  00016A  0EEA               	movlw	234
  6861  00016C  59CE               	subwfb	(_millis+1)& (0+255),w,b
  6862  00016E  A0D8               	btfss	status,0,c
  6863  000170  EFBC  F000         	goto	i2u557_41
  6864  000174  EFBE  F000         	goto	i2u557_40
  6865  000178                     i2u557_41:
  6866  000178  EFC0  F000         	goto	i2l5078
  6867  00017C                     i2u557_40:
  6868  00017C  EFE4  F000         	goto	i2l5088
  6869  000180                     i2l5078:
  6870                           
  6871                           ; BSR set to: 0
  6872                           ;main.c: 63:                 setPID();
  6873  000180  EC29  F00E         	call	_setPID	;wreg free
  6874  000184                     
  6875                           ;main.c: 64:                 if (millis == 1000) {
  6876  000184  0EE8               	movlw	232
  6877  000186  0100               	movlb	0	; () banked
  6878  000188  19CD               	xorwf	_millis& (0+255),w,b
  6879  00018A  E109               	bnz	i2u558_41
  6880  00018C  0E03               	movlw	3
  6881  00018E  19CE               	xorwf	(_millis+1)& (0+255),w,b
  6882  000190  11CF               	iorwf	(_millis+2)& (0+255),w,b
  6883  000192  11D0               	iorwf	(_millis+3)& (0+255),w,b
  6884  000194  A4D8               	btfss	status,2,c
  6885  000196  EFCF  F000         	goto	i2u558_41
  6886  00019A  EFD1  F000         	goto	i2u558_40
  6887  00019E                     i2u558_41:
  6888  00019E  EFDB  F000         	goto	i2l5084
  6889  0001A2                     i2u558_40:
  6890  0001A2                     
  6891                           ; BSR set to: 0
  6892                           ;main.c: 65:                     UARTSendString("PID", 16);
  6893  0001A2  0E93               	movlw	low STR_48
  6894  0001A4  6E02               	movwf	i2UARTSendString@str^0,c
  6895  0001A6  0E03               	movlw	high STR_48
  6896  0001A8  6E03               	movwf	(i2UARTSendString@str+1)^0,c
  6897  0001AA  0E00               	movlw	0
  6898  0001AC  6E05               	movwf	(i2UARTSendString@max_length+1)^0,c
  6899  0001AE  0E10               	movlw	16
  6900  0001B0  6E04               	movwf	i2UARTSendString@max_length^0,c
  6901  0001B2  ECA5  F01A         	call	i2_UARTSendString	;wreg free
  6902  0001B6                     i2l5084:
  6903                           
  6904                           ;main.c: 67:             }
  6905  0001B6  0E01               	movlw	1
  6906  0001B8  0100               	movlb	0	; () banked
  6907  0001BA  27CD               	addwf	_millis& (0+255),f,b
  6908  0001BC  0E00               	movlw	0
  6909  0001BE  23CE               	addwfc	(_millis+1)& (0+255),f,b
  6910  0001C0  23CF               	addwfc	(_millis+2)& (0+255),f,b
  6911  0001C2  23D0               	addwfc	(_millis+3)& (0+255),f,b
  6912  0001C4  EFB0  F000         	goto	i2l5074
  6913  0001C8                     i2l5088:
  6914                           
  6915                           ; BSR set to: 0
  6916                           ;main.c: 68:             UARTSendString(comando, 16);
  6917  0001C8  C0DF  F002         	movff	_comando,i2UARTSendString@str
  6918  0001CC  C0E0  F003         	movff	_comando+1,i2UARTSendString@str+1
  6919  0001D0  0E00               	movlw	0
  6920  0001D2  6E05               	movwf	(i2UARTSendString@max_length+1)^0,c
  6921  0001D4  0E10               	movlw	16
  6922  0001D6  6E04               	movwf	i2UARTSendString@max_length^0,c
  6923  0001D8  ECA5  F01A         	call	i2_UARTSendString	;wreg free
  6924  0001DC                     i2l5090:
  6925                           
  6926                           ;main.c: 71:         if (RCREG == 'f') {
  6927  0001DC  0E66               	movlw	102
  6928  0001DE  18AE               	xorwf	174,w,c	;volatile
  6929  0001E0  A4D8               	btfss	status,2,c
  6930  0001E2  EFF5  F000         	goto	i2u559_41
  6931  0001E6  EFF7  F000         	goto	i2u559_40
  6932  0001EA                     i2u559_41:
  6933  0001EA  EF07  F001         	goto	i2l5096
  6934  0001EE                     i2u559_40:
  6935  0001EE                     
  6936                           ;main.c: 72:             setEstrategia("testeADbit");
  6937  0001EE  0E44               	movlw	low STR_49
  6938  0001F0  6E01               	movwf	setEstrategia@c^0,c
  6939  0001F2  0E03               	movlw	high STR_49
  6940  0001F4  6E02               	movwf	(setEstrategia@c+1)^0,c
  6941  0001F6  EC45  F01E         	call	_setEstrategia	;wreg free
  6942  0001FA                     
  6943                           ;main.c: 73:             UARTSendString(comando, 16);
  6944  0001FA  C0DF  F002         	movff	_comando,i2UARTSendString@str
  6945  0001FE  C0E0  F003         	movff	_comando+1,i2UARTSendString@str+1
  6946  000202  0E00               	movlw	0
  6947  000204  6E05               	movwf	(i2UARTSendString@max_length+1)^0,c
  6948  000206  0E10               	movlw	16
  6949  000208  6E04               	movwf	i2UARTSendString@max_length^0,c
  6950  00020A  ECA5  F01A         	call	i2_UARTSendString	;wreg free
  6951  00020E                     i2l5096:
  6952                           
  6953                           ;main.c: 76:         if (RCREG == 'p') {
  6954  00020E  0E70               	movlw	112
  6955  000210  18AE               	xorwf	174,w,c	;volatile
  6956  000212  A4D8               	btfss	status,2,c
  6957  000214  EF0E  F001         	goto	i2u560_41
  6958  000218  EF10  F001         	goto	i2u560_40
  6959  00021C                     i2u560_41:
  6960  00021C  EF46  F001         	goto	i2l5120
  6961  000220                     i2u560_40:
  6962  000220                     
  6963                           ;main.c: 77:             setEstrategia("idle");
  6964  000220  0E8E               	movlw	low STR_3
  6965  000222  6E01               	movwf	setEstrategia@c^0,c
  6966  000224  0E03               	movlw	high STR_3
  6967  000226  6E02               	movwf	(setEstrategia@c+1)^0,c
  6968  000228  EC45  F01E         	call	_setEstrategia	;wreg free
  6969  00022C                     
  6970                           ;main.c: 78:             UARTSendString("IDLE", 16);
  6971  00022C  0E89               	movlw	low STR_51
  6972  00022E  6E02               	movwf	i2UARTSendString@str^0,c
  6973  000230  0E03               	movlw	high STR_51
  6974  000232  6E03               	movwf	(i2UARTSendString@str+1)^0,c
  6975  000234  0E00               	movlw	0
  6976  000236  6E05               	movwf	(i2UARTSendString@max_length+1)^0,c
  6977  000238  0E10               	movlw	16
  6978  00023A  6E04               	movwf	i2UARTSendString@max_length^0,c
  6979  00023C  ECA5  F01A         	call	i2_UARTSendString	;wreg free
  6980  000240                     
  6981                           ;main.c: 79:             setDutyPWM0(0);
  6982  000240  0E00               	movlw	0
  6983  000242  6E08               	movwf	(i2setDutyPWM0@porcVelo+1)^0,c
  6984  000244  0E00               	movlw	0
  6985  000246  6E07               	movwf	i2setDutyPWM0@porcVelo^0,c
  6986  000248  ECB5  F01D         	call	i2_setDutyPWM0	;wreg free
  6987  00024C                     
  6988                           ;main.c: 80:             setDutyPWM2(0);
  6989  00024C  0E00               	movlw	0
  6990  00024E  6E08               	movwf	(i2setDutyPWM2@porcVelo+1)^0,c
  6991  000250  0E00               	movlw	0
  6992  000252  6E07               	movwf	i2setDutyPWM2@porcVelo^0,c
  6993  000254  ECA2  F01D         	call	i2_setDutyPWM2	;wreg free
  6994  000258                     
  6995                           ;main.c: 81:             setDutyPWM4(0);
  6996  000258  0E00               	movlw	0
  6997  00025A  6E08               	movwf	(i2setDutyPWM4@porcVelo+1)^0,c
  6998  00025C  0E00               	movlw	0
  6999  00025E  6E07               	movwf	i2setDutyPWM4@porcVelo^0,c
  7000  000260  EC8F  F01D         	call	i2_setDutyPWM4	;wreg free
  7001  000264                     
  7002                           ;main.c: 82:             setDutyPWM6(0);
  7003  000264  0E00               	movlw	0
  7004  000266  6E08               	movwf	(i2setDutyPWM6@porcVelo+1)^0,c
  7005  000268  0E00               	movlw	0
  7006  00026A  6E07               	movwf	i2setDutyPWM6@porcVelo^0,c
  7007  00026C  EC7C  F01D         	call	i2_setDutyPWM6	;wreg free
  7008  000270                     
  7009                           ;main.c: 84:             RC0 = 0;
  7010  000270  9082               	bcf	3970,0,c	;volatile
  7011  000272                     
  7012                           ;main.c: 85:             RC1 = 0;
  7013  000272  9282               	bcf	3970,1,c	;volatile
  7014  000274                     
  7015                           ;main.c: 86:             RC2 = 0;
  7016  000274  9482               	bcf	3970,2,c	;volatile
  7017  000276                     
  7018                           ;main.c: 87:             RC3 = 0;
  7019  000276  9682               	bcf	3970,3,c	;volatile
  7020  000278                     
  7021                           ;main.c: 88:             UARTSendString(comando, 16);
  7022  000278  C0DF  F002         	movff	_comando,i2UARTSendString@str
  7023  00027C  C0E0  F003         	movff	_comando+1,i2UARTSendString@str+1
  7024  000280  0E00               	movlw	0
  7025  000282  6E05               	movwf	(i2UARTSendString@max_length+1)^0,c
  7026  000284  0E10               	movlw	16
  7027  000286  6E04               	movwf	i2UARTSendString@max_length^0,c
  7028  000288  ECA5  F01A         	call	i2_UARTSendString	;wreg free
  7029  00028C                     i2l5120:
  7030                           
  7031                           ;main.c: 90:         PIR1bits.RCIF = 0;
  7032  00028C  9A9E               	bcf	158,5,c	;volatile
  7033  00028E                     i2l356:
  7034  00028E  C07D  FFF5         	movff	??_ISR+7,tablat
  7035  000292  C07C  FFF8         	movff	??_ISR+6,tblptru
  7036  000296  C07B  FFF7         	movff	??_ISR+5,tblptrh
  7037  00029A  C07A  FFF6         	movff	??_ISR+4,tblptrl
  7038  00029E  C079  FFF4         	movff	??_ISR+3,prodh
  7039  0002A2  C078  FFF3         	movff	??_ISR+2,prodl
  7040  0002A6  C077  FFDA         	movff	??_ISR+1,fsr2h
  7041  0002AA  C076  FFD9         	movff	??_ISR,fsr2l
  7042  0002AE  925F               	bcf	int$flags,1,c	;clear compiler interrupt flag (level 2)
  7043  0002B0  0011               	retfie		f
  7044  0002B2                     __end_of_ISR:
  7045                           	opt callstack 0
  7046                           
  7047 ;; *************** function i2_UARTSendString *****************
  7048 ;; Defined at:
  7049 ;;		line 57 in file "./bluetooth.h"
  7050 ;; Parameters:    Size  Location     Type
  7051 ;;  str             2    1[COMRAM] PTR unsigned char 
  7052 ;;		 -> STR_52(2), STR_51(5), STR_50(5), STR_49(11), 
  7053 ;;		 -> STR_48(4), STR_47(3), STR_46(14), STR_45(13), 
  7054 ;;		 -> STR_44(10), STR_43(2), STR_42(11), STR_41(2), 
  7055 ;;		 -> STR_40(2), testeADbit@string(2), STR_39(2), STR_38(11), 
  7056 ;;		 -> STR_37(2), STR_36(6), STR_35(2), STR_34(6), 
  7057 ;;		 -> STR_33(2), STR_32(6), STR_31(2), STR_30(6), 
  7058 ;;		 -> STR_29(2), STR_28(6), STR_27(2), STR_26(6), 
  7059 ;;		 -> STR_25(2), STR_24(6), STR_23(2), STR_22(6), 
  7060 ;;		 -> STR_5(15), STR_2(14), STR_1(1), valorConvUARTbit@string(5), 
  7061 ;;		 -> valorConvUART@string(5), 
  7062 ;;  max_length      2    3[COMRAM] const int 
  7063 ;; Auto vars:     Size  Location     Type
  7064 ;;  UARTSendStri    2    7[COMRAM] int 
  7065 ;; Return value:  Size  Location     Type
  7066 ;;                  1    wreg      void 
  7067 ;; Registers used:
  7068 ;;		wreg, fsr2l, fsr2h, status,2, status,0, tblptrl, tblptrh, tblptru, cstack
  7069 ;; Tracked objects:
  7070 ;;		On entry : 0/0
  7071 ;;		On exit  : 0/0
  7072 ;;		Unchanged: 0/0
  7073 ;; Data sizes:     COMRAM   BANK0   BANK1   BANK2
  7074 ;;      Params:         4       0       0       0
  7075 ;;      Locals:         2       0       0       0
  7076 ;;      Temps:          2       0       0       0
  7077 ;;      Totals:         8       0       0       0
  7078 ;;Total ram usage:        8 bytes
  7079 ;; Hardware stack levels used:    1
  7080 ;; Hardware stack levels required when called:    2
  7081 ;; This function calls:
  7082 ;;		i2_UARTSendChar
  7083 ;;		i2_UARTWriteTest
  7084 ;; This function is called by:
  7085 ;;		_ISR
  7086 ;; This function uses a non-reentrant model
  7087 ;;
  7088                           
  7089                           	psect	text35
  7090  00354A                     __ptext35:
  7091                           	opt callstack 0
  7092  00354A                     i2_UARTSendString:
  7093                           	opt callstack 23
  7094  00354A                     
  7095                           ;./bluetooth.h: 58:     int i = 0;
  7096  00354A  0E00               	movlw	0
  7097  00354C  6E09               	movwf	(i2UARTSendString@i+1)^0,c
  7098  00354E  0E00               	movlw	0
  7099  003550  6E08               	movwf	i2UARTSendString@i^0,c
  7100                           
  7101                           ;./bluetooth.h: 60:     for (i = 0; i < max_length; i++) {
  7102  003552  0E00               	movlw	0
  7103  003554  6E09               	movwf	(i2UARTSendString@i+1)^0,c
  7104  003556  0E00               	movlw	0
  7105  003558  6E08               	movwf	i2UARTSendString@i^0,c
  7106  00355A                     i2l5016:
  7107  00355A  5004               	movf	i2UARTSendString@max_length^0,w,c
  7108  00355C  5C08               	subwf	i2UARTSendString@i^0,w,c
  7109  00355E  5009               	movf	(i2UARTSendString@i+1)^0,w,c
  7110  003560  0A80               	xorlw	128
  7111  003562  6E06               	movwf	??i2_UARTSendString^0,c
  7112  003564  5005               	movf	(i2UARTSendString@max_length+1)^0,w,c
  7113  003566  0A80               	xorlw	128
  7114  003568  5806               	subwfb	??i2_UARTSendString^0,w,c
  7115  00356A  A0D8               	btfss	status,0,c
  7116  00356C  EFBA  F01A         	goto	i2u544_41
  7117  003570  EFBC  F01A         	goto	i2u544_40
  7118  003574                     i2u544_41:
  7119  003574  EFBE  F01A         	goto	i2l5020
  7120  003578                     i2u544_40:
  7121  003578  EFFC  F01A         	goto	i2l192
  7122  00357C                     i2l5020:
  7123                           
  7124                           ;./bluetooth.h: 62:         if (str[i] == '\0') break;
  7125  00357C  5008               	movf	i2UARTSendString@i^0,w,c
  7126  00357E  2402               	addwf	i2UARTSendString@str^0,w,c
  7127  003580  6E06               	movwf	??i2_UARTSendString^0,c
  7128  003582  5009               	movf	(i2UARTSendString@i+1)^0,w,c
  7129  003584  2003               	addwfc	(i2UARTSendString@str+1)^0,w,c
  7130  003586  6E07               	movwf	(??i2_UARTSendString+1)^0,c
  7131  003588  C006  FFF6         	movff	??i2_UARTSendString,tblptrl
  7132  00358C  C007  FFF7         	movff	??i2_UARTSendString+1,tblptrh
  7133  003590  6AF8               	clrf	tblptru,c
  7134  003592  0E02               	movlw	(high __ramtop+-1)
  7135  003594  64F7               	cpfsgt	tblptrh,c
  7136  003596  D003               	bra	i2u545_47
  7137  003598  0008               	tblrd		*
  7138  00359A  50F5               	movf	tablat,w,c
  7139  00359C  D005               	bra	i2u545_40
  7140  00359E                     i2u545_47:
  7141  00359E  CFF6 FFD9          	movff	tblptrl,fsr2l
  7142  0035A2  CFF7 FFDA          	movff	tblptrh,fsr2h
  7143  0035A6  50DF               	movf	indf2,w,c
  7144  0035A8                     i2u545_40:
  7145  0035A8  0900               	iorlw	0
  7146  0035AA  A4D8               	btfss	status,2,c
  7147  0035AC  EFDA  F01A         	goto	i2u546_41
  7148  0035B0  EFDC  F01A         	goto	i2u546_40
  7149  0035B4                     i2u546_41:
  7150  0035B4  EFDE  F01A         	goto	i2l5024
  7151  0035B8                     i2u546_40:
  7152  0035B8  EFFC  F01A         	goto	i2l192
  7153  0035BC                     i2l5024:
  7154                           
  7155                           ;./bluetooth.h: 63:         UARTSendChar(str[i]);
  7156  0035BC  5008               	movf	i2UARTSendString@i^0,w,c
  7157  0035BE  2402               	addwf	i2UARTSendString@str^0,w,c
  7158  0035C0  6E06               	movwf	??i2_UARTSendString^0,c
  7159  0035C2  5009               	movf	(i2UARTSendString@i+1)^0,w,c
  7160  0035C4  2003               	addwfc	(i2UARTSendString@str+1)^0,w,c
  7161  0035C6  6E07               	movwf	(??i2_UARTSendString+1)^0,c
  7162  0035C8  C006  FFF6         	movff	??i2_UARTSendString,tblptrl
  7163  0035CC  C007  FFF7         	movff	??i2_UARTSendString+1,tblptrh
  7164  0035D0  6AF8               	clrf	tblptru,c
  7165  0035D2  0E02               	movlw	(high __ramtop+-1)
  7166  0035D4  64F7               	cpfsgt	tblptrh,c
  7167  0035D6  D003               	bra	i2u547_47
  7168  0035D8  0008               	tblrd		*
  7169  0035DA  50F5               	movf	tablat,w,c
  7170  0035DC  D005               	bra	i2u547_40
  7171  0035DE                     i2u547_47:
  7172  0035DE  CFF6 FFD9          	movff	tblptrl,fsr2l
  7173  0035E2  CFF7 FFDA          	movff	tblptrh,fsr2h
  7174  0035E6  50DF               	movf	indf2,w,c
  7175  0035E8                     i2u547_40:
  7176  0035E8  EC35  F01E         	call	i2_UARTSendChar
  7177  0035EC                     
  7178                           ;./bluetooth.h: 64:         UARTWriteTest();
  7179  0035EC  EC26  F01E         	call	i2_UARTWriteTest	;wreg free
  7180  0035F0                     
  7181                           ;./bluetooth.h: 66:     }
  7182  0035F0  4A08               	infsnz	i2UARTSendString@i^0,f,c
  7183  0035F2  2A09               	incf	(i2UARTSendString@i+1)^0,f,c
  7184  0035F4  EFAD  F01A         	goto	i2l5016
  7185  0035F8                     i2l192:
  7186  0035F8  0012               	return		;funcret
  7187  0035FA                     __end_ofi2_UARTSendString:
  7188                           	opt callstack 0
  7189                           
  7190 ;; *************** function i2_UARTSendChar *****************
  7191 ;; Defined at:
  7192 ;;		line 52 in file "./bluetooth.h"
  7193 ;; Parameters:    Size  Location     Type
  7194 ;;  c               1    wreg     unsigned char 
  7195 ;; Auto vars:     Size  Location     Type
  7196 ;;  c               1    0[COMRAM] unsigned char 
  7197 ;; Return value:  Size  Location     Type
  7198 ;;                  1    wreg      void 
  7199 ;; Registers used:
  7200 ;;		wreg, cstack
  7201 ;; Tracked objects:
  7202 ;;		On entry : 0/0
  7203 ;;		On exit  : 0/0
  7204 ;;		Unchanged: 0/0
  7205 ;; Data sizes:     COMRAM   BANK0   BANK1   BANK2
  7206 ;;      Params:         0       0       0       0
  7207 ;;      Locals:         1       0       0       0
  7208 ;;      Temps:          0       0       0       0
  7209 ;;      Totals:         1       0       0       0
  7210 ;;Total ram usage:        1 bytes
  7211 ;; Hardware stack levels used:    1
  7212 ;; Hardware stack levels required when called:    1
  7213 ;; This function calls:
  7214 ;;		i2_UARTWriteTest
  7215 ;; This function is called by:
  7216 ;;		i2_UARTSendString
  7217 ;; This function uses a non-reentrant model
  7218 ;;
  7219                           
  7220                           	psect	text36
  7221  003C6A                     __ptext36:
  7222                           	opt callstack 0
  7223  003C6A                     i2_UARTSendChar:
  7224                           	opt callstack 23
  7225                           
  7226                           ;incstack = 0
  7227                           ;i2UARTSendChar@c stored from wreg
  7228  003C6A  6E01               	movwf	i2UARTSendChar@c^0,c
  7229  003C6C                     
  7230                           ;./bluetooth.h: 53:     TXREG = c;
  7231  003C6C  C001  FFAD         	movff	i2UARTSendChar@c,4013	;volatile
  7232  003C70                     
  7233                           ;./bluetooth.h: 54:     UARTWriteTest();
  7234  003C70  EC26  F01E         	call	i2_UARTWriteTest	;wreg free
  7235  003C74  0012               	return		;funcret
  7236  003C76                     __end_ofi2_UARTSendChar:
  7237                           	opt callstack 0
  7238                           
  7239 ;; *************** function i2_UARTWriteTest *****************
  7240 ;; Defined at:
  7241 ;;		line 48 in file "./bluetooth.h"
  7242 ;; Parameters:    Size  Location     Type
  7243 ;;		None
  7244 ;; Auto vars:     Size  Location     Type
  7245 ;;		None
  7246 ;; Return value:  Size  Location     Type
  7247 ;;                  1    wreg      void 
  7248 ;; Registers used:
  7249 ;;		None
  7250 ;; Tracked objects:
  7251 ;;		On entry : 0/0
  7252 ;;		On exit  : 0/0
  7253 ;;		Unchanged: 0/0
  7254 ;; Data sizes:     COMRAM   BANK0   BANK1   BANK2
  7255 ;;      Params:         0       0       0       0
  7256 ;;      Locals:         0       0       0       0
  7257 ;;      Temps:          0       0       0       0
  7258 ;;      Totals:         0       0       0       0
  7259 ;;Total ram usage:        0 bytes
  7260 ;; Hardware stack levels used:    1
  7261 ;; This function calls:
  7262 ;;		Nothing
  7263 ;; This function is called by:
  7264 ;;		i2_UARTSendChar
  7265 ;;		i2_UARTSendString
  7266 ;; This function uses a non-reentrant model
  7267 ;;
  7268                           
  7269                           	psect	text37
  7270  003C4C                     __ptext37:
  7271                           	opt callstack 0
  7272  003C4C                     i2_UARTWriteTest:
  7273                           	opt callstack 24
  7274  003C4C                     i2l180:
  7275  003C4C  A2AC               	btfss	4012,1,c	;volatile
  7276  003C4E  EF2B  F01E         	goto	i2u506_41
  7277  003C52  EF2D  F01E         	goto	i2u506_40
  7278  003C56                     i2u506_41:
  7279  003C56  EF26  F01E         	goto	i2l180
  7280  003C5A                     i2u506_40:
  7281  003C5A  0012               	return		;funcret
  7282  003C5C                     __end_ofi2_UARTWriteTest:
  7283                           	opt callstack 0
  7284                           
  7285 ;; *************** function _setPID *****************
  7286 ;; Defined at:
  7287 ;;		line 85 in file "./Seguidor.h"
  7288 ;; Parameters:    Size  Location     Type
  7289 ;;		None
  7290 ;; Auto vars:     Size  Location     Type
  7291 ;;		None
  7292 ;; Return value:  Size  Location     Type
  7293 ;;                  1    wreg      void 
  7294 ;; Registers used:
  7295 ;;		wreg, fsr2l, fsr2h, status,2, status,0, prodl, prodh, cstack
  7296 ;; Tracked objects:
  7297 ;;		On entry : 0/0
  7298 ;;		On exit  : 0/0
  7299 ;;		Unchanged: 0/0
  7300 ;; Data sizes:     COMRAM   BANK0   BANK1   BANK2
  7301 ;;      Params:         0       0       0       0
  7302 ;;      Locals:         0       8       0       0
  7303 ;;      Temps:          0       0       0       0
  7304 ;;      Totals:         0       8       0       0
  7305 ;;Total ram usage:        8 bytes
  7306 ;; Hardware stack levels used:    1
  7307 ;; Hardware stack levels required when called:    4
  7308 ;; This function calls:
  7309 ;;		___fladd
  7310 ;;		___fldiv
  7311 ;;		___flsub
  7312 ;;		_configDA
  7313 ;;		_moverMotor
  7314 ;;		_posicao
  7315 ;;		i2___flmul
  7316 ;;		i2___xxtofl
  7317 ;; This function is called by:
  7318 ;;		_ISR
  7319 ;; This function uses a non-reentrant model
  7320 ;;
  7321                           
  7322                           	psect	text38
  7323  001C52                     __ptext38:
  7324                           	opt callstack 0
  7325  001C52                     _setPID:
  7326                           	opt callstack 21
  7327  001C52                     
  7328                           ;./Seguidor.h: 87:     configDA();
  7329  001C52  EC73  F013         	call	_configDA	;wreg free
  7330  001C56                     
  7331                           ;./Seguidor.h: 89:     pos = posicao();
  7332  001C56  EC44  F011         	call	_posicao	;wreg free
  7333  001C5A  C059  F0C5         	movff	?_posicao,_pos
  7334  001C5E  C05A  F0C6         	movff	?_posicao+1,_pos+1
  7335  001C62  C05B  F0C7         	movff	?_posicao+2,_pos+2
  7336  001C66  C05C  F0C8         	movff	?_posicao+3,_pos+3
  7337  001C6A                     
  7338                           ;./Seguidor.h: 91:     posin = pos;
  7339  001C6A  C0C5  F0C9         	movff	_pos,_posin
  7340  001C6E  C0C6  F0CA         	movff	_pos+1,_posin+1
  7341  001C72  C0C7  F0CB         	movff	_pos+2,_posin+2
  7342  001C76  C0C8  F0CC         	movff	_pos+3,_posin+3
  7343  001C7A                     
  7344                           ;./Seguidor.h: 93:     erro = setpoint - pos;
  7345  001C7A  C0D9  F038         	movff	_setpoint,___flsub@b
  7346  001C7E  C0DA  F039         	movff	_setpoint+1,___flsub@b+1
  7347  001C82  C0DB  F03A         	movff	_setpoint+2,___flsub@b+2
  7348  001C86  C0DC  F03B         	movff	_setpoint+3,___flsub@b+3
  7349  001C8A  C0C5  F03C         	movff	_pos,___flsub@a
  7350  001C8E  C0C6  F03D         	movff	_pos+1,___flsub@a+1
  7351  001C92  C0C7  F03E         	movff	_pos+2,___flsub@a+2
  7352  001C96  C0C8  F03F         	movff	_pos+3,___flsub@a+3
  7353  001C9A  ECD2  F01C         	call	___flsub	;wreg free
  7354  001C9E  C038  F0C1         	movff	?___flsub,_erro
  7355  001CA2  C039  F0C2         	movff	?___flsub+1,_erro+1
  7356  001CA6  C03A  F0C3         	movff	?___flsub+2,_erro+2
  7357  001CAA  C03B  F0C4         	movff	?___flsub+3,_erro+3
  7358  001CAE                     
  7359                           ;./Seguidor.h: 95:     de = erro - erroi;
  7360  001CAE  C0C1  F038         	movff	_erro,___flsub@b
  7361  001CB2  C0C2  F039         	movff	_erro+1,___flsub@b+1
  7362  001CB6  C0C3  F03A         	movff	_erro+2,___flsub@b+2
  7363  001CBA  C0C4  F03B         	movff	_erro+3,___flsub@b+3
  7364  001CBE  C142  F03C         	movff	_erroi,___flsub@a
  7365  001CC2  C143  F03D         	movff	_erroi+1,___flsub@a+1
  7366  001CC6  C144  F03E         	movff	_erroi+2,___flsub@a+2
  7367  001CCA  C145  F03F         	movff	_erroi+3,___flsub@a+3
  7368  001CCE  ECD2  F01C         	call	___flsub	;wreg free
  7369  001CD2  C038  F14A         	movff	?___flsub,_de
  7370  001CD6  C039  F14B         	movff	?___flsub+1,_de+1
  7371  001CDA  C03A  F14C         	movff	?___flsub+2,_de+2
  7372  001CDE  C03B  F14D         	movff	?___flsub+3,_de+3
  7373  001CE2                     
  7374                           ;./Seguidor.h: 97:     erroi = erro;
  7375  001CE2  C0C1  F142         	movff	_erro,_erroi
  7376  001CE6  C0C2  F143         	movff	_erro+1,_erroi+1
  7377  001CEA  C0C3  F144         	movff	_erro+2,_erroi+2
  7378  001CEE  C0C4  F145         	movff	_erro+3,_erroi+3
  7379  001CF2                     
  7380                           ;./Seguidor.h: 99:     dt = (millis - tf) / 1000.0;
  7381  001CF2  C146  F03C         	movff	_tf,___flsub@a
  7382  001CF6  C147  F03D         	movff	_tf+1,___flsub@a+1
  7383  001CFA  C148  F03E         	movff	_tf+2,___flsub@a+2
  7384  001CFE  C149  F03F         	movff	_tf+3,___flsub@a+3
  7385  001D02  C0CD  F001         	movff	_millis,i2___xxtofl@val
  7386  001D06  C0CE  F002         	movff	_millis+1,i2___xxtofl@val+1
  7387  001D0A  C0CF  F003         	movff	_millis+2,i2___xxtofl@val+2
  7388  001D0E  C0D0  F004         	movff	_millis+3,i2___xxtofl@val+3
  7389  001D12  0E00               	movlw	0
  7390  001D14  EC6A  F010         	call	i2___xxtofl
  7391  001D18  C001  F038         	movff	?i2___xxtofl,___flsub@b
  7392  001D1C  C002  F039         	movff	?i2___xxtofl+1,___flsub@b+1
  7393  001D20  C003  F03A         	movff	?i2___xxtofl+2,___flsub@b+2
  7394  001D24  C004  F03B         	movff	?i2___xxtofl+3,___flsub@b+3
  7395  001D28  ECD2  F01C         	call	___flsub	;wreg free
  7396  001D2C  C038  F040         	movff	?___flsub,___fldiv@b
  7397  001D30  C039  F041         	movff	?___flsub+1,___fldiv@b+1
  7398  001D34  C03A  F042         	movff	?___flsub+2,___fldiv@b+2
  7399  001D38  C03B  F043         	movff	?___flsub+3,___fldiv@b+3
  7400  001D3C  0E00               	movlw	0
  7401  001D3E  6E44               	movwf	___fldiv@a^0,c
  7402  001D40  0E00               	movlw	0
  7403  001D42  6E45               	movwf	(___fldiv@a+1)^0,c
  7404  001D44  0E7A               	movlw	122
  7405  001D46  6E46               	movwf	(___fldiv@a+2)^0,c
  7406  001D48  0E44               	movlw	68
  7407  001D4A  6E47               	movwf	(___fldiv@a+3)^0,c
  7408  001D4C  ECC8  F00A         	call	___fldiv	;wreg free
  7409  001D50  C040  F0B5         	movff	?___fldiv,_dt
  7410  001D54  C041  F0B6         	movff	?___fldiv+1,_dt+1
  7411  001D58  C042  F0B7         	movff	?___fldiv+2,_dt+2
  7412  001D5C  C043  F0B8         	movff	?___fldiv+3,_dt+3
  7413  001D60                     
  7414                           ;./Seguidor.h: 101:     tf = millis;
  7415  001D60  C0CD  F001         	movff	_millis,i2___xxtofl@val
  7416  001D64  C0CE  F002         	movff	_millis+1,i2___xxtofl@val+1
  7417  001D68  C0CF  F003         	movff	_millis+2,i2___xxtofl@val+2
  7418  001D6C  C0D0  F004         	movff	_millis+3,i2___xxtofl@val+3
  7419  001D70  0E00               	movlw	0
  7420  001D72  EC6A  F010         	call	i2___xxtofl
  7421  001D76  C001  F146         	movff	?i2___xxtofl,_tf
  7422  001D7A  C002  F147         	movff	?i2___xxtofl+1,_tf+1
  7423  001D7E  C003  F148         	movff	?i2___xxtofl+2,_tf+2
  7424  001D82  C004  F149         	movff	?i2___xxtofl+3,_tf+3
  7425  001D86                     
  7426                           ;./Seguidor.h: 103:     P = kp*erro;
  7427  001D86  C156  F00F         	movff	_kp,i2___flmul@b
  7428  001D8A  C157  F010         	movff	_kp+1,i2___flmul@b+1
  7429  001D8E  C158  F011         	movff	_kp+2,i2___flmul@b+2
  7430  001D92  C159  F012         	movff	_kp+3,i2___flmul@b+3
  7431  001D96  C0C1  F013         	movff	_erro,i2___flmul@a
  7432  001D9A  C0C2  F014         	movff	_erro+1,i2___flmul@a+1
  7433  001D9E  C0C3  F015         	movff	_erro+2,i2___flmul@a+2
  7434  001DA2  C0C4  F016         	movff	_erro+3,i2___flmul@a+3
  7435  001DA6  ECB3  F008         	call	i2___flmul	;wreg free
  7436  001DAA  C00F  F0BD         	movff	?i2___flmul,_P
  7437  001DAE  C010  F0BE         	movff	?i2___flmul+1,_P+1
  7438  001DB2  C011  F0BF         	movff	?i2___flmul+2,_P+2
  7439  001DB6  C012  F0C0         	movff	?i2___flmul+3,_P+3
  7440  001DBA                     
  7441                           ;./Seguidor.h: 105:     I = I + ki * erro*dt;
  7442  001DBA  C0C1  F013         	movff	_erro,i2___flmul@a
  7443  001DBE  C0C2  F014         	movff	_erro+1,i2___flmul@a+1
  7444  001DC2  C0C3  F015         	movff	_erro+2,i2___flmul@a+2
  7445  001DC6  C0C4  F016         	movff	_erro+3,i2___flmul@a+3
  7446  001DCA  C152  F00F         	movff	_ki,i2___flmul@b
  7447  001DCE  C153  F010         	movff	_ki+1,i2___flmul@b+1
  7448  001DD2  C154  F011         	movff	_ki+2,i2___flmul@b+2
  7449  001DD6  C155  F012         	movff	_ki+3,i2___flmul@b+3
  7450  001DDA  ECB3  F008         	call	i2___flmul	;wreg free
  7451  001DDE  C00F  F072         	movff	?i2___flmul,_setPID$1692
  7452  001DE2  C010  F073         	movff	?i2___flmul+1,_setPID$1692+1
  7453  001DE6  C011  F074         	movff	?i2___flmul+2,_setPID$1692+2
  7454  001DEA  C012  F075         	movff	?i2___flmul+3,_setPID$1692+3
  7455  001DEE                     
  7456                           ;./Seguidor.h: 105:     I = I + ki * erro*dt;
  7457  001DEE  C0B5  F013         	movff	_dt,i2___flmul@a
  7458  001DF2  C0B6  F014         	movff	_dt+1,i2___flmul@a+1
  7459  001DF6  C0B7  F015         	movff	_dt+2,i2___flmul@a+2
  7460  001DFA  C0B8  F016         	movff	_dt+3,i2___flmul@a+3
  7461  001DFE  C072  F00F         	movff	_setPID$1692,i2___flmul@b
  7462  001E02  C073  F010         	movff	_setPID$1692+1,i2___flmul@b+1
  7463  001E06  C074  F011         	movff	_setPID$1692+2,i2___flmul@b+2
  7464  001E0A  C075  F012         	movff	_setPID$1692+3,i2___flmul@b+3
  7465  001E0E  ECB3  F008         	call	i2___flmul	;wreg free
  7466  001E12  C00F  F028         	movff	?i2___flmul,___fladd@b
  7467  001E16  C010  F029         	movff	?i2___flmul+1,___fladd@b+1
  7468  001E1A  C011  F02A         	movff	?i2___flmul+2,___fladd@b+2
  7469  001E1E  C012  F02B         	movff	?i2___flmul+3,___fladd@b+3
  7470  001E22  C0B9  F02C         	movff	_I,___fladd@a
  7471  001E26  C0BA  F02D         	movff	_I+1,___fladd@a+1
  7472  001E2A  C0BB  F02E         	movff	_I+2,___fladd@a+2
  7473  001E2E  C0BC  F02F         	movff	_I+3,___fladd@a+3
  7474  001E32  EC3D  F004         	call	___fladd	;wreg free
  7475  001E36  C028  F0B9         	movff	?___fladd,_I
  7476  001E3A  C029  F0BA         	movff	?___fladd+1,_I+1
  7477  001E3E  C02A  F0BB         	movff	?___fladd+2,_I+2
  7478  001E42  C02B  F0BC         	movff	?___fladd+3,_I+3
  7479  001E46                     
  7480                           ;./Seguidor.h: 107:     D = kd * de / dt;
  7481  001E46  C14A  F013         	movff	_de,i2___flmul@a
  7482  001E4A  C14B  F014         	movff	_de+1,i2___flmul@a+1
  7483  001E4E  C14C  F015         	movff	_de+2,i2___flmul@a+2
  7484  001E52  C14D  F016         	movff	_de+3,i2___flmul@a+3
  7485  001E56  C14E  F00F         	movff	_kd,i2___flmul@b
  7486  001E5A  C14F  F010         	movff	_kd+1,i2___flmul@b+1
  7487  001E5E  C150  F011         	movff	_kd+2,i2___flmul@b+2
  7488  001E62  C151  F012         	movff	_kd+3,i2___flmul@b+3
  7489  001E66  ECB3  F008         	call	i2___flmul	;wreg free
  7490  001E6A  C00F  F040         	movff	?i2___flmul,___fldiv@b
  7491  001E6E  C010  F041         	movff	?i2___flmul+1,___fldiv@b+1
  7492  001E72  C011  F042         	movff	?i2___flmul+2,___fldiv@b+2
  7493  001E76  C012  F043         	movff	?i2___flmul+3,___fldiv@b+3
  7494  001E7A  C0B5  F044         	movff	_dt,___fldiv@a
  7495  001E7E  C0B6  F045         	movff	_dt+1,___fldiv@a+1
  7496  001E82  C0B7  F046         	movff	_dt+2,___fldiv@a+2
  7497  001E86  C0B8  F047         	movff	_dt+3,___fldiv@a+3
  7498  001E8A  ECC8  F00A         	call	___fldiv	;wreg free
  7499  001E8E  C040  F15E         	movff	?___fldiv,_D
  7500  001E92  C041  F15F         	movff	?___fldiv+1,_D+1
  7501  001E96  C042  F160         	movff	?___fldiv+2,_D+2
  7502  001E9A  C043  F161         	movff	?___fldiv+3,_D+3
  7503  001E9E                     
  7504                           ;./Seguidor.h: 109:     PID = P + I - D;
  7505  001E9E  C0B9  F02C         	movff	_I,___fladd@a
  7506  001EA2  C0BA  F02D         	movff	_I+1,___fladd@a+1
  7507  001EA6  C0BB  F02E         	movff	_I+2,___fladd@a+2
  7508  001EAA  C0BC  F02F         	movff	_I+3,___fladd@a+3
  7509  001EAE  C0BD  F028         	movff	_P,___fladd@b
  7510  001EB2  C0BE  F029         	movff	_P+1,___fladd@b+1
  7511  001EB6  C0BF  F02A         	movff	_P+2,___fladd@b+2
  7512  001EBA  C0C0  F02B         	movff	_P+3,___fladd@b+3
  7513  001EBE  EC3D  F004         	call	___fladd	;wreg free
  7514  001EC2  C028  F06E         	movff	?___fladd,_setPID$1573
  7515  001EC6  C029  F06F         	movff	?___fladd+1,_setPID$1573+1
  7516  001ECA  C02A  F070         	movff	?___fladd+2,_setPID$1573+2
  7517  001ECE  C02B  F071         	movff	?___fladd+3,_setPID$1573+3
  7518  001ED2                     
  7519                           ;./Seguidor.h: 109:     PID = P + I - D;
  7520  001ED2  C06E  F038         	movff	_setPID$1573,___flsub@b
  7521  001ED6  C06F  F039         	movff	_setPID$1573+1,___flsub@b+1
  7522  001EDA  C070  F03A         	movff	_setPID$1573+2,___flsub@b+2
  7523  001EDE  C071  F03B         	movff	_setPID$1573+3,___flsub@b+3
  7524  001EE2  C15E  F03C         	movff	_D,___flsub@a
  7525  001EE6  C15F  F03D         	movff	_D+1,___flsub@a+1
  7526  001EEA  C160  F03E         	movff	_D+2,___flsub@a+2
  7527  001EEE  C161  F03F         	movff	_D+3,___flsub@a+3
  7528  001EF2  ECD2  F01C         	call	___flsub	;wreg free
  7529  001EF6  C038  F15A         	movff	?___flsub,_PID
  7530  001EFA  C039  F15B         	movff	?___flsub+1,_PID+1
  7531  001EFE  C03A  F15C         	movff	?___flsub+2,_PID+2
  7532  001F02  C03B  F15D         	movff	?___flsub+3,_PID+3
  7533  001F06                     
  7534                           ;./Seguidor.h: 111:     moverMotor(PID);
  7535  001F06  C15A  F04D         	movff	_PID,moverMotor@PID
  7536  001F0A  C15B  F04E         	movff	_PID+1,moverMotor@PID+1
  7537  001F0E  C15C  F04F         	movff	_PID+2,moverMotor@PID+2
  7538  001F12  C15D  F050         	movff	_PID+3,moverMotor@PID+3
  7539  001F16  EC2F  F015         	call	_moverMotor	;wreg free
  7540  001F1A  0012               	return		;funcret
  7541  001F1C                     __end_of_setPID:
  7542                           	opt callstack 0
  7543                           
  7544 ;; *************** function _posicao *****************
  7545 ;; Defined at:
  7546 ;;		line 42 in file "./Seguidor.h"
  7547 ;; Parameters:    Size  Location     Type
  7548 ;;		None
  7549 ;; Auto vars:     Size  Location     Type
  7550 ;;  total           4    8[BANK0 ] void 
  7551 ;;  pos             4    4[BANK0 ] void 
  7552 ;;  local           4    0[BANK0 ] void 
  7553 ;;  i               2   12[BANK0 ] int 
  7554 ;; Return value:  Size  Location     Type
  7555 ;;                  4   88[COMRAM] int 
  7556 ;; Registers used:
  7557 ;;		wreg, fsr2l, fsr2h, status,2, status,0, cstack
  7558 ;; Tracked objects:
  7559 ;;		On entry : 0/0
  7560 ;;		On exit  : 0/0
  7561 ;;		Unchanged: 0/0
  7562 ;; Data sizes:     COMRAM   BANK0   BANK1   BANK2
  7563 ;;      Params:         4       0       0       0
  7564 ;;      Locals:         0      14       0       0
  7565 ;;      Temps:          2       0       0       0
  7566 ;;      Totals:         6      14       0       0
  7567 ;;Total ram usage:       20 bytes
  7568 ;; Hardware stack levels used:    1
  7569 ;; Hardware stack levels required when called:    1
  7570 ;; This function calls:
  7571 ;;		___fladd
  7572 ;;		___fldiv
  7573 ;;		___fleq
  7574 ;; This function is called by:
  7575 ;;		_setPID
  7576 ;; This function uses a non-reentrant model
  7577 ;;
  7578                           
  7579                           	psect	text39
  7580  002288                     __ptext39:
  7581                           	opt callstack 0
  7582  002288                     _posicao:
  7583                           	opt callstack 23
  7584  002288                     
  7585                           ;./Seguidor.h: 43:     int i;;./Seguidor.h: 44:     double pos = 0, local, total = 0;
  7586  002288  0E00               	movlw	0
  7587  00228A  0100               	movlb	0	; () banked
  7588  00228C  6F64               	movwf	posicao@pos& (0+255),b
  7589  00228E  0E00               	movlw	0
  7590  002290  6F65               	movwf	(posicao@pos+1)& (0+255),b
  7591  002292  0E00               	movlw	0
  7592  002294  6F66               	movwf	(posicao@pos+2)& (0+255),b
  7593  002296  0E00               	movlw	0
  7594  002298  6F67               	movwf	(posicao@pos+3)& (0+255),b
  7595  00229A  0E00               	movlw	0
  7596  00229C  6F68               	movwf	posicao@total& (0+255),b
  7597  00229E  0E00               	movlw	0
  7598  0022A0  6F69               	movwf	(posicao@total+1)& (0+255),b
  7599  0022A2  0E00               	movlw	0
  7600  0022A4  6F6A               	movwf	(posicao@total+2)& (0+255),b
  7601  0022A6  0E00               	movlw	0
  7602  0022A8  6F6B               	movwf	(posicao@total+3)& (0+255),b
  7603                           
  7604                           ;./Seguidor.h: 45:     for (i = 1; i < 6; i++) {
  7605  0022AA  0E00               	movlw	0
  7606  0022AC  6F6D               	movwf	(posicao@i+1)& (0+255),b
  7607  0022AE  0E01               	movlw	1
  7608  0022B0  6F6C               	movwf	posicao@i& (0+255),b
  7609  0022B2                     i2l3980:
  7610                           
  7611                           ; BSR set to: 0
  7612                           ;./Seguidor.h: 46:         if (leitura[i] == 1) {
  7613  0022B2  0E00               	movlw	low _leitura
  7614  0022B4  6E5D               	movwf	??_posicao^0,c
  7615  0022B6  0E01               	movlw	high _leitura
  7616  0022B8  6E5E               	movwf	(??_posicao+1)^0,c
  7617  0022BA  90D8               	bcf	status,0,c
  7618  0022BC  356C               	rlcf	posicao@i& (0+255),w,b
  7619  0022BE  6ED9               	movwf	fsr2l,c
  7620  0022C0  356D               	rlcf	(posicao@i+1)& (0+255),w,b
  7621  0022C2  6EDA               	movwf	fsr2h,c
  7622  0022C4  90D8               	bcf	status,0,c
  7623  0022C6  36D9               	rlcf	fsr2l,f,c
  7624  0022C8  36DA               	rlcf	fsr2h,f,c
  7625  0022CA  505D               	movf	??_posicao^0,w,c
  7626  0022CC  26D9               	addwf	fsr2l,f,c
  7627  0022CE  505E               	movf	(??_posicao+1)^0,w,c
  7628  0022D0  22DA               	addwfc	fsr2h,f,c
  7629  0022D2  CFDE F001          	movff	postinc2,___fleq@ff1
  7630  0022D6  CFDE F002          	movff	postinc2,___fleq@ff1+1
  7631  0022DA  CFDE F003          	movff	postinc2,___fleq@ff1+2
  7632  0022DE  CFDE F004          	movff	postinc2,___fleq@ff1+3
  7633  0022E2  0E00               	movlw	0
  7634  0022E4  6E05               	movwf	___fleq@ff2^0,c
  7635  0022E6  0E00               	movlw	0
  7636  0022E8  6E06               	movwf	(___fleq@ff2+1)^0,c
  7637  0022EA  0E80               	movlw	128
  7638  0022EC  6E07               	movwf	(___fleq@ff2+2)^0,c
  7639  0022EE  0E3F               	movlw	63
  7640  0022F0  6E08               	movwf	(___fleq@ff2+3)^0,c
  7641  0022F2  EC52  F01B         	call	___fleq	;wreg free
  7642  0022F6  A0D8               	btfss	status,0,c
  7643  0022F8  EF80  F011         	goto	i2u432_41
  7644  0022FC  EF82  F011         	goto	i2u432_40
  7645  002300                     i2u432_41:
  7646  002300  EFB6  F011         	goto	i2l3984
  7647  002304                     i2u432_40:
  7648  002304                     
  7649                           ;./Seguidor.h: 47:             pos += 1;
  7650  002304  C064  F028         	movff	posicao@pos,___fladd@b
  7651  002308  C065  F029         	movff	posicao@pos+1,___fladd@b+1
  7652  00230C  C066  F02A         	movff	posicao@pos+2,___fladd@b+2
  7653  002310  C067  F02B         	movff	posicao@pos+3,___fladd@b+3
  7654  002314  0E00               	movlw	0
  7655  002316  6E2C               	movwf	___fladd@a^0,c
  7656  002318  0E00               	movlw	0
  7657  00231A  6E2D               	movwf	(___fladd@a+1)^0,c
  7658  00231C  0E80               	movlw	128
  7659  00231E  6E2E               	movwf	(___fladd@a+2)^0,c
  7660  002320  0E3F               	movlw	63
  7661  002322  6E2F               	movwf	(___fladd@a+3)^0,c
  7662  002324  EC3D  F004         	call	___fladd	;wreg free
  7663  002328  C028  F064         	movff	?___fladd,posicao@pos
  7664  00232C  C029  F065         	movff	?___fladd+1,posicao@pos+1
  7665  002330  C02A  F066         	movff	?___fladd+2,posicao@pos+2
  7666  002334  C02B  F067         	movff	?___fladd+3,posicao@pos+3
  7667                           
  7668                           ;./Seguidor.h: 48:             total += 1;
  7669  002338  C068  F028         	movff	posicao@total,___fladd@b
  7670  00233C  C069  F029         	movff	posicao@total+1,___fladd@b+1
  7671  002340  C06A  F02A         	movff	posicao@total+2,___fladd@b+2
  7672  002344  C06B  F02B         	movff	posicao@total+3,___fladd@b+3
  7673  002348  0E00               	movlw	0
  7674  00234A  6E2C               	movwf	___fladd@a^0,c
  7675  00234C  0E00               	movlw	0
  7676  00234E  6E2D               	movwf	(___fladd@a+1)^0,c
  7677  002350  0E80               	movlw	128
  7678  002352  6E2E               	movwf	(___fladd@a+2)^0,c
  7679  002354  0E3F               	movlw	63
  7680  002356  6E2F               	movwf	(___fladd@a+3)^0,c
  7681  002358  EC3D  F004         	call	___fladd	;wreg free
  7682  00235C  C028  F068         	movff	?___fladd,posicao@total
  7683  002360  C029  F069         	movff	?___fladd+1,posicao@total+1
  7684  002364  C02A  F06A         	movff	?___fladd+2,posicao@total+2
  7685  002368  C02B  F06B         	movff	?___fladd+3,posicao@total+3
  7686  00236C                     i2l3984:
  7687                           
  7688                           ;./Seguidor.h: 50:     }
  7689  00236C  0100               	movlb	0	; () banked
  7690  00236E  4B6C               	infsnz	posicao@i& (0+255),f,b
  7691  002370  2B6D               	incf	(posicao@i+1)& (0+255),f,b
  7692  002372                     
  7693                           ; BSR set to: 0
  7694  002372  BF6D               	btfsc	(posicao@i+1)& (0+255),7,b
  7695  002374  EFC5  F011         	goto	i2u433_41
  7696  002378  516D               	movf	(posicao@i+1)& (0+255),w,b
  7697  00237A  E109               	bnz	i2u433_40
  7698  00237C  0E06               	movlw	6
  7699  00237E  5D6C               	subwf	posicao@i& (0+255),w,b
  7700  002380  A0D8               	btfss	status,0,c
  7701  002382  EFC5  F011         	goto	i2u433_41
  7702  002386  EFC7  F011         	goto	i2u433_40
  7703  00238A                     i2u433_41:
  7704  00238A  EF59  F011         	goto	i2l3980
  7705  00238E                     i2u433_40:
  7706  00238E                     
  7707                           ; BSR set to: 0
  7708                           ;./Seguidor.h: 51:     if (total != 0) {
  7709  00238E  C068  F001         	movff	posicao@total,___fleq@ff1
  7710  002392  C069  F002         	movff	posicao@total+1,___fleq@ff1+1
  7711  002396  C06A  F003         	movff	posicao@total+2,___fleq@ff1+2
  7712  00239A  C06B  F004         	movff	posicao@total+3,___fleq@ff1+3
  7713  00239E  0E00               	movlw	0
  7714  0023A0  6E05               	movwf	___fleq@ff2^0,c
  7715  0023A2  0E00               	movlw	0
  7716  0023A4  6E06               	movwf	(___fleq@ff2+1)^0,c
  7717  0023A6  0E00               	movlw	0
  7718  0023A8  6E07               	movwf	(___fleq@ff2+2)^0,c
  7719  0023AA  0E00               	movlw	0
  7720  0023AC  6E08               	movwf	(___fleq@ff2+3)^0,c
  7721  0023AE  EC52  F01B         	call	___fleq	;wreg free
  7722  0023B2  B0D8               	btfsc	status,0,c
  7723  0023B4  EFDE  F011         	goto	i2u434_41
  7724  0023B8  EFE0  F011         	goto	i2u434_40
  7725  0023BC                     i2u434_41:
  7726  0023BC  EF04  F012         	goto	i2l319
  7727  0023C0                     i2u434_40:
  7728  0023C0                     
  7729                           ;./Seguidor.h: 52:         local = pos / total;
  7730  0023C0  C064  F040         	movff	posicao@pos,___fldiv@b
  7731  0023C4  C065  F041         	movff	posicao@pos+1,___fldiv@b+1
  7732  0023C8  C066  F042         	movff	posicao@pos+2,___fldiv@b+2
  7733  0023CC  C067  F043         	movff	posicao@pos+3,___fldiv@b+3
  7734  0023D0  C068  F044         	movff	posicao@total,___fldiv@a
  7735  0023D4  C069  F045         	movff	posicao@total+1,___fldiv@a+1
  7736  0023D8  C06A  F046         	movff	posicao@total+2,___fldiv@a+2
  7737  0023DC  C06B  F047         	movff	posicao@total+3,___fldiv@a+3
  7738  0023E0  ECC8  F00A         	call	___fldiv	;wreg free
  7739  0023E4  C040  F060         	movff	?___fldiv,posicao@local
  7740  0023E8  C041  F061         	movff	?___fldiv+1,posicao@local+1
  7741  0023EC  C042  F062         	movff	?___fldiv+2,posicao@local+2
  7742  0023F0  C043  F063         	movff	?___fldiv+3,posicao@local+3
  7743  0023F4                     
  7744                           ;./Seguidor.h: 53:         return local;
  7745  0023F4  C060  F059         	movff	posicao@local,?_posicao
  7746  0023F8  C061  F05A         	movff	posicao@local+1,?_posicao+1
  7747  0023FC  C062  F05B         	movff	posicao@local+2,?_posicao+2
  7748  002400  C063  F05C         	movff	posicao@local+3,?_posicao+3
  7749  002404  EF0C  F012         	goto	i2l320
  7750  002408                     i2l319:
  7751                           
  7752                           ;./Seguidor.h: 55:         return posin;
  7753  002408  C0C9  F059         	movff	_posin,?_posicao
  7754  00240C  C0CA  F05A         	movff	_posin+1,?_posicao+1
  7755  002410  C0CB  F05B         	movff	_posin+2,?_posicao+2
  7756  002414  C0CC  F05C         	movff	_posin+3,?_posicao+3
  7757  002418                     i2l320:
  7758  002418  0012               	return		;funcret
  7759  00241A                     __end_of_posicao:
  7760                           	opt callstack 0
  7761                           
  7762 ;; *************** function ___fldiv *****************
  7763 ;; Defined at:
  7764 ;;		line 11 in file "C:\Program Files (x86)\Microchip\xc8\v2.10\pic\sources\c99\common\sprcdiv.c"
  7765 ;; Parameters:    Size  Location     Type
  7766 ;;  b               4   63[COMRAM] int 
  7767 ;;  a               4   67[COMRAM] int 
  7768 ;; Auto vars:     Size  Location     Type
  7769 ;;  grs             4   82[COMRAM] unsigned long 
  7770 ;;  rem             4   75[COMRAM] unsigned long 
  7771 ;;  new_exp         2   80[COMRAM] short 
  7772 ;;  aexp            1   87[COMRAM] unsigned char 
  7773 ;;  bexp            1   86[COMRAM] unsigned char 
  7774 ;;  sign            1   79[COMRAM] unsigned char 
  7775 ;; Return value:  Size  Location     Type
  7776 ;;                  4   63[COMRAM] unsigned char 
  7777 ;; Registers used:
  7778 ;;		wreg, status,2, status,0
  7779 ;; Tracked objects:
  7780 ;;		On entry : 0/0
  7781 ;;		On exit  : 0/0
  7782 ;;		Unchanged: 0/0
  7783 ;; Data sizes:     COMRAM   BANK0   BANK1   BANK2
  7784 ;;      Params:         8       0       0       0
  7785 ;;      Locals:        13       0       0       0
  7786 ;;      Temps:          4       0       0       0
  7787 ;;      Totals:        25       0       0       0
  7788 ;;Total ram usage:       25 bytes
  7789 ;; Hardware stack levels used:    1
  7790 ;; This function calls:
  7791 ;;		Nothing
  7792 ;; This function is called by:
  7793 ;;		_posicao
  7794 ;;		_setPID
  7795 ;; This function uses a non-reentrant model
  7796 ;;
  7797                           
  7798                           	psect	text40
  7799  001590                     __ptext40:
  7800                           	opt callstack 0
  7801  001590                     ___fldiv:
  7802                           	opt callstack 23
  7803  001590  5043               	movf	(___fldiv@b+3)^0,w,c
  7804  001592  0B80               	andlw	128
  7805  001594  6E50               	movwf	___fldiv@sign^0,c
  7806  001596  5043               	movf	(___fldiv@b+3)^0,w,c
  7807  001598  2443               	addwf	(___fldiv@b+3)^0,w,c
  7808  00159A  6E57               	movwf	___fldiv@bexp^0,c
  7809  00159C  AE42               	btfss	(___fldiv@b+2)^0,7,c
  7810  00159E  EFD3  F00A         	goto	i2u368_41
  7811  0015A2  EFD5  F00A         	goto	i2u368_40
  7812  0015A6                     i2u368_41:
  7813  0015A6  EFD6  F00A         	goto	i2l3524
  7814  0015AA                     i2u368_40:
  7815  0015AA  8057               	bsf	___fldiv@bexp^0,0,c
  7816  0015AC                     i2l3524:
  7817  0015AC  5057               	movf	___fldiv@bexp^0,w,c
  7818  0015AE  B4D8               	btfsc	status,2,c
  7819  0015B0  EFDC  F00A         	goto	i2u369_41
  7820  0015B4  EFDE  F00A         	goto	i2u369_40
  7821  0015B8                     i2u369_41:
  7822  0015B8  EFF3  F00A         	goto	i2l3534
  7823  0015BC                     i2u369_40:
  7824  0015BC  2857               	incf	___fldiv@bexp^0,w,c
  7825  0015BE  A4D8               	btfss	status,2,c
  7826  0015C0  EFE4  F00A         	goto	i2u370_41
  7827  0015C4  EFE6  F00A         	goto	i2u370_40
  7828  0015C8                     i2u370_41:
  7829  0015C8  EFEE  F00A         	goto	i2l3530
  7830  0015CC                     i2u370_40:
  7831  0015CC  0E00               	movlw	0
  7832  0015CE  6E40               	movwf	___fldiv@b^0,c
  7833  0015D0  0E00               	movlw	0
  7834  0015D2  6E41               	movwf	(___fldiv@b+1)^0,c
  7835  0015D4  0E00               	movlw	0
  7836  0015D6  6E42               	movwf	(___fldiv@b+2)^0,c
  7837  0015D8  0E00               	movlw	0
  7838  0015DA  6E43               	movwf	(___fldiv@b+3)^0,c
  7839  0015DC                     i2l3530:
  7840  0015DC  8E42               	bsf	(___fldiv@b+2)^0,7,c
  7841  0015DE  0E00               	movlw	0
  7842  0015E0  6E43               	movwf	(___fldiv@b+3)^0,c
  7843  0015E2  EFFB  F00A         	goto	i2l3536
  7844  0015E6                     i2l3534:
  7845  0015E6  0E00               	movlw	0
  7846  0015E8  6E40               	movwf	___fldiv@b^0,c
  7847  0015EA  0E00               	movlw	0
  7848  0015EC  6E41               	movwf	(___fldiv@b+1)^0,c
  7849  0015EE  0E00               	movlw	0
  7850  0015F0  6E42               	movwf	(___fldiv@b+2)^0,c
  7851  0015F2  0E00               	movlw	0
  7852  0015F4  6E43               	movwf	(___fldiv@b+3)^0,c
  7853  0015F6                     i2l3536:
  7854  0015F6  5047               	movf	(___fldiv@a+3)^0,w,c
  7855  0015F8  0B80               	andlw	128
  7856  0015FA  1A50               	xorwf	___fldiv@sign^0,f,c
  7857  0015FC  5047               	movf	(___fldiv@a+3)^0,w,c
  7858  0015FE  2447               	addwf	(___fldiv@a+3)^0,w,c
  7859  001600  6E58               	movwf	___fldiv@aexp^0,c
  7860  001602  AE46               	btfss	(___fldiv@a+2)^0,7,c
  7861  001604  EF06  F00B         	goto	i2u371_41
  7862  001608  EF08  F00B         	goto	i2u371_40
  7863  00160C                     i2u371_41:
  7864  00160C  EF09  F00B         	goto	i2l3544
  7865  001610                     i2u371_40:
  7866  001610  8058               	bsf	___fldiv@aexp^0,0,c
  7867  001612                     i2l3544:
  7868  001612  5058               	movf	___fldiv@aexp^0,w,c
  7869  001614  B4D8               	btfsc	status,2,c
  7870  001616  EF0F  F00B         	goto	i2u372_41
  7871  00161A  EF11  F00B         	goto	i2u372_40
  7872  00161E                     i2u372_41:
  7873  00161E  EF26  F00B         	goto	i2l3554
  7874  001622                     i2u372_40:
  7875  001622  2858               	incf	___fldiv@aexp^0,w,c
  7876  001624  A4D8               	btfss	status,2,c
  7877  001626  EF17  F00B         	goto	i2u373_41
  7878  00162A  EF19  F00B         	goto	i2u373_40
  7879  00162E                     i2u373_41:
  7880  00162E  EF21  F00B         	goto	i2l3550
  7881  001632                     i2u373_40:
  7882  001632  0E00               	movlw	0
  7883  001634  6E44               	movwf	___fldiv@a^0,c
  7884  001636  0E00               	movlw	0
  7885  001638  6E45               	movwf	(___fldiv@a+1)^0,c
  7886  00163A  0E00               	movlw	0
  7887  00163C  6E46               	movwf	(___fldiv@a+2)^0,c
  7888  00163E  0E00               	movlw	0
  7889  001640  6E47               	movwf	(___fldiv@a+3)^0,c
  7890  001642                     i2l3550:
  7891  001642  8E46               	bsf	(___fldiv@a+2)^0,7,c
  7892  001644  0E00               	movlw	0
  7893  001646  6E47               	movwf	(___fldiv@a+3)^0,c
  7894  001648  EF2E  F00B         	goto	i2l3556
  7895  00164C                     i2l3554:
  7896  00164C  0E00               	movlw	0
  7897  00164E  6E44               	movwf	___fldiv@a^0,c
  7898  001650  0E00               	movlw	0
  7899  001652  6E45               	movwf	(___fldiv@a+1)^0,c
  7900  001654  0E00               	movlw	0
  7901  001656  6E46               	movwf	(___fldiv@a+2)^0,c
  7902  001658  0E00               	movlw	0
  7903  00165A  6E47               	movwf	(___fldiv@a+3)^0,c
  7904  00165C                     i2l3556:
  7905  00165C  5044               	movf	___fldiv@a^0,w,c
  7906  00165E  1045               	iorwf	(___fldiv@a+1)^0,w,c
  7907  001660  1046               	iorwf	(___fldiv@a+2)^0,w,c
  7908  001662  1047               	iorwf	(___fldiv@a+3)^0,w,c
  7909  001664  A4D8               	btfss	status,2,c
  7910  001666  EF37  F00B         	goto	i2u374_41
  7911  00166A  EF39  F00B         	goto	i2u374_40
  7912  00166E                     i2u374_41:
  7913  00166E  EF51  F00B         	goto	i2l3568
  7914  001672                     i2u374_40:
  7915  001672  0E00               	movlw	0
  7916  001674  6E40               	movwf	___fldiv@b^0,c
  7917  001676  0E00               	movlw	0
  7918  001678  6E41               	movwf	(___fldiv@b+1)^0,c
  7919  00167A  0E00               	movlw	0
  7920  00167C  6E42               	movwf	(___fldiv@b+2)^0,c
  7921  00167E  0E00               	movlw	0
  7922  001680  6E43               	movwf	(___fldiv@b+3)^0,c
  7923  001682  0E80               	movlw	128
  7924  001684  1242               	iorwf	(___fldiv@b+2)^0,f,c
  7925  001686  0E7F               	movlw	127
  7926  001688  1243               	iorwf	(___fldiv@b+3)^0,f,c
  7927  00168A                     i2l3562:
  7928  00168A  5050               	movf	___fldiv@sign^0,w,c
  7929  00168C  1243               	iorwf	(___fldiv@b+3)^0,f,c
  7930  00168E  C040  F040         	movff	___fldiv@b,?___fldiv
  7931  001692  C041  F041         	movff	___fldiv@b+1,?___fldiv+1
  7932  001696  C042  F042         	movff	___fldiv@b+2,?___fldiv+2
  7933  00169A  C043  F043         	movff	___fldiv@b+3,?___fldiv+3
  7934  00169E  EF94  F00C         	goto	i2l954
  7935  0016A2                     i2l3568:
  7936  0016A2  5057               	movf	___fldiv@bexp^0,w,c
  7937  0016A4  A4D8               	btfss	status,2,c
  7938  0016A6  EF57  F00B         	goto	i2u375_41
  7939  0016AA  EF59  F00B         	goto	i2u375_40
  7940  0016AE                     i2u375_41:
  7941  0016AE  EF63  F00B         	goto	i2l3576
  7942  0016B2                     i2u375_40:
  7943  0016B2  0E00               	movlw	0
  7944  0016B4  6E40               	movwf	?___fldiv^0,c
  7945  0016B6  0E00               	movlw	0
  7946  0016B8  6E41               	movwf	(?___fldiv+1)^0,c
  7947  0016BA  0E00               	movlw	0
  7948  0016BC  6E42               	movwf	(?___fldiv+2)^0,c
  7949  0016BE  0E00               	movlw	0
  7950  0016C0  6E43               	movwf	(?___fldiv+3)^0,c
  7951  0016C2  EF94  F00C         	goto	i2l954
  7952  0016C6                     i2l3576:
  7953  0016C6  5058               	movf	___fldiv@aexp^0,w,c
  7954  0016C8  C057  F048         	movff	___fldiv@bexp,??___fldiv
  7955  0016CC  6A49               	clrf	(??___fldiv+1)^0,c
  7956  0016CE  5E48               	subwf	??___fldiv^0,f,c
  7957  0016D0  0E00               	movlw	0
  7958  0016D2  5A49               	subwfb	(??___fldiv+1)^0,f,c
  7959  0016D4  0E7F               	movlw	127
  7960  0016D6  2448               	addwf	??___fldiv^0,w,c
  7961  0016D8  6E51               	movwf	___fldiv@new_exp^0,c
  7962  0016DA  0E00               	movlw	0
  7963  0016DC  2049               	addwfc	(??___fldiv+1)^0,w,c
  7964  0016DE  6E52               	movwf	(___fldiv@new_exp+1)^0,c
  7965  0016E0  C040  F04C         	movff	___fldiv@b,___fldiv@rem
  7966  0016E4  C041  F04D         	movff	___fldiv@b+1,___fldiv@rem+1
  7967  0016E8  C042  F04E         	movff	___fldiv@b+2,___fldiv@rem+2
  7968  0016EC  C043  F04F         	movff	___fldiv@b+3,___fldiv@rem+3
  7969  0016F0  0E00               	movlw	0
  7970  0016F2  6E40               	movwf	___fldiv@b^0,c
  7971  0016F4  0E00               	movlw	0
  7972  0016F6  6E41               	movwf	(___fldiv@b+1)^0,c
  7973  0016F8  0E00               	movlw	0
  7974  0016FA  6E42               	movwf	(___fldiv@b+2)^0,c
  7975  0016FC  0E00               	movlw	0
  7976  0016FE  6E43               	movwf	(___fldiv@b+3)^0,c
  7977  001700  0E00               	movlw	0
  7978  001702  6E53               	movwf	___fldiv@grs^0,c
  7979  001704  0E00               	movlw	0
  7980  001706  6E54               	movwf	(___fldiv@grs+1)^0,c
  7981  001708  0E00               	movlw	0
  7982  00170A  6E55               	movwf	(___fldiv@grs+2)^0,c
  7983  00170C  0E00               	movlw	0
  7984  00170E  6E56               	movwf	(___fldiv@grs+3)^0,c
  7985  001710  0E00               	movlw	0
  7986  001712  6E58               	movwf	___fldiv@aexp^0,c
  7987  001714  EFC4  F00B         	goto	i2l956
  7988  001718                     i2l3586:
  7989  001718  5058               	movf	___fldiv@aexp^0,w,c
  7990  00171A  B4D8               	btfsc	status,2,c
  7991  00171C  EF92  F00B         	goto	i2u376_41
  7992  001720  EF94  F00B         	goto	i2u376_40
  7993  001724                     i2u376_41:
  7994  001724  EFAB  F00B         	goto	i2l3594
  7995  001728                     i2u376_40:
  7996  001728  90D8               	bcf	status,0,c
  7997  00172A  364C               	rlcf	___fldiv@rem^0,f,c
  7998  00172C  364D               	rlcf	(___fldiv@rem+1)^0,f,c
  7999  00172E  364E               	rlcf	(___fldiv@rem+2)^0,f,c
  8000  001730  364F               	rlcf	(___fldiv@rem+3)^0,f,c
  8001  001732  90D8               	bcf	status,0,c
  8002  001734  3640               	rlcf	___fldiv@b^0,f,c
  8003  001736  3641               	rlcf	(___fldiv@b+1)^0,f,c
  8004  001738  3642               	rlcf	(___fldiv@b+2)^0,f,c
  8005  00173A  3643               	rlcf	(___fldiv@b+3)^0,f,c
  8006  00173C  AE56               	btfss	(___fldiv@grs+3)^0,7,c
  8007  00173E  EFA3  F00B         	goto	i2u377_41
  8008  001742  EFA5  F00B         	goto	i2u377_40
  8009  001746                     i2u377_41:
  8010  001746  EFA6  F00B         	goto	i2l959
  8011  00174A                     i2u377_40:
  8012  00174A  8040               	bsf	___fldiv@b^0,0,c
  8013  00174C                     i2l959:
  8014  00174C  90D8               	bcf	status,0,c
  8015  00174E  3653               	rlcf	___fldiv@grs^0,f,c
  8016  001750  3654               	rlcf	(___fldiv@grs+1)^0,f,c
  8017  001752  3655               	rlcf	(___fldiv@grs+2)^0,f,c
  8018  001754  3656               	rlcf	(___fldiv@grs+3)^0,f,c
  8019  001756                     i2l3594:
  8020  001756  5044               	movf	___fldiv@a^0,w,c
  8021  001758  5C4C               	subwf	___fldiv@rem^0,w,c
  8022  00175A  5045               	movf	(___fldiv@a+1)^0,w,c
  8023  00175C  584D               	subwfb	(___fldiv@rem+1)^0,w,c
  8024  00175E  5046               	movf	(___fldiv@a+2)^0,w,c
  8025  001760  584E               	subwfb	(___fldiv@rem+2)^0,w,c
  8026  001762  5047               	movf	(___fldiv@a+3)^0,w,c
  8027  001764  584F               	subwfb	(___fldiv@rem+3)^0,w,c
  8028  001766  A0D8               	btfss	status,0,c
  8029  001768  EFB8  F00B         	goto	i2u378_41
  8030  00176C  EFBA  F00B         	goto	i2u378_40
  8031  001770                     i2u378_41:
  8032  001770  EFC3  F00B         	goto	i2l3600
  8033  001774                     i2u378_40:
  8034  001774  8C56               	bsf	(___fldiv@grs+3)^0,6,c
  8035  001776  5044               	movf	___fldiv@a^0,w,c
  8036  001778  5E4C               	subwf	___fldiv@rem^0,f,c
  8037  00177A  5045               	movf	(___fldiv@a+1)^0,w,c
  8038  00177C  5A4D               	subwfb	(___fldiv@rem+1)^0,f,c
  8039  00177E  5046               	movf	(___fldiv@a+2)^0,w,c
  8040  001780  5A4E               	subwfb	(___fldiv@rem+2)^0,f,c
  8041  001782  5047               	movf	(___fldiv@a+3)^0,w,c
  8042  001784  5A4F               	subwfb	(___fldiv@rem+3)^0,f,c
  8043  001786                     i2l3600:
  8044  001786  2A58               	incf	___fldiv@aexp^0,f,c
  8045  001788                     i2l956:
  8046  001788  0E19               	movlw	25
  8047  00178A  6458               	cpfsgt	___fldiv@aexp^0,c
  8048  00178C  EFCA  F00B         	goto	i2u379_41
  8049  001790  EFCC  F00B         	goto	i2u379_40
  8050  001794                     i2u379_41:
  8051  001794  EF8C  F00B         	goto	i2l3586
  8052  001798                     i2u379_40:
  8053  001798  504C               	movf	___fldiv@rem^0,w,c
  8054  00179A  104D               	iorwf	(___fldiv@rem+1)^0,w,c
  8055  00179C  104E               	iorwf	(___fldiv@rem+2)^0,w,c
  8056  00179E  104F               	iorwf	(___fldiv@rem+3)^0,w,c
  8057  0017A0  B4D8               	btfsc	status,2,c
  8058  0017A2  EFD5  F00B         	goto	i2u380_41
  8059  0017A6  EFD7  F00B         	goto	i2u380_40
  8060  0017AA                     i2u380_41:
  8061  0017AA  EFEF  F00B         	goto	i2l3612
  8062  0017AE                     i2u380_40:
  8063  0017AE  8053               	bsf	___fldiv@grs^0,0,c
  8064  0017B0  EFEF  F00B         	goto	i2l3612
  8065  0017B4                     i2l3606:
  8066  0017B4  90D8               	bcf	status,0,c
  8067  0017B6  3640               	rlcf	___fldiv@b^0,f,c
  8068  0017B8  3641               	rlcf	(___fldiv@b+1)^0,f,c
  8069  0017BA  3642               	rlcf	(___fldiv@b+2)^0,f,c
  8070  0017BC  3643               	rlcf	(___fldiv@b+3)^0,f,c
  8071  0017BE  AE56               	btfss	(___fldiv@grs+3)^0,7,c
  8072  0017C0  EFE4  F00B         	goto	i2u381_41
  8073  0017C4  EFE6  F00B         	goto	i2u381_40
  8074  0017C8                     i2u381_41:
  8075  0017C8  EFE7  F00B         	goto	i2l965
  8076  0017CC                     i2u381_40:
  8077  0017CC  8040               	bsf	___fldiv@b^0,0,c
  8078  0017CE                     i2l965:
  8079  0017CE  90D8               	bcf	status,0,c
  8080  0017D0  3653               	rlcf	___fldiv@grs^0,f,c
  8081  0017D2  3654               	rlcf	(___fldiv@grs+1)^0,f,c
  8082  0017D4  3655               	rlcf	(___fldiv@grs+2)^0,f,c
  8083  0017D6  3656               	rlcf	(___fldiv@grs+3)^0,f,c
  8084  0017D8  0651               	decf	___fldiv@new_exp^0,f,c
  8085  0017DA  A0D8               	btfss	status,0,c
  8086  0017DC  0652               	decf	(___fldiv@new_exp+1)^0,f,c
  8087  0017DE                     i2l3612:
  8088  0017DE  AE42               	btfss	(___fldiv@b+2)^0,7,c
  8089  0017E0  EFF4  F00B         	goto	i2u382_41
  8090  0017E4  EFF6  F00B         	goto	i2u382_40
  8091  0017E8                     i2u382_41:
  8092  0017E8  EFDA  F00B         	goto	i2l3606
  8093  0017EC                     i2u382_40:
  8094  0017EC  0E00               	movlw	0
  8095  0017EE  6E58               	movwf	___fldiv@aexp^0,c
  8096  0017F0  AE56               	btfss	(___fldiv@grs+3)^0,7,c
  8097  0017F2  EFFD  F00B         	goto	i2u383_41
  8098  0017F6  EFFF  F00B         	goto	i2u383_40
  8099  0017FA                     i2u383_41:
  8100  0017FA  EF23  F00C         	goto	i2l967
  8101  0017FE                     i2u383_40:
  8102  0017FE  0EFF               	movlw	255
  8103  001800  1453               	andwf	___fldiv@grs^0,w,c
  8104  001802  6E48               	movwf	??___fldiv^0,c
  8105  001804  0EFF               	movlw	255
  8106  001806  1454               	andwf	(___fldiv@grs+1)^0,w,c
  8107  001808  6E49               	movwf	(??___fldiv+1)^0,c
  8108  00180A  0EFF               	movlw	255
  8109  00180C  1455               	andwf	(___fldiv@grs+2)^0,w,c
  8110  00180E  6E4A               	movwf	(??___fldiv+2)^0,c
  8111  001810  0E7F               	movlw	127
  8112  001812  1456               	andwf	(___fldiv@grs+3)^0,w,c
  8113  001814  6E4B               	movwf	(??___fldiv+3)^0,c
  8114  001816  5048               	movf	??___fldiv^0,w,c
  8115  001818  1049               	iorwf	(??___fldiv+1)^0,w,c
  8116  00181A  104A               	iorwf	(??___fldiv+2)^0,w,c
  8117  00181C  104B               	iorwf	(??___fldiv+3)^0,w,c
  8118  00181E  B4D8               	btfsc	status,2,c
  8119  001820  EF14  F00C         	goto	i2u384_41
  8120  001824  EF16  F00C         	goto	i2u384_40
  8121  001828                     i2u384_41:
  8122  001828  EF1A  F00C         	goto	i2l968
  8123  00182C                     i2u384_40:
  8124  00182C                     i2l3620:
  8125  00182C  0E01               	movlw	1
  8126  00182E  6E58               	movwf	___fldiv@aexp^0,c
  8127  001830  EF23  F00C         	goto	i2l967
  8128  001834                     i2l968:
  8129  001834  A040               	btfss	___fldiv@b^0,0,c
  8130  001836  EF1F  F00C         	goto	i2u385_41
  8131  00183A  EF21  F00C         	goto	i2u385_40
  8132  00183E                     i2u385_41:
  8133  00183E  EF23  F00C         	goto	i2l967
  8134  001842                     i2u385_40:
  8135  001842  EF16  F00C         	goto	i2l3620
  8136  001846                     i2l967:
  8137  001846  5058               	movf	___fldiv@aexp^0,w,c
  8138  001848  B4D8               	btfsc	status,2,c
  8139  00184A  EF29  F00C         	goto	i2u386_41
  8140  00184E  EF2B  F00C         	goto	i2u386_40
  8141  001852                     i2u386_41:
  8142  001852  EF4F  F00C         	goto	i2l3632
  8143  001856                     i2u386_40:
  8144  001856  0E01               	movlw	1
  8145  001858  2640               	addwf	___fldiv@b^0,f,c
  8146  00185A  0E00               	movlw	0
  8147  00185C  2241               	addwfc	(___fldiv@b+1)^0,f,c
  8148  00185E  2242               	addwfc	(___fldiv@b+2)^0,f,c
  8149  001860  2243               	addwfc	(___fldiv@b+3)^0,f,c
  8150  001862  A043               	btfss	(___fldiv@b+3)^0,0,c
  8151  001864  EF36  F00C         	goto	i2u387_41
  8152  001868  EF38  F00C         	goto	i2u387_40
  8153  00186C                     i2u387_41:
  8154  00186C  EF4F  F00C         	goto	i2l3632
  8155  001870                     i2u387_40:
  8156  001870  C040  F048         	movff	___fldiv@b,??___fldiv
  8157  001874  C041  F049         	movff	___fldiv@b+1,??___fldiv+1
  8158  001878  C042  F04A         	movff	___fldiv@b+2,??___fldiv+2
  8159  00187C  C043  F04B         	movff	___fldiv@b+3,??___fldiv+3
  8160  001880  344B               	rlcf	(??___fldiv+3)^0,w,c
  8161  001882  324B               	rrcf	(??___fldiv+3)^0,f,c
  8162  001884  324A               	rrcf	(??___fldiv+2)^0,f,c
  8163  001886  3249               	rrcf	(??___fldiv+1)^0,f,c
  8164  001888  3248               	rrcf	??___fldiv^0,f,c
  8165  00188A  C048  F040         	movff	??___fldiv,___fldiv@b
  8166  00188E  C049  F041         	movff	??___fldiv+1,___fldiv@b+1
  8167  001892  C04A  F042         	movff	??___fldiv+2,___fldiv@b+2
  8168  001896  C04B  F043         	movff	??___fldiv+3,___fldiv@b+3
  8169  00189A  4A51               	infsnz	___fldiv@new_exp^0,f,c
  8170  00189C  2A52               	incf	(___fldiv@new_exp+1)^0,f,c
  8171  00189E                     i2l3632:
  8172  00189E  BE52               	btfsc	(___fldiv@new_exp+1)^0,7,c
  8173  0018A0  EF5A  F00C         	goto	i2u388_41
  8174  0018A4  5052               	movf	(___fldiv@new_exp+1)^0,w,c
  8175  0018A6  E108               	bnz	i2u388_40
  8176  0018A8  2851               	incf	___fldiv@new_exp^0,w,c
  8177  0018AA  A0D8               	btfss	status,0,c
  8178  0018AC  EF5A  F00C         	goto	i2u388_41
  8179  0018B0  EF5C  F00C         	goto	i2u388_40
  8180  0018B4                     i2u388_41:
  8181  0018B4  EF67  F00C         	goto	i2l3636
  8182  0018B8                     i2u388_40:
  8183  0018B8  0E00               	movlw	0
  8184  0018BA  6E52               	movwf	(___fldiv@new_exp+1)^0,c
  8185  0018BC  6851               	setf	___fldiv@new_exp^0,c
  8186  0018BE  0E00               	movlw	0
  8187  0018C0  6E40               	movwf	___fldiv@b^0,c
  8188  0018C2  0E00               	movlw	0
  8189  0018C4  6E41               	movwf	(___fldiv@b+1)^0,c
  8190  0018C6  0E00               	movlw	0
  8191  0018C8  6E42               	movwf	(___fldiv@b+2)^0,c
  8192  0018CA  0E00               	movlw	0
  8193  0018CC  6E43               	movwf	(___fldiv@b+3)^0,c
  8194  0018CE                     i2l3636:
  8195  0018CE  BE52               	btfsc	(___fldiv@new_exp+1)^0,7,c
  8196  0018D0  EF74  F00C         	goto	i2u389_40
  8197  0018D4  5052               	movf	(___fldiv@new_exp+1)^0,w,c
  8198  0018D6  E106               	bnz	i2u389_41
  8199  0018D8  0451               	decf	___fldiv@new_exp^0,w,c
  8200  0018DA  B0D8               	btfsc	status,0,c
  8201  0018DC  EF72  F00C         	goto	i2u389_41
  8202  0018E0  EF74  F00C         	goto	i2u389_40
  8203  0018E4                     i2u389_41:
  8204  0018E4  EF82  F00C         	goto	i2l3640
  8205  0018E8                     i2u389_40:
  8206  0018E8  0E00               	movlw	0
  8207  0018EA  6E52               	movwf	(___fldiv@new_exp+1)^0,c
  8208  0018EC  0E00               	movlw	0
  8209  0018EE  6E51               	movwf	___fldiv@new_exp^0,c
  8210  0018F0  0E00               	movlw	0
  8211  0018F2  6E40               	movwf	___fldiv@b^0,c
  8212  0018F4  0E00               	movlw	0
  8213  0018F6  6E41               	movwf	(___fldiv@b+1)^0,c
  8214  0018F8  0E00               	movlw	0
  8215  0018FA  6E42               	movwf	(___fldiv@b+2)^0,c
  8216  0018FC  0E00               	movlw	0
  8217  0018FE  6E43               	movwf	(___fldiv@b+3)^0,c
  8218  001900  0E00               	movlw	0
  8219  001902  6E50               	movwf	___fldiv@sign^0,c
  8220  001904                     i2l3640:
  8221  001904  C051  F057         	movff	___fldiv@new_exp,___fldiv@bexp
  8222  001908  A057               	btfss	___fldiv@bexp^0,0,c
  8223  00190A  EF89  F00C         	goto	i2u390_41
  8224  00190E  EF8B  F00C         	goto	i2u390_40
  8225  001912                     i2u390_41:
  8226  001912  EF8E  F00C         	goto	i2l3646
  8227  001916                     i2u390_40:
  8228  001916  8E42               	bsf	(___fldiv@b+2)^0,7,c
  8229  001918  EF8F  F00C         	goto	i2l3648
  8230  00191C                     i2l3646:
  8231  00191C  9E42               	bcf	(___fldiv@b+2)^0,7,c
  8232  00191E                     i2l3648:
  8233  00191E  90D8               	bcf	status,0,c
  8234  001920  3057               	rrcf	___fldiv@bexp^0,w,c
  8235  001922  6E43               	movwf	(___fldiv@b+3)^0,c
  8236  001924  EF45  F00B         	goto	i2l3562
  8237  001928                     i2l954:
  8238  001928  0012               	return		;funcret
  8239  00192A                     __end_of___fldiv:
  8240                           	opt callstack 0
  8241                           
  8242 ;; *************** function _moverMotor *****************
  8243 ;; Defined at:
  8244 ;;		line 74 in file "./Seguidor.h"
  8245 ;; Parameters:    Size  Location     Type
  8246 ;;  PID             4   76[COMRAM] unsigned char 
  8247 ;; Auto vars:     Size  Location     Type
  8248 ;;		None
  8249 ;; Return value:  Size  Location     Type
  8250 ;;                  1    wreg      void 
  8251 ;; Registers used:
  8252 ;;		wreg, status,2, status,0, prodl, prodh, cstack
  8253 ;; Tracked objects:
  8254 ;;		On entry : 0/0
  8255 ;;		On exit  : 0/0
  8256 ;;		Unchanged: 0/0
  8257 ;; Data sizes:     COMRAM   BANK0   BANK1   BANK2
  8258 ;;      Params:         4       0       0       0
  8259 ;;      Locals:         0       0       0       0
  8260 ;;      Temps:          0       0       0       0
  8261 ;;      Totals:         4       0       0       0
  8262 ;;Total ram usage:        4 bytes
  8263 ;; Hardware stack levels used:    1
  8264 ;; Hardware stack levels required when called:    3
  8265 ;; This function calls:
  8266 ;;		___fladd
  8267 ;;		___fleq
  8268 ;;		___flsub
  8269 ;;		_lados
  8270 ;;		i2___fltol
  8271 ;;		i2___xxtofl
  8272 ;; This function is called by:
  8273 ;;		_setPID
  8274 ;; This function uses a non-reentrant model
  8275 ;;
  8276                           
  8277                           	psect	text41
  8278  002A5E                     __ptext41:
  8279                           	opt callstack 0
  8280  002A5E                     _moverMotor:
  8281                           	opt callstack 21
  8282  002A5E                     
  8283                           ;./Seguidor.h: 74: void moverMotor(double PID);./Seguidor.h: 75: {;./Seguidor.h: 76:    
      +                           if (PID == 0) {
  8284  002A5E  C04D  F001         	movff	moverMotor@PID,___fleq@ff1
  8285  002A62  C04E  F002         	movff	moverMotor@PID+1,___fleq@ff1+1
  8286  002A66  C04F  F003         	movff	moverMotor@PID+2,___fleq@ff1+2
  8287  002A6A  C050  F004         	movff	moverMotor@PID+3,___fleq@ff1+3
  8288  002A6E  0E00               	movlw	0
  8289  002A70  6E05               	movwf	___fleq@ff2^0,c
  8290  002A72  0E00               	movlw	0
  8291  002A74  6E06               	movwf	(___fleq@ff2+1)^0,c
  8292  002A76  0E00               	movlw	0
  8293  002A78  6E07               	movwf	(___fleq@ff2+2)^0,c
  8294  002A7A  0E00               	movlw	0
  8295  002A7C  6E08               	movwf	(___fleq@ff2+3)^0,c
  8296  002A7E  EC52  F01B         	call	___fleq	;wreg free
  8297  002A82  A0D8               	btfss	status,0,c
  8298  002A84  EF46  F015         	goto	i2u435_41
  8299  002A88  EF48  F015         	goto	i2u435_40
  8300  002A8C                     i2u435_41:
  8301  002A8C  EF58  F015         	goto	i2l4002
  8302  002A90                     i2u435_40:
  8303  002A90                     
  8304                           ;./Seguidor.h: 77:         lados('e', bspeed);
  8305  002A90  C0DD  F04A         	movff	_bspeed,lados@porcVelo
  8306  002A94  C0DE  F04B         	movff	_bspeed+1,lados@porcVelo+1
  8307  002A98  0E65               	movlw	101
  8308  002A9A  EC2B  F01C         	call	_lados
  8309                           
  8310                           ;./Seguidor.h: 78:         lados('d', bspeed);
  8311  002A9E  C0DD  F04A         	movff	_bspeed,lados@porcVelo
  8312  002AA2  C0DE  F04B         	movff	_bspeed+1,lados@porcVelo+1
  8313  002AA6  0E64               	movlw	100
  8314  002AA8  EC2B  F01C         	call	_lados
  8315                           
  8316                           ;./Seguidor.h: 79:     } else {
  8317  002AAC  EFB6  F015         	goto	i2l331
  8318  002AB0                     i2l4002:
  8319                           
  8320                           ;./Seguidor.h: 80:         lados('e', bspeed + PID);
  8321  002AB0  C04D  F02C         	movff	moverMotor@PID,___fladd@a
  8322  002AB4  C04E  F02D         	movff	moverMotor@PID+1,___fladd@a+1
  8323  002AB8  C04F  F02E         	movff	moverMotor@PID+2,___fladd@a+2
  8324  002ABC  C050  F02F         	movff	moverMotor@PID+3,___fladd@a+3
  8325  002AC0  C0DD  F001         	movff	_bspeed,i2___xxtofl@val
  8326  002AC4  C0DE  F002         	movff	_bspeed+1,i2___xxtofl@val+1
  8327  002AC8  0E00               	movlw	0
  8328  002ACA  BE02               	btfsc	(i2___xxtofl@val+1)^0,7,c
  8329  002ACC  0EFF               	movlw	-1
  8330  002ACE  6E03               	movwf	(i2___xxtofl@val+2)^0,c
  8331  002AD0  6E04               	movwf	(i2___xxtofl@val+3)^0,c
  8332  002AD2  0E01               	movlw	1
  8333  002AD4  EC6A  F010         	call	i2___xxtofl
  8334  002AD8  C001  F028         	movff	?i2___xxtofl,___fladd@b
  8335  002ADC  C002  F029         	movff	?i2___xxtofl+1,___fladd@b+1
  8336  002AE0  C003  F02A         	movff	?i2___xxtofl+2,___fladd@b+2
  8337  002AE4  C004  F02B         	movff	?i2___xxtofl+3,___fladd@b+3
  8338  002AE8  EC3D  F004         	call	___fladd	;wreg free
  8339  002AEC  C028  F040         	movff	?___fladd,i2___fltol@f1
  8340  002AF0  C029  F041         	movff	?___fladd+1,i2___fltol@f1+1
  8341  002AF4  C02A  F042         	movff	?___fladd+2,i2___fltol@f1+2
  8342  002AF8  C02B  F043         	movff	?___fladd+3,i2___fltol@f1+3
  8343  002AFC  EC3B  F016         	call	i2___fltol	;wreg free
  8344  002B00  C040  F04A         	movff	?i2___fltol,lados@porcVelo
  8345  002B04  C041  F04B         	movff	?i2___fltol+1,lados@porcVelo+1
  8346  002B08  0E65               	movlw	101
  8347  002B0A  EC2B  F01C         	call	_lados
  8348                           
  8349                           ;./Seguidor.h: 81:         lados('d', bspeed - PID);
  8350  002B0E  C04D  F03C         	movff	moverMotor@PID,___flsub@a
  8351  002B12  C04E  F03D         	movff	moverMotor@PID+1,___flsub@a+1
  8352  002B16  C04F  F03E         	movff	moverMotor@PID+2,___flsub@a+2
  8353  002B1A  C050  F03F         	movff	moverMotor@PID+3,___flsub@a+3
  8354  002B1E  C0DD  F001         	movff	_bspeed,i2___xxtofl@val
  8355  002B22  C0DE  F002         	movff	_bspeed+1,i2___xxtofl@val+1
  8356  002B26  0E00               	movlw	0
  8357  002B28  BE02               	btfsc	(i2___xxtofl@val+1)^0,7,c
  8358  002B2A  0EFF               	movlw	-1
  8359  002B2C  6E03               	movwf	(i2___xxtofl@val+2)^0,c
  8360  002B2E  6E04               	movwf	(i2___xxtofl@val+3)^0,c
  8361  002B30  0E01               	movlw	1
  8362  002B32  EC6A  F010         	call	i2___xxtofl
  8363  002B36  C001  F038         	movff	?i2___xxtofl,___flsub@b
  8364  002B3A  C002  F039         	movff	?i2___xxtofl+1,___flsub@b+1
  8365  002B3E  C003  F03A         	movff	?i2___xxtofl+2,___flsub@b+2
  8366  002B42  C004  F03B         	movff	?i2___xxtofl+3,___flsub@b+3
  8367  002B46  ECD2  F01C         	call	___flsub	;wreg free
  8368  002B4A  C038  F040         	movff	?___flsub,i2___fltol@f1
  8369  002B4E  C039  F041         	movff	?___flsub+1,i2___fltol@f1+1
  8370  002B52  C03A  F042         	movff	?___flsub+2,i2___fltol@f1+2
  8371  002B56  C03B  F043         	movff	?___flsub+3,i2___fltol@f1+3
  8372  002B5A  EC3B  F016         	call	i2___fltol	;wreg free
  8373  002B5E  C040  F04A         	movff	?i2___fltol,lados@porcVelo
  8374  002B62  C041  F04B         	movff	?i2___fltol+1,lados@porcVelo+1
  8375  002B66  0E64               	movlw	100
  8376  002B68  EC2B  F01C         	call	_lados
  8377  002B6C                     i2l331:
  8378  002B6C  0012               	return		;funcret
  8379  002B6E                     __end_of_moverMotor:
  8380                           	opt callstack 0
  8381                           
  8382 ;; *************** function _lados *****************
  8383 ;; Defined at:
  8384 ;;		line 59 in file "./Seguidor.h"
  8385 ;; Parameters:    Size  Location     Type
  8386 ;;  lado            1    wreg     unsigned char 
  8387 ;;  porcVelo        2   73[COMRAM] int 
  8388 ;; Auto vars:     Size  Location     Type
  8389 ;;  lado            1   75[COMRAM] unsigned char 
  8390 ;; Return value:  Size  Location     Type
  8391 ;;                  1    wreg      void 
  8392 ;; Registers used:
  8393 ;;		wreg, status,2, status,0, prodl, prodh, cstack
  8394 ;; Tracked objects:
  8395 ;;		On entry : 0/0
  8396 ;;		On exit  : 0/0
  8397 ;;		Unchanged: 0/0
  8398 ;; Data sizes:     COMRAM   BANK0   BANK1   BANK2
  8399 ;;      Params:         2       0       0       0
  8400 ;;      Locals:         1       0       0       0
  8401 ;;      Temps:          0       0       0       0
  8402 ;;      Totals:         3       0       0       0
  8403 ;;Total ram usage:        3 bytes
  8404 ;; Hardware stack levels used:    1
  8405 ;; Hardware stack levels required when called:    2
  8406 ;; This function calls:
  8407 ;;		i2_setDutyPWM0
  8408 ;;		i2_setDutyPWM2
  8409 ;;		i2_setDutyPWM4
  8410 ;;		i2_setDutyPWM6
  8411 ;; This function is called by:
  8412 ;;		_moverMotor
  8413 ;; This function uses a non-reentrant model
  8414 ;;
  8415                           
  8416                           	psect	text42
  8417  003856                     __ptext42:
  8418                           	opt callstack 0
  8419  003856                     _lados:
  8420                           	opt callstack 21
  8421                           
  8422                           ;incstack = 0
  8423                           ;lados@lado stored from wreg
  8424  003856  6E4C               	movwf	lados@lado^0,c
  8425  003858                     
  8426                           ;./Seguidor.h: 60:     PORTBbits.RB6 = 1;
  8427  003858  8C81               	bsf	129,6,c	;volatile
  8428                           
  8429                           ;./Seguidor.h: 61:     PORTBbits.RB7 = 1;
  8430  00385A  8E81               	bsf	129,7,c	;volatile
  8431  00385C                     
  8432                           ;./Seguidor.h: 64:     if (lado == 'e') {
  8433  00385C  0E65               	movlw	101
  8434  00385E  184C               	xorwf	lados@lado^0,w,c
  8435  003860  A4D8               	btfss	status,2,c
  8436  003862  EF35  F01C         	goto	i2u366_41
  8437  003866  EF37  F01C         	goto	i2u366_40
  8438  00386A                     i2u366_41:
  8439  00386A  EF43  F01C         	goto	i2l3508
  8440  00386E                     i2u366_40:
  8441  00386E                     
  8442                           ;./Seguidor.h: 65:         setDutyPWM0(porcVelo);
  8443  00386E  C04A  F007         	movff	lados@porcVelo,i2setDutyPWM0@porcVelo
  8444  003872  C04B  F008         	movff	lados@porcVelo+1,i2setDutyPWM0@porcVelo+1
  8445  003876  ECB5  F01D         	call	i2_setDutyPWM0	;wreg free
  8446                           
  8447                           ;./Seguidor.h: 66:         setDutyPWM6(0);
  8448  00387A  0E00               	movlw	0
  8449  00387C  6E08               	movwf	(i2setDutyPWM6@porcVelo+1)^0,c
  8450  00387E  0E00               	movlw	0
  8451  003880  6E07               	movwf	i2setDutyPWM6@porcVelo^0,c
  8452  003882  EC7C  F01D         	call	i2_setDutyPWM6	;wreg free
  8453  003886                     i2l3508:
  8454                           
  8455                           ;./Seguidor.h: 68:     if (lado == 'd') {
  8456  003886  0E64               	movlw	100
  8457  003888  184C               	xorwf	lados@lado^0,w,c
  8458  00388A  A4D8               	btfss	status,2,c
  8459  00388C  EF4A  F01C         	goto	i2u367_41
  8460  003890  EF4C  F01C         	goto	i2u367_40
  8461  003894                     i2u367_41:
  8462  003894  EF58  F01C         	goto	i2l326
  8463  003898                     i2u367_40:
  8464  003898                     
  8465                           ;./Seguidor.h: 69:         setDutyPWM2(porcVelo);
  8466  003898  C04A  F007         	movff	lados@porcVelo,i2setDutyPWM2@porcVelo
  8467  00389C  C04B  F008         	movff	lados@porcVelo+1,i2setDutyPWM2@porcVelo+1
  8468  0038A0  ECA2  F01D         	call	i2_setDutyPWM2	;wreg free
  8469                           
  8470                           ;./Seguidor.h: 70:         setDutyPWM4(0);
  8471  0038A4  0E00               	movlw	0
  8472  0038A6  6E08               	movwf	(i2setDutyPWM4@porcVelo+1)^0,c
  8473  0038A8  0E00               	movlw	0
  8474  0038AA  6E07               	movwf	i2setDutyPWM4@porcVelo^0,c
  8475  0038AC  EC8F  F01D         	call	i2_setDutyPWM4	;wreg free
  8476  0038B0                     i2l326:
  8477  0038B0  0012               	return		;funcret
  8478  0038B2                     __end_of_lados:
  8479                           	opt callstack 0
  8480                           
  8481 ;; *************** function i2_setDutyPWM6 *****************
  8482 ;; Defined at:
  8483 ;;		line 41 in file "./PWM.h"
  8484 ;; Parameters:    Size  Location     Type
  8485 ;;  porcVelo        2    6[COMRAM] unsigned int 
  8486 ;; Auto vars:     Size  Location     Type
  8487 ;;  setDutyPWM6     2    8[COMRAM] unsigned int 
  8488 ;; Return value:  Size  Location     Type
  8489 ;;                  1    wreg      void 
  8490 ;; Registers used:
  8491 ;;		wreg, status,2, status,0, prodl, prodh, cstack
  8492 ;; Tracked objects:
  8493 ;;		On entry : 0/0
  8494 ;;		On exit  : 0/0
  8495 ;;		Unchanged: 0/0
  8496 ;; Data sizes:     COMRAM   BANK0   BANK1   BANK2
  8497 ;;      Params:         2       0       0       0
  8498 ;;      Locals:         2       0       0       0
  8499 ;;      Temps:          0       0       0       0
  8500 ;;      Totals:         4       0       0       0
  8501 ;;Total ram usage:        4 bytes
  8502 ;; Hardware stack levels used:    1
  8503 ;; Hardware stack levels required when called:    1
  8504 ;; This function calls:
  8505 ;;		i2___wmul
  8506 ;; This function is called by:
  8507 ;;		_lados
  8508 ;;		_ISR
  8509 ;; This function uses a non-reentrant model
  8510 ;;
  8511                           
  8512                           	psect	text43
  8513  003AF8                     __ptext43:
  8514                           	opt callstack 0
  8515  003AF8                     i2_setDutyPWM6:
  8516                           	opt callstack 24
  8517  003AF8                     
  8518                           ;./PWM.h: 42:     unsigned int velo = porcVelo*6;
  8519  003AF8  C007  F001         	movff	i2setDutyPWM6@porcVelo,i2___wmul@multiplier
  8520  003AFC  C008  F002         	movff	i2setDutyPWM6@porcVelo+1,i2___wmul@multiplier+1
  8521  003B00  0E00               	movlw	0
  8522  003B02  6E04               	movwf	(i2___wmul@multiplicand+1)^0,c
  8523  003B04  0E06               	movlw	6
  8524  003B06  6E03               	movwf	i2___wmul@multiplicand^0,c
  8525  003B08  ECC8  F01D         	call	i2___wmul	;wreg free
  8526  003B0C  C001  F009         	movff	?i2___wmul,i2setDutyPWM6@velo
  8527  003B10  C002  F00A         	movff	?i2___wmul+1,i2setDutyPWM6@velo+1
  8528  003B14                     
  8529                           ;./PWM.h: 43:     PDC3L = velo & 0b11111111;
  8530  003B14  C009  FF73         	movff	i2setDutyPWM6@velo,3955	;volatile
  8531  003B18                     
  8532                           ;./PWM.h: 44:     PDC3H = (velo >> 8) & 0b11111111;
  8533  003B18  500A               	movf	(i2setDutyPWM6@velo+1)^0,w,c
  8534  003B1A  6E72               	movwf	114,c	;volatile
  8535  003B1C  0012               	return		;funcret
  8536  003B1E                     __end_ofi2_setDutyPWM6:
  8537                           	opt callstack 0
  8538                           
  8539 ;; *************** function i2_setDutyPWM4 *****************
  8540 ;; Defined at:
  8541 ;;		line 35 in file "./PWM.h"
  8542 ;; Parameters:    Size  Location     Type
  8543 ;;  porcVelo        2    6[COMRAM] unsigned int 
  8544 ;; Auto vars:     Size  Location     Type
  8545 ;;  setDutyPWM4     2    8[COMRAM] unsigned int 
  8546 ;; Return value:  Size  Location     Type
  8547 ;;                  1    wreg      void 
  8548 ;; Registers used:
  8549 ;;		wreg, status,2, status,0, prodl, prodh, cstack
  8550 ;; Tracked objects:
  8551 ;;		On entry : 0/0
  8552 ;;		On exit  : 0/0
  8553 ;;		Unchanged: 0/0
  8554 ;; Data sizes:     COMRAM   BANK0   BANK1   BANK2
  8555 ;;      Params:         2       0       0       0
  8556 ;;      Locals:         2       0       0       0
  8557 ;;      Temps:          0       0       0       0
  8558 ;;      Totals:         4       0       0       0
  8559 ;;Total ram usage:        4 bytes
  8560 ;; Hardware stack levels used:    1
  8561 ;; Hardware stack levels required when called:    1
  8562 ;; This function calls:
  8563 ;;		i2___wmul
  8564 ;; This function is called by:
  8565 ;;		_lados
  8566 ;;		_ISR
  8567 ;; This function uses a non-reentrant model
  8568 ;;
  8569                           
  8570                           	psect	text44
  8571  003B1E                     __ptext44:
  8572                           	opt callstack 0
  8573  003B1E                     i2_setDutyPWM4:
  8574                           	opt callstack 24
  8575  003B1E                     
  8576                           ;./PWM.h: 36:     unsigned int velo = porcVelo*6;
  8577  003B1E  C007  F001         	movff	i2setDutyPWM4@porcVelo,i2___wmul@multiplier
  8578  003B22  C008  F002         	movff	i2setDutyPWM4@porcVelo+1,i2___wmul@multiplier+1
  8579  003B26  0E00               	movlw	0
  8580  003B28  6E04               	movwf	(i2___wmul@multiplicand+1)^0,c
  8581  003B2A  0E06               	movlw	6
  8582  003B2C  6E03               	movwf	i2___wmul@multiplicand^0,c
  8583  003B2E  ECC8  F01D         	call	i2___wmul	;wreg free
  8584  003B32  C001  F009         	movff	?i2___wmul,i2setDutyPWM4@velo
  8585  003B36  C002  F00A         	movff	?i2___wmul+1,i2setDutyPWM4@velo+1
  8586  003B3A                     
  8587                           ;./PWM.h: 37:     PDC2L = velo & 0b11111111;
  8588  003B3A  C009  FF75         	movff	i2setDutyPWM4@velo,3957	;volatile
  8589  003B3E                     
  8590                           ;./PWM.h: 38:     PDC2H = (velo >> 8) & 0b11111111;
  8591  003B3E  500A               	movf	(i2setDutyPWM4@velo+1)^0,w,c
  8592  003B40  6E74               	movwf	116,c	;volatile
  8593  003B42  0012               	return		;funcret
  8594  003B44                     __end_ofi2_setDutyPWM4:
  8595                           	opt callstack 0
  8596                           
  8597 ;; *************** function i2_setDutyPWM2 *****************
  8598 ;; Defined at:
  8599 ;;		line 29 in file "./PWM.h"
  8600 ;; Parameters:    Size  Location     Type
  8601 ;;  porcVelo        2    6[COMRAM] unsigned int 
  8602 ;; Auto vars:     Size  Location     Type
  8603 ;;  setDutyPWM2     2    8[COMRAM] unsigned int 
  8604 ;; Return value:  Size  Location     Type
  8605 ;;                  1    wreg      void 
  8606 ;; Registers used:
  8607 ;;		wreg, status,2, status,0, prodl, prodh, cstack
  8608 ;; Tracked objects:
  8609 ;;		On entry : 0/0
  8610 ;;		On exit  : 0/0
  8611 ;;		Unchanged: 0/0
  8612 ;; Data sizes:     COMRAM   BANK0   BANK1   BANK2
  8613 ;;      Params:         2       0       0       0
  8614 ;;      Locals:         2       0       0       0
  8615 ;;      Temps:          0       0       0       0
  8616 ;;      Totals:         4       0       0       0
  8617 ;;Total ram usage:        4 bytes
  8618 ;; Hardware stack levels used:    1
  8619 ;; Hardware stack levels required when called:    1
  8620 ;; This function calls:
  8621 ;;		i2___wmul
  8622 ;; This function is called by:
  8623 ;;		_lados
  8624 ;;		_ISR
  8625 ;; This function uses a non-reentrant model
  8626 ;;
  8627                           
  8628                           	psect	text45
  8629  003B44                     __ptext45:
  8630                           	opt callstack 0
  8631  003B44                     i2_setDutyPWM2:
  8632                           	opt callstack 24
  8633  003B44                     
  8634                           ;./PWM.h: 30:     unsigned int velo = porcVelo*6;
  8635  003B44  C007  F001         	movff	i2setDutyPWM2@porcVelo,i2___wmul@multiplier
  8636  003B48  C008  F002         	movff	i2setDutyPWM2@porcVelo+1,i2___wmul@multiplier+1
  8637  003B4C  0E00               	movlw	0
  8638  003B4E  6E04               	movwf	(i2___wmul@multiplicand+1)^0,c
  8639  003B50  0E06               	movlw	6
  8640  003B52  6E03               	movwf	i2___wmul@multiplicand^0,c
  8641  003B54  ECC8  F01D         	call	i2___wmul	;wreg free
  8642  003B58  C001  F009         	movff	?i2___wmul,i2setDutyPWM2@velo
  8643  003B5C  C002  F00A         	movff	?i2___wmul+1,i2setDutyPWM2@velo+1
  8644  003B60                     
  8645                           ;./PWM.h: 31:     PDC1L = velo & 0b11111111;
  8646  003B60  C009  FF77         	movff	i2setDutyPWM2@velo,3959	;volatile
  8647  003B64                     
  8648                           ;./PWM.h: 32:     PDC1H = (velo >> 8) & 0b11111111;
  8649  003B64  500A               	movf	(i2setDutyPWM2@velo+1)^0,w,c
  8650  003B66  6E76               	movwf	118,c	;volatile
  8651  003B68  0012               	return		;funcret
  8652  003B6A                     __end_ofi2_setDutyPWM2:
  8653                           	opt callstack 0
  8654                           
  8655 ;; *************** function i2_setDutyPWM0 *****************
  8656 ;; Defined at:
  8657 ;;		line 23 in file "./PWM.h"
  8658 ;; Parameters:    Size  Location     Type
  8659 ;;  porcVelo        2    6[COMRAM] unsigned int 
  8660 ;; Auto vars:     Size  Location     Type
  8661 ;;  setDutyPWM0     2    8[COMRAM] unsigned int 
  8662 ;; Return value:  Size  Location     Type
  8663 ;;                  1    wreg      void 
  8664 ;; Registers used:
  8665 ;;		wreg, status,2, status,0, prodl, prodh, cstack
  8666 ;; Tracked objects:
  8667 ;;		On entry : 0/0
  8668 ;;		On exit  : 0/0
  8669 ;;		Unchanged: 0/0
  8670 ;; Data sizes:     COMRAM   BANK0   BANK1   BANK2
  8671 ;;      Params:         2       0       0       0
  8672 ;;      Locals:         2       0       0       0
  8673 ;;      Temps:          0       0       0       0
  8674 ;;      Totals:         4       0       0       0
  8675 ;;Total ram usage:        4 bytes
  8676 ;; Hardware stack levels used:    1
  8677 ;; Hardware stack levels required when called:    1
  8678 ;; This function calls:
  8679 ;;		i2___wmul
  8680 ;; This function is called by:
  8681 ;;		_lados
  8682 ;;		_ISR
  8683 ;; This function uses a non-reentrant model
  8684 ;;
  8685                           
  8686                           	psect	text46
  8687  003B6A                     __ptext46:
  8688                           	opt callstack 0
  8689  003B6A                     i2_setDutyPWM0:
  8690                           	opt callstack 24
  8691  003B6A                     
  8692                           ;./PWM.h: 24:     unsigned int velo = porcVelo*6;
  8693  003B6A  C007  F001         	movff	i2setDutyPWM0@porcVelo,i2___wmul@multiplier
  8694  003B6E  C008  F002         	movff	i2setDutyPWM0@porcVelo+1,i2___wmul@multiplier+1
  8695  003B72  0E00               	movlw	0
  8696  003B74  6E04               	movwf	(i2___wmul@multiplicand+1)^0,c
  8697  003B76  0E06               	movlw	6
  8698  003B78  6E03               	movwf	i2___wmul@multiplicand^0,c
  8699  003B7A  ECC8  F01D         	call	i2___wmul	;wreg free
  8700  003B7E  C001  F009         	movff	?i2___wmul,i2setDutyPWM0@velo
  8701  003B82  C002  F00A         	movff	?i2___wmul+1,i2setDutyPWM0@velo+1
  8702  003B86                     
  8703                           ;./PWM.h: 25:     PDC0L = velo & 0b11111111;
  8704  003B86  C009  FF79         	movff	i2setDutyPWM0@velo,3961	;volatile
  8705  003B8A                     
  8706                           ;./PWM.h: 26:     PDC0H = (velo >> 8) & 0b11111111;
  8707  003B8A  500A               	movf	(i2setDutyPWM0@velo+1)^0,w,c
  8708  003B8C  6E78               	movwf	120,c	;volatile
  8709  003B8E  0012               	return		;funcret
  8710  003B90                     __end_ofi2_setDutyPWM0:
  8711                           	opt callstack 0
  8712                           
  8713 ;; *************** function i2___wmul *****************
  8714 ;; Defined at:
  8715 ;;		line 15 in file "C:\Program Files (x86)\Microchip\xc8\v2.10\pic\sources\c99\common\Umul16.c"
  8716 ;; Parameters:    Size  Location     Type
  8717 ;;  multiplier      2    0[COMRAM] unsigned int 
  8718 ;;  multiplicand    2    2[COMRAM] unsigned int 
  8719 ;; Auto vars:     Size  Location     Type
  8720 ;;  __wmul          2    4[COMRAM] unsigned int 
  8721 ;; Return value:  Size  Location     Type
  8722 ;;                  2    0[COMRAM] unsigned int 
  8723 ;; Registers used:
  8724 ;;		wreg, status,2, status,0, prodl, prodh
  8725 ;; Tracked objects:
  8726 ;;		On entry : 0/0
  8727 ;;		On exit  : 0/0
  8728 ;;		Unchanged: 0/0
  8729 ;; Data sizes:     COMRAM   BANK0   BANK1   BANK2
  8730 ;;      Params:         4       0       0       0
  8731 ;;      Locals:         2       0       0       0
  8732 ;;      Temps:          0       0       0       0
  8733 ;;      Totals:         6       0       0       0
  8734 ;;Total ram usage:        6 bytes
  8735 ;; Hardware stack levels used:    1
  8736 ;; This function calls:
  8737 ;;		Nothing
  8738 ;; This function is called by:
  8739 ;;		i2_setDutyPWM0
  8740 ;;		i2_setDutyPWM2
  8741 ;;		i2_setDutyPWM4
  8742 ;;		i2_setDutyPWM6
  8743 ;; This function uses a non-reentrant model
  8744 ;;
  8745                           
  8746                           	psect	text47
  8747  003B90                     __ptext47:
  8748                           	opt callstack 0
  8749  003B90                     i2___wmul:
  8750                           	opt callstack 24
  8751  003B90  5001               	movf	i2___wmul@multiplier^0,w,c
  8752  003B92  0203               	mulwf	i2___wmul@multiplicand^0,c
  8753  003B94  CFF3 F005          	movff	prodl,i2___wmul@product
  8754  003B98  CFF4 F006          	movff	prodh,i2___wmul@product+1
  8755  003B9C  5001               	movf	i2___wmul@multiplier^0,w,c
  8756  003B9E  0204               	mulwf	(i2___wmul@multiplicand+1)^0,c
  8757  003BA0  50F3               	movf	243,w,c
  8758  003BA2  2606               	addwf	(i2___wmul@product+1)^0,f,c
  8759  003BA4  5002               	movf	(i2___wmul@multiplier+1)^0,w,c
  8760  003BA6  0203               	mulwf	i2___wmul@multiplicand^0,c
  8761  003BA8  50F3               	movf	243,w,c
  8762  003BAA  2606               	addwf	(i2___wmul@product+1)^0,f,c
  8763  003BAC  C005  F001         	movff	i2___wmul@product,?i2___wmul
  8764  003BB0  C006  F002         	movff	i2___wmul@product+1,?i2___wmul+1
  8765  003BB4  0012               	return		;funcret
  8766  003BB6                     __end_ofi2___wmul:
  8767                           	opt callstack 0
  8768                           
  8769 ;; *************** function ___flsub *****************
  8770 ;; Defined at:
  8771 ;;		line 245 in file "C:\Program Files (x86)\Microchip\xc8\v2.10\pic\sources\c99\common\sprcadd.c"
  8772 ;; Parameters:    Size  Location     Type
  8773 ;;  b               4   55[COMRAM] unsigned int 
  8774 ;;  a               4   59[COMRAM] unsigned int 
  8775 ;; Auto vars:     Size  Location     Type
  8776 ;;		None
  8777 ;; Return value:  Size  Location     Type
  8778 ;;                  4   55[COMRAM] unsigned int 
  8779 ;; Registers used:
  8780 ;;		wreg, status,2, status,0, cstack
  8781 ;; Tracked objects:
  8782 ;;		On entry : 0/0
  8783 ;;		On exit  : 0/0
  8784 ;;		Unchanged: 0/0
  8785 ;; Data sizes:     COMRAM   BANK0   BANK1   BANK2
  8786 ;;      Params:         8       0       0       0
  8787 ;;      Locals:         0       0       0       0
  8788 ;;      Temps:          0       0       0       0
  8789 ;;      Totals:         8       0       0       0
  8790 ;;Total ram usage:        8 bytes
  8791 ;; Hardware stack levels used:    1
  8792 ;; Hardware stack levels required when called:    1
  8793 ;; This function calls:
  8794 ;;		___fladd
  8795 ;; This function is called by:
  8796 ;;		_moverMotor
  8797 ;;		_setPID
  8798 ;; This function uses a non-reentrant model
  8799 ;;
  8800                           
  8801                           	psect	text48
  8802  0039A4                     __ptext48:
  8803                           	opt callstack 0
  8804  0039A4                     ___flsub:
  8805                           	opt callstack 22
  8806  0039A4  0E00               	movlw	0
  8807  0039A6  1A3C               	xorwf	___flsub@a^0,f,c
  8808  0039A8  0E00               	movlw	0
  8809  0039AA  1A3D               	xorwf	(___flsub@a+1)^0,f,c
  8810  0039AC  0E00               	movlw	0
  8811  0039AE  1A3E               	xorwf	(___flsub@a+2)^0,f,c
  8812  0039B0  0E80               	movlw	128
  8813  0039B2  1A3F               	xorwf	(___flsub@a+3)^0,f,c
  8814  0039B4  C038  F028         	movff	___flsub@b,___fladd@b
  8815  0039B8  C039  F029         	movff	___flsub@b+1,___fladd@b+1
  8816  0039BC  C03A  F02A         	movff	___flsub@b+2,___fladd@b+2
  8817  0039C0  C03B  F02B         	movff	___flsub@b+3,___fladd@b+3
  8818  0039C4  C03C  F02C         	movff	___flsub@a,___fladd@a
  8819  0039C8  C03D  F02D         	movff	___flsub@a+1,___fladd@a+1
  8820  0039CC  C03E  F02E         	movff	___flsub@a+2,___fladd@a+2
  8821  0039D0  C03F  F02F         	movff	___flsub@a+3,___fladd@a+3
  8822  0039D4  EC3D  F004         	call	___fladd	;wreg free
  8823  0039D8  C028  F038         	movff	?___fladd,?___flsub
  8824  0039DC  C029  F039         	movff	?___fladd+1,?___flsub+1
  8825  0039E0  C02A  F03A         	movff	?___fladd+2,?___flsub+2
  8826  0039E4  C02B  F03B         	movff	?___fladd+3,?___flsub+3
  8827  0039E8  0012               	return		;funcret
  8828  0039EA                     __end_of___flsub:
  8829                           	opt callstack 0
  8830                           
  8831 ;; *************** function ___fladd *****************
  8832 ;; Defined at:
  8833 ;;		line 10 in file "C:\Program Files (x86)\Microchip\xc8\v2.10\pic\sources\c99\common\sprcadd.c"
  8834 ;; Parameters:    Size  Location     Type
  8835 ;;  b               4   39[COMRAM] unsigned int 
  8836 ;;  a               4   43[COMRAM] unsigned int 
  8837 ;; Auto vars:     Size  Location     Type
  8838 ;;  grs             1   54[COMRAM] unsigned char 
  8839 ;;  bexp            1   53[COMRAM] unsigned char 
  8840 ;;  aexp            1   52[COMRAM] unsigned char 
  8841 ;;  signs           1   51[COMRAM] unsigned char 
  8842 ;; Return value:  Size  Location     Type
  8843 ;;                  4   39[COMRAM] unsigned char 
  8844 ;; Registers used:
  8845 ;;		wreg, status,2, status,0
  8846 ;; Tracked objects:
  8847 ;;		On entry : 0/0
  8848 ;;		On exit  : 0/0
  8849 ;;		Unchanged: 0/0
  8850 ;; Data sizes:     COMRAM   BANK0   BANK1   BANK2
  8851 ;;      Params:         8       0       0       0
  8852 ;;      Locals:         4       0       0       0
  8853 ;;      Temps:          4       0       0       0
  8854 ;;      Totals:        16       0       0       0
  8855 ;;Total ram usage:       16 bytes
  8856 ;; Hardware stack levels used:    1
  8857 ;; This function calls:
  8858 ;;		Nothing
  8859 ;; This function is called by:
  8860 ;;		_posicao
  8861 ;;		_moverMotor
  8862 ;;		_setPID
  8863 ;;		___flsub
  8864 ;; This function uses a non-reentrant model
  8865 ;;
  8866                           
  8867                           	psect	text49
  8868  00087A                     __ptext49:
  8869                           	opt callstack 0
  8870  00087A                     ___fladd:
  8871                           	opt callstack 23
  8872  00087A  502B               	movf	(___fladd@b+3)^0,w,c
  8873  00087C  0B80               	andlw	128
  8874  00087E  6E34               	movwf	___fladd@signs^0,c
  8875  000880  502B               	movf	(___fladd@b+3)^0,w,c
  8876  000882  242B               	addwf	(___fladd@b+3)^0,w,c
  8877  000884  6E36               	movwf	___fladd@bexp^0,c
  8878  000886  AE2A               	btfss	(___fladd@b+2)^0,7,c
  8879  000888  EF48  F004         	goto	i2u281_41
  8880  00088C  EF4A  F004         	goto	i2u281_40
  8881  000890                     i2u281_41:
  8882  000890  EF4B  F004         	goto	i2l2982
  8883  000894                     i2u281_40:
  8884  000894  8036               	bsf	___fladd@bexp^0,0,c
  8885  000896                     i2l2982:
  8886  000896  5036               	movf	___fladd@bexp^0,w,c
  8887  000898  B4D8               	btfsc	status,2,c
  8888  00089A  EF51  F004         	goto	i2u282_41
  8889  00089E  EF53  F004         	goto	i2u282_40
  8890  0008A2                     i2u282_41:
  8891  0008A2  EF68  F004         	goto	i2l2992
  8892  0008A6                     i2u282_40:
  8893  0008A6  2836               	incf	___fladd@bexp^0,w,c
  8894  0008A8  A4D8               	btfss	status,2,c
  8895  0008AA  EF59  F004         	goto	i2u283_41
  8896  0008AE  EF5B  F004         	goto	i2u283_40
  8897  0008B2                     i2u283_41:
  8898  0008B2  EF63  F004         	goto	i2l2988
  8899  0008B6                     i2u283_40:
  8900  0008B6  0E00               	movlw	0
  8901  0008B8  6E28               	movwf	___fladd@b^0,c
  8902  0008BA  0E00               	movlw	0
  8903  0008BC  6E29               	movwf	(___fladd@b+1)^0,c
  8904  0008BE  0E00               	movlw	0
  8905  0008C0  6E2A               	movwf	(___fladd@b+2)^0,c
  8906  0008C2  0E00               	movlw	0
  8907  0008C4  6E2B               	movwf	(___fladd@b+3)^0,c
  8908  0008C6                     i2l2988:
  8909  0008C6  8E2A               	bsf	(___fladd@b+2)^0,7,c
  8910  0008C8  0E00               	movlw	0
  8911  0008CA  6E2B               	movwf	(___fladd@b+3)^0,c
  8912  0008CC  EF70  F004         	goto	i2l2994
  8913  0008D0                     i2l2992:
  8914  0008D0  0E00               	movlw	0
  8915  0008D2  6E28               	movwf	___fladd@b^0,c
  8916  0008D4  0E00               	movlw	0
  8917  0008D6  6E29               	movwf	(___fladd@b+1)^0,c
  8918  0008D8  0E00               	movlw	0
  8919  0008DA  6E2A               	movwf	(___fladd@b+2)^0,c
  8920  0008DC  0E00               	movlw	0
  8921  0008DE  6E2B               	movwf	(___fladd@b+3)^0,c
  8922  0008E0                     i2l2994:
  8923  0008E0  502F               	movf	(___fladd@a+3)^0,w,c
  8924  0008E2  0B80               	andlw	128
  8925  0008E4  6E35               	movwf	___fladd@aexp^0,c
  8926  0008E6  5034               	movf	___fladd@signs^0,w,c
  8927  0008E8  1835               	xorwf	___fladd@aexp^0,w,c
  8928  0008EA  B4D8               	btfsc	status,2,c
  8929  0008EC  EF7A  F004         	goto	i2u284_41
  8930  0008F0  EF7C  F004         	goto	i2u284_40
  8931  0008F4                     i2u284_41:
  8932  0008F4  EF7D  F004         	goto	i2l3000
  8933  0008F8                     i2u284_40:
  8934  0008F8  8C34               	bsf	___fladd@signs^0,6,c
  8935  0008FA                     i2l3000:
  8936  0008FA  502F               	movf	(___fladd@a+3)^0,w,c
  8937  0008FC  242F               	addwf	(___fladd@a+3)^0,w,c
  8938  0008FE  6E35               	movwf	___fladd@aexp^0,c
  8939  000900  AE2E               	btfss	(___fladd@a+2)^0,7,c
  8940  000902  EF85  F004         	goto	i2u285_41
  8941  000906  EF87  F004         	goto	i2u285_40
  8942  00090A                     i2u285_41:
  8943  00090A  EF88  F004         	goto	i2l3006
  8944  00090E                     i2u285_40:
  8945  00090E  8035               	bsf	___fladd@aexp^0,0,c
  8946  000910                     i2l3006:
  8947  000910  5035               	movf	___fladd@aexp^0,w,c
  8948  000912  B4D8               	btfsc	status,2,c
  8949  000914  EF8E  F004         	goto	i2u286_41
  8950  000918  EF90  F004         	goto	i2u286_40
  8951  00091C                     i2u286_41:
  8952  00091C  EFA5  F004         	goto	i2l3016
  8953  000920                     i2u286_40:
  8954  000920  2835               	incf	___fladd@aexp^0,w,c
  8955  000922  A4D8               	btfss	status,2,c
  8956  000924  EF96  F004         	goto	i2u287_41
  8957  000928  EF98  F004         	goto	i2u287_40
  8958  00092C                     i2u287_41:
  8959  00092C  EFA0  F004         	goto	i2l3012
  8960  000930                     i2u287_40:
  8961  000930  0E00               	movlw	0
  8962  000932  6E2C               	movwf	___fladd@a^0,c
  8963  000934  0E00               	movlw	0
  8964  000936  6E2D               	movwf	(___fladd@a+1)^0,c
  8965  000938  0E00               	movlw	0
  8966  00093A  6E2E               	movwf	(___fladd@a+2)^0,c
  8967  00093C  0E00               	movlw	0
  8968  00093E  6E2F               	movwf	(___fladd@a+3)^0,c
  8969  000940                     i2l3012:
  8970  000940  8E2E               	bsf	(___fladd@a+2)^0,7,c
  8971  000942  0E00               	movlw	0
  8972  000944  6E2F               	movwf	(___fladd@a+3)^0,c
  8973  000946  EFAD  F004         	goto	i2l3018
  8974  00094A                     i2l3016:
  8975  00094A  0E00               	movlw	0
  8976  00094C  6E2C               	movwf	___fladd@a^0,c
  8977  00094E  0E00               	movlw	0
  8978  000950  6E2D               	movwf	(___fladd@a+1)^0,c
  8979  000952  0E00               	movlw	0
  8980  000954  6E2E               	movwf	(___fladd@a+2)^0,c
  8981  000956  0E00               	movlw	0
  8982  000958  6E2F               	movwf	(___fladd@a+3)^0,c
  8983  00095A                     i2l3018:
  8984  00095A  5036               	movf	___fladd@bexp^0,w,c
  8985  00095C  5C35               	subwf	___fladd@aexp^0,w,c
  8986  00095E  B0D8               	btfsc	status,0,c
  8987  000960  EFB4  F004         	goto	i2u288_41
  8988  000964  EFB6  F004         	goto	i2u288_40
  8989  000968                     i2u288_41:
  8990  000968  EFDD  F004         	goto	i2l3054
  8991  00096C                     i2u288_40:
  8992  00096C  AC34               	btfss	___fladd@signs^0,6,c
  8993  00096E  EFBB  F004         	goto	i2u289_41
  8994  000972  EFBD  F004         	goto	i2u289_40
  8995  000976                     i2u289_41:
  8996  000976  EFBF  F004         	goto	i2l3024
  8997  00097A                     i2u289_40:
  8998  00097A  0E80               	movlw	128
  8999  00097C  1A34               	xorwf	___fladd@signs^0,f,c
  9000  00097E                     i2l3024:
  9001  00097E  C036  F037         	movff	___fladd@bexp,___fladd@grs
  9002  000982  C035  F036         	movff	___fladd@aexp,___fladd@bexp
  9003  000986  C037  F035         	movff	___fladd@grs,___fladd@aexp
  9004  00098A  C028  F037         	movff	___fladd@b,___fladd@grs
  9005  00098E  C02C  F028         	movff	___fladd@a,___fladd@b
  9006  000992  C037  F02C         	movff	___fladd@grs,___fladd@a
  9007  000996  C029  F037         	movff	___fladd@b+1,___fladd@grs
  9008  00099A  C02D  F029         	movff	___fladd@a+1,___fladd@b+1
  9009  00099E  C037  F02D         	movff	___fladd@grs,___fladd@a+1
  9010  0009A2  C02A  F037         	movff	___fladd@b+2,___fladd@grs
  9011  0009A6  C02E  F02A         	movff	___fladd@a+2,___fladd@b+2
  9012  0009AA  C037  F02E         	movff	___fladd@grs,___fladd@a+2
  9013  0009AE  C02B  F037         	movff	___fladd@b+3,___fladd@grs
  9014  0009B2  C02F  F02B         	movff	___fladd@a+3,___fladd@b+3
  9015  0009B6  C037  F02F         	movff	___fladd@grs,___fladd@a+3
  9016  0009BA                     i2l3054:
  9017  0009BA  0E00               	movlw	0
  9018  0009BC  6E37               	movwf	___fladd@grs^0,c
  9019  0009BE  5036               	movf	___fladd@bexp^0,w,c
  9020  0009C0  C035  F030         	movff	___fladd@aexp,??___fladd
  9021  0009C4  6A31               	clrf	(??___fladd+1)^0,c
  9022  0009C6  5E30               	subwf	??___fladd^0,f,c
  9023  0009C8  0E00               	movlw	0
  9024  0009CA  5A31               	subwfb	(??___fladd+1)^0,f,c
  9025  0009CC  BE31               	btfsc	(??___fladd+1)^0,7,c
  9026  0009CE  EFF2  F004         	goto	i2u290_41
  9027  0009D2  5031               	movf	(??___fladd+1)^0,w,c
  9028  0009D4  E109               	bnz	i2u290_40
  9029  0009D6  0E1A               	movlw	26
  9030  0009D8  5C30               	subwf	??___fladd^0,w,c
  9031  0009DA  A0D8               	btfss	status,0,c
  9032  0009DC  EFF2  F004         	goto	i2u290_41
  9033  0009E0  EFF4  F004         	goto	i2u290_40
  9034  0009E4                     i2u290_41:
  9035  0009E4  EF2B  F005         	goto	i2l901
  9036  0009E8                     i2u290_40:
  9037  0009E8  5028               	movf	___fladd@b^0,w,c
  9038  0009EA  1029               	iorwf	(___fladd@b+1)^0,w,c
  9039  0009EC  102A               	iorwf	(___fladd@b+2)^0,w,c
  9040  0009EE  102B               	iorwf	(___fladd@b+3)^0,w,c
  9041  0009F0  A4D8               	btfss	status,2,c
  9042  0009F2  EFFD  F004         	goto	i2u291_41
  9043  0009F6  EF00  F005         	goto	i2u291_40
  9044  0009FA                     i2u291_41:
  9045  0009FA  0E01               	movlw	1
  9046  0009FC  EF01  F005         	goto	i2u292_40
  9047  000A00                     i2u291_40:
  9048  000A00  0E00               	movlw	0
  9049  000A02                     i2u292_40:
  9050  000A02  6E37               	movwf	___fladd@grs^0,c
  9051  000A04  0E00               	movlw	0
  9052  000A06  6E28               	movwf	___fladd@b^0,c
  9053  000A08  0E00               	movlw	0
  9054  000A0A  6E29               	movwf	(___fladd@b+1)^0,c
  9055  000A0C  0E00               	movlw	0
  9056  000A0E  6E2A               	movwf	(___fladd@b+2)^0,c
  9057  000A10  0E00               	movlw	0
  9058  000A12  6E2B               	movwf	(___fladd@b+3)^0,c
  9059  000A14  C035  F036         	movff	___fladd@aexp,___fladd@bexp
  9060  000A18  EF34  F005         	goto	i2l900
  9061  000A1C                     i2l902:
  9062  000A1C  A037               	btfss	___fladd@grs^0,0,c
  9063  000A1E  EF13  F005         	goto	i2u293_41
  9064  000A22  EF15  F005         	goto	i2u293_40
  9065  000A26                     i2u293_41:
  9066  000A26  EF1B  F005         	goto	i2l3066
  9067  000A2A                     i2u293_40:
  9068  000A2A  90D8               	bcf	status,0,c
  9069  000A2C  3037               	rrcf	___fladd@grs^0,w,c
  9070  000A2E  0901               	iorlw	1
  9071  000A30  6E37               	movwf	___fladd@grs^0,c
  9072  000A32  EF1D  F005         	goto	i2l3068
  9073  000A36                     i2l3066:
  9074  000A36  90D8               	bcf	status,0,c
  9075  000A38  3237               	rrcf	___fladd@grs^0,f,c
  9076  000A3A                     i2l3068:
  9077  000A3A  A028               	btfss	___fladd@b^0,0,c
  9078  000A3C  EF22  F005         	goto	i2u294_41
  9079  000A40  EF24  F005         	goto	i2u294_40
  9080  000A44                     i2u294_41:
  9081  000A44  EF25  F005         	goto	i2l3072
  9082  000A48                     i2u294_40:
  9083  000A48  8E37               	bsf	___fladd@grs^0,7,c
  9084  000A4A                     i2l3072:
  9085  000A4A  342B               	rlcf	(___fladd@b+3)^0,w,c
  9086  000A4C  322B               	rrcf	(___fladd@b+3)^0,f,c
  9087  000A4E  322A               	rrcf	(___fladd@b+2)^0,f,c
  9088  000A50  3229               	rrcf	(___fladd@b+1)^0,f,c
  9089  000A52  3228               	rrcf	___fladd@b^0,f,c
  9090  000A54  2A36               	incf	___fladd@bexp^0,f,c
  9091  000A56                     i2l901:
  9092  000A56  5035               	movf	___fladd@aexp^0,w,c
  9093  000A58  5C36               	subwf	___fladd@bexp^0,w,c
  9094  000A5A  A0D8               	btfss	status,0,c
  9095  000A5C  EF32  F005         	goto	i2u295_41
  9096  000A60  EF34  F005         	goto	i2u295_40
  9097  000A64                     i2u295_41:
  9098  000A64  EF0E  F005         	goto	i2l902
  9099  000A68                     i2u295_40:
  9100  000A68                     i2l900:
  9101  000A68  BC34               	btfsc	___fladd@signs^0,6,c
  9102  000A6A  EF39  F005         	goto	i2u296_41
  9103  000A6E  EF3B  F005         	goto	i2u296_40
  9104  000A72                     i2u296_41:
  9105  000A72  EF7B  F005         	goto	i2l3100
  9106  000A76                     i2u296_40:
  9107  000A76  5036               	movf	___fladd@bexp^0,w,c
  9108  000A78  A4D8               	btfss	status,2,c
  9109  000A7A  EF41  F005         	goto	i2u297_41
  9110  000A7E  EF43  F005         	goto	i2u297_40
  9111  000A82                     i2u297_41:
  9112  000A82  EF4D  F005         	goto	i2l3082
  9113  000A86                     i2u297_40:
  9114  000A86  0E00               	movlw	0
  9115  000A88  6E28               	movwf	?___fladd^0,c
  9116  000A8A  0E00               	movlw	0
  9117  000A8C  6E29               	movwf	(?___fladd+1)^0,c
  9118  000A8E  0E00               	movlw	0
  9119  000A90  6E2A               	movwf	(?___fladd+2)^0,c
  9120  000A92  0E00               	movlw	0
  9121  000A94  6E2B               	movwf	(?___fladd+3)^0,c
  9122  000A96  EF9C  F006         	goto	i2l909
  9123  000A9A                     i2l3082:
  9124  000A9A  502C               	movf	___fladd@a^0,w,c
  9125  000A9C  2628               	addwf	___fladd@b^0,f,c
  9126  000A9E  502D               	movf	(___fladd@a+1)^0,w,c
  9127  000AA0  2229               	addwfc	(___fladd@b+1)^0,f,c
  9128  000AA2  502E               	movf	(___fladd@a+2)^0,w,c
  9129  000AA4  222A               	addwfc	(___fladd@b+2)^0,f,c
  9130  000AA6  502F               	movf	(___fladd@a+3)^0,w,c
  9131  000AA8  222B               	addwfc	(___fladd@b+3)^0,f,c
  9132  000AAA  A02B               	btfss	(___fladd@b+3)^0,0,c
  9133  000AAC  EF5A  F005         	goto	i2u298_41
  9134  000AB0  EF5C  F005         	goto	i2u298_40
  9135  000AB4                     i2u298_41:
  9136  000AB4  EF08  F006         	goto	i2l3136
  9137  000AB8                     i2u298_40:
  9138  000AB8  A037               	btfss	___fladd@grs^0,0,c
  9139  000ABA  EF61  F005         	goto	i2u299_41
  9140  000ABE  EF63  F005         	goto	i2u299_40
  9141  000AC2                     i2u299_41:
  9142  000AC2  EF69  F005         	goto	i2l3090
  9143  000AC6                     i2u299_40:
  9144  000AC6  90D8               	bcf	status,0,c
  9145  000AC8  3037               	rrcf	___fladd@grs^0,w,c
  9146  000ACA  0901               	iorlw	1
  9147  000ACC  6E37               	movwf	___fladd@grs^0,c
  9148  000ACE  EF6B  F005         	goto	i2l3092
  9149  000AD2                     i2l3090:
  9150  000AD2  90D8               	bcf	status,0,c
  9151  000AD4  3237               	rrcf	___fladd@grs^0,f,c
  9152  000AD6                     i2l3092:
  9153  000AD6  A028               	btfss	___fladd@b^0,0,c
  9154  000AD8  EF70  F005         	goto	i2u300_41
  9155  000ADC  EF72  F005         	goto	i2u300_40
  9156  000AE0                     i2u300_41:
  9157  000AE0  EF73  F005         	goto	i2l3096
  9158  000AE4                     i2u300_40:
  9159  000AE4  8E37               	bsf	___fladd@grs^0,7,c
  9160  000AE6                     i2l3096:
  9161  000AE6  342B               	rlcf	(___fladd@b+3)^0,w,c
  9162  000AE8  322B               	rrcf	(___fladd@b+3)^0,f,c
  9163  000AEA  322A               	rrcf	(___fladd@b+2)^0,f,c
  9164  000AEC  3229               	rrcf	(___fladd@b+1)^0,f,c
  9165  000AEE  3228               	rrcf	___fladd@b^0,f,c
  9166  000AF0  2A36               	incf	___fladd@bexp^0,f,c
  9167  000AF2  EF08  F006         	goto	i2l3136
  9168  000AF6                     i2l3100:
  9169  000AF6  502C               	movf	___fladd@a^0,w,c
  9170  000AF8  5C28               	subwf	___fladd@b^0,w,c
  9171  000AFA  502D               	movf	(___fladd@a+1)^0,w,c
  9172  000AFC  5829               	subwfb	(___fladd@b+1)^0,w,c
  9173  000AFE  502E               	movf	(___fladd@a+2)^0,w,c
  9174  000B00  582A               	subwfb	(___fladd@b+2)^0,w,c
  9175  000B02  502B               	movf	(___fladd@b+3)^0,w,c
  9176  000B04  0A80               	xorlw	128
  9177  000B06  6E30               	movwf	??___fladd^0,c
  9178  000B08  502F               	movf	(___fladd@a+3)^0,w,c
  9179  000B0A  0A80               	xorlw	128
  9180  000B0C  5830               	subwfb	??___fladd^0,w,c
  9181  000B0E  B0D8               	btfsc	status,0,c
  9182  000B10  EF8C  F005         	goto	i2u301_41
  9183  000B14  EF8E  F005         	goto	i2u301_40
  9184  000B18                     i2u301_41:
  9185  000B18  EFB9  F005         	goto	i2l3110
  9186  000B1C                     i2u301_40:
  9187  000B1C  5028               	movf	___fladd@b^0,w,c
  9188  000B1E  5C2C               	subwf	___fladd@a^0,w,c
  9189  000B20  6E30               	movwf	??___fladd^0,c
  9190  000B22  5029               	movf	(___fladd@b+1)^0,w,c
  9191  000B24  582D               	subwfb	(___fladd@a+1)^0,w,c
  9192  000B26  6E31               	movwf	(??___fladd+1)^0,c
  9193  000B28  502A               	movf	(___fladd@b+2)^0,w,c
  9194  000B2A  582E               	subwfb	(___fladd@a+2)^0,w,c
  9195  000B2C  6E32               	movwf	(??___fladd+2)^0,c
  9196  000B2E  502B               	movf	(___fladd@b+3)^0,w,c
  9197  000B30  582F               	subwfb	(___fladd@a+3)^0,w,c
  9198  000B32  6E33               	movwf	(??___fladd+3)^0,c
  9199  000B34  0EFF               	movlw	255
  9200  000B36  2430               	addwf	??___fladd^0,w,c
  9201  000B38  6E28               	movwf	___fladd@b^0,c
  9202  000B3A  0EFF               	movlw	255
  9203  000B3C  2031               	addwfc	(??___fladd+1)^0,w,c
  9204  000B3E  6E29               	movwf	(___fladd@b+1)^0,c
  9205  000B40  0EFF               	movlw	255
  9206  000B42  2032               	addwfc	(??___fladd+2)^0,w,c
  9207  000B44  6E2A               	movwf	(___fladd@b+2)^0,c
  9208  000B46  0EFF               	movlw	255
  9209  000B48  2033               	addwfc	(??___fladd+3)^0,w,c
  9210  000B4A  6E2B               	movwf	(___fladd@b+3)^0,c
  9211  000B4C  0E80               	movlw	128
  9212  000B4E  1A34               	xorwf	___fladd@signs^0,f,c
  9213  000B50  6C37               	negf	___fladd@grs^0,c
  9214  000B52  5037               	movf	___fladd@grs^0,w,c
  9215  000B54  A4D8               	btfss	status,2,c
  9216  000B56  EFAF  F005         	goto	i2u302_41
  9217  000B5A  EFB1  F005         	goto	i2u302_40
  9218  000B5E                     i2u302_41:
  9219  000B5E  EFC1  F005         	goto	i2l917
  9220  000B62                     i2u302_40:
  9221  000B62  0E01               	movlw	1
  9222  000B64  2628               	addwf	___fladd@b^0,f,c
  9223  000B66  0E00               	movlw	0
  9224  000B68  2229               	addwfc	(___fladd@b+1)^0,f,c
  9225  000B6A  222A               	addwfc	(___fladd@b+2)^0,f,c
  9226  000B6C  222B               	addwfc	(___fladd@b+3)^0,f,c
  9227  000B6E  EFC1  F005         	goto	i2l917
  9228  000B72                     i2l3110:
  9229  000B72  502C               	movf	___fladd@a^0,w,c
  9230  000B74  5E28               	subwf	___fladd@b^0,f,c
  9231  000B76  502D               	movf	(___fladd@a+1)^0,w,c
  9232  000B78  5A29               	subwfb	(___fladd@b+1)^0,f,c
  9233  000B7A  502E               	movf	(___fladd@a+2)^0,w,c
  9234  000B7C  5A2A               	subwfb	(___fladd@b+2)^0,f,c
  9235  000B7E  502F               	movf	(___fladd@a+3)^0,w,c
  9236  000B80  5A2B               	subwfb	(___fladd@b+3)^0,f,c
  9237  000B82                     i2l917:
  9238  000B82  5028               	movf	___fladd@b^0,w,c
  9239  000B84  1029               	iorwf	(___fladd@b+1)^0,w,c
  9240  000B86  102A               	iorwf	(___fladd@b+2)^0,w,c
  9241  000B88  102B               	iorwf	(___fladd@b+3)^0,w,c
  9242  000B8A  A4D8               	btfss	status,2,c
  9243  000B8C  EFCA  F005         	goto	i2u303_41
  9244  000B90  EFCC  F005         	goto	i2u303_40
  9245  000B94                     i2u303_41:
  9246  000B94  EF01  F006         	goto	i2l3134
  9247  000B98                     i2u303_40:
  9248  000B98  5037               	movf	___fladd@grs^0,w,c
  9249  000B9A  A4D8               	btfss	status,2,c
  9250  000B9C  EFD2  F005         	goto	i2u304_41
  9251  000BA0  EFD4  F005         	goto	i2u304_40
  9252  000BA4                     i2u304_41:
  9253  000BA4  EF01  F006         	goto	i2l3134
  9254  000BA8                     i2u304_40:
  9255  000BA8  0E00               	movlw	0
  9256  000BAA  6E28               	movwf	?___fladd^0,c
  9257  000BAC  0E00               	movlw	0
  9258  000BAE  6E29               	movwf	(?___fladd+1)^0,c
  9259  000BB0  0E00               	movlw	0
  9260  000BB2  6E2A               	movwf	(?___fladd+2)^0,c
  9261  000BB4  0E00               	movlw	0
  9262  000BB6  6E2B               	movwf	(?___fladd+3)^0,c
  9263  000BB8  EF9C  F006         	goto	i2l909
  9264  000BBC                     i2l3118:
  9265  000BBC  90D8               	bcf	status,0,c
  9266  000BBE  3628               	rlcf	___fladd@b^0,f,c
  9267  000BC0  3629               	rlcf	(___fladd@b+1)^0,f,c
  9268  000BC2  362A               	rlcf	(___fladd@b+2)^0,f,c
  9269  000BC4  362B               	rlcf	(___fladd@b+3)^0,f,c
  9270  000BC6  AE37               	btfss	___fladd@grs^0,7,c
  9271  000BC8  EFE8  F005         	goto	i2u305_41
  9272  000BCC  EFEA  F005         	goto	i2u305_40
  9273  000BD0                     i2u305_41:
  9274  000BD0  EFEB  F005         	goto	i2l3124
  9275  000BD4                     i2u305_40:
  9276  000BD4  8028               	bsf	___fladd@b^0,0,c
  9277  000BD6                     i2l3124:
  9278  000BD6  A037               	btfss	___fladd@grs^0,0,c
  9279  000BD8  EFF0  F005         	goto	i2u306_41
  9280  000BDC  EFF2  F005         	goto	i2u306_40
  9281  000BE0                     i2u306_41:
  9282  000BE0  EFF6  F005         	goto	i2l3128
  9283  000BE4                     i2u306_40:
  9284  000BE4  80D8               	bsf	status,0,c
  9285  000BE6  3637               	rlcf	___fladd@grs^0,f,c
  9286  000BE8  EFF8  F005         	goto	i2l3130
  9287  000BEC                     i2l3128:
  9288  000BEC  90D8               	bcf	status,0,c
  9289  000BEE  3637               	rlcf	___fladd@grs^0,f,c
  9290  000BF0                     i2l3130:
  9291  000BF0  5036               	movf	___fladd@bexp^0,w,c
  9292  000BF2  B4D8               	btfsc	status,2,c
  9293  000BF4  EFFE  F005         	goto	i2u307_41
  9294  000BF8  EF00  F006         	goto	i2u307_40
  9295  000BFC                     i2u307_41:
  9296  000BFC  EF01  F006         	goto	i2l3134
  9297  000C00                     i2u307_40:
  9298  000C00  0636               	decf	___fladd@bexp^0,f,c
  9299  000C02                     i2l3134:
  9300  000C02  AE2A               	btfss	(___fladd@b+2)^0,7,c
  9301  000C04  EF06  F006         	goto	i2u308_41
  9302  000C08  EF08  F006         	goto	i2u308_40
  9303  000C0C                     i2u308_41:
  9304  000C0C  EFDE  F005         	goto	i2l3118
  9305  000C10                     i2u308_40:
  9306  000C10                     i2l3136:
  9307  000C10  0E00               	movlw	0
  9308  000C12  6E35               	movwf	___fladd@aexp^0,c
  9309  000C14  AE37               	btfss	___fladd@grs^0,7,c
  9310  000C16  EF0F  F006         	goto	i2u309_41
  9311  000C1A  EF11  F006         	goto	i2u309_40
  9312  000C1E                     i2u309_41:
  9313  000C1E  EF29  F006         	goto	i2l926
  9314  000C22                     i2u309_40:
  9315  000C22  C037  F030         	movff	___fladd@grs,??___fladd
  9316  000C26  0E7F               	movlw	127
  9317  000C28  1630               	andwf	??___fladd^0,f,c
  9318  000C2A  B4D8               	btfsc	status,2,c
  9319  000C2C  EF1A  F006         	goto	i2u310_41
  9320  000C30  EF1C  F006         	goto	i2u310_40
  9321  000C34                     i2u310_41:
  9322  000C34  EF20  F006         	goto	i2l927
  9323  000C38                     i2u310_40:
  9324  000C38                     i2l3142:
  9325  000C38  0E01               	movlw	1
  9326  000C3A  6E35               	movwf	___fladd@aexp^0,c
  9327  000C3C  EF29  F006         	goto	i2l926
  9328  000C40                     i2l927:
  9329  000C40  A028               	btfss	___fladd@b^0,0,c
  9330  000C42  EF25  F006         	goto	i2u311_41
  9331  000C46  EF27  F006         	goto	i2u311_40
  9332  000C4A                     i2u311_41:
  9333  000C4A  EF29  F006         	goto	i2l926
  9334  000C4E                     i2u311_40:
  9335  000C4E  EF1C  F006         	goto	i2l3142
  9336  000C52                     i2l926:
  9337  000C52  5035               	movf	___fladd@aexp^0,w,c
  9338  000C54  B4D8               	btfsc	status,2,c
  9339  000C56  EF2F  F006         	goto	i2u312_41
  9340  000C5A  EF31  F006         	goto	i2u312_40
  9341  000C5E                     i2u312_41:
  9342  000C5E  EF5C  F006         	goto	i2l3154
  9343  000C62                     i2u312_40:
  9344  000C62  0E01               	movlw	1
  9345  000C64  2628               	addwf	___fladd@b^0,f,c
  9346  000C66  0E00               	movlw	0
  9347  000C68  2229               	addwfc	(___fladd@b+1)^0,f,c
  9348  000C6A  222A               	addwfc	(___fladd@b+2)^0,f,c
  9349  000C6C  222B               	addwfc	(___fladd@b+3)^0,f,c
  9350  000C6E  A02B               	btfss	(___fladd@b+3)^0,0,c
  9351  000C70  EF3C  F006         	goto	i2u313_41
  9352  000C74  EF3E  F006         	goto	i2u313_40
  9353  000C78                     i2u313_41:
  9354  000C78  EF5C  F006         	goto	i2l3154
  9355  000C7C                     i2u313_40:
  9356  000C7C  C028  F030         	movff	___fladd@b,??___fladd
  9357  000C80  C029  F031         	movff	___fladd@b+1,??___fladd+1
  9358  000C84  C02A  F032         	movff	___fladd@b+2,??___fladd+2
  9359  000C88  C02B  F033         	movff	___fladd@b+3,??___fladd+3
  9360  000C8C  3433               	rlcf	(??___fladd+3)^0,w,c
  9361  000C8E  3233               	rrcf	(??___fladd+3)^0,f,c
  9362  000C90  3232               	rrcf	(??___fladd+2)^0,f,c
  9363  000C92  3231               	rrcf	(??___fladd+1)^0,f,c
  9364  000C94  3230               	rrcf	??___fladd^0,f,c
  9365  000C96  C030  F028         	movff	??___fladd,___fladd@b
  9366  000C9A  C031  F029         	movff	??___fladd+1,___fladd@b+1
  9367  000C9E  C032  F02A         	movff	??___fladd+2,___fladd@b+2
  9368  000CA2  C033  F02B         	movff	??___fladd+3,___fladd@b+3
  9369  000CA6  2836               	incf	___fladd@bexp^0,w,c
  9370  000CA8  B4D8               	btfsc	status,2,c
  9371  000CAA  EF59  F006         	goto	i2u314_41
  9372  000CAE  EF5B  F006         	goto	i2u314_40
  9373  000CB2                     i2u314_41:
  9374  000CB2  EF5C  F006         	goto	i2l3154
  9375  000CB6                     i2u314_40:
  9376  000CB6  2A36               	incf	___fladd@bexp^0,f,c
  9377  000CB8                     i2l3154:
  9378  000CB8  2836               	incf	___fladd@bexp^0,w,c
  9379  000CBA  B4D8               	btfsc	status,2,c
  9380  000CBC  EF62  F006         	goto	i2u315_41
  9381  000CC0  EF64  F006         	goto	i2u315_40
  9382  000CC4                     i2u315_41:
  9383  000CC4  EF6C  F006         	goto	i2l3158
  9384  000CC8                     i2u315_40:
  9385  000CC8  5036               	movf	___fladd@bexp^0,w,c
  9386  000CCA  A4D8               	btfss	status,2,c
  9387  000CCC  EF6A  F006         	goto	i2u316_41
  9388  000CD0  EF6C  F006         	goto	i2u316_40
  9389  000CD4                     i2u316_41:
  9390  000CD4  EF7E  F006         	goto	i2l3162
  9391  000CD8                     i2u316_40:
  9392  000CD8                     i2l3158:
  9393  000CD8  0E00               	movlw	0
  9394  000CDA  6E28               	movwf	___fladd@b^0,c
  9395  000CDC  0E00               	movlw	0
  9396  000CDE  6E29               	movwf	(___fladd@b+1)^0,c
  9397  000CE0  0E00               	movlw	0
  9398  000CE2  6E2A               	movwf	(___fladd@b+2)^0,c
  9399  000CE4  0E00               	movlw	0
  9400  000CE6  6E2B               	movwf	(___fladd@b+3)^0,c
  9401  000CE8  5036               	movf	___fladd@bexp^0,w,c
  9402  000CEA  A4D8               	btfss	status,2,c
  9403  000CEC  EF7A  F006         	goto	i2u317_41
  9404  000CF0  EF7C  F006         	goto	i2u317_40
  9405  000CF4                     i2u317_41:
  9406  000CF4  EF7E  F006         	goto	i2l3162
  9407  000CF8                     i2u317_40:
  9408  000CF8  0E00               	movlw	0
  9409  000CFA  6E34               	movwf	___fladd@signs^0,c
  9410  000CFC                     i2l3162:
  9411  000CFC  A036               	btfss	___fladd@bexp^0,0,c
  9412  000CFE  EF83  F006         	goto	i2u318_41
  9413  000D02  EF85  F006         	goto	i2u318_40
  9414  000D06                     i2u318_41:
  9415  000D06  EF88  F006         	goto	i2l3166
  9416  000D0A                     i2u318_40:
  9417  000D0A  8E2A               	bsf	(___fladd@b+2)^0,7,c
  9418  000D0C  EF89  F006         	goto	i2l3168
  9419  000D10                     i2l3166:
  9420  000D10  9E2A               	bcf	(___fladd@b+2)^0,7,c
  9421  000D12                     i2l3168:
  9422  000D12  90D8               	bcf	status,0,c
  9423  000D14  3036               	rrcf	___fladd@bexp^0,w,c
  9424  000D16  6E2B               	movwf	(___fladd@b+3)^0,c
  9425  000D18  AE34               	btfss	___fladd@signs^0,7,c
  9426  000D1A  EF91  F006         	goto	i2u319_41
  9427  000D1E  EF93  F006         	goto	i2u319_40
  9428  000D22                     i2u319_41:
  9429  000D22  EF94  F006         	goto	i2l3174
  9430  000D26                     i2u319_40:
  9431  000D26  8E2B               	bsf	(___fladd@b+3)^0,7,c
  9432  000D28                     i2l3174:
  9433  000D28  C028  F028         	movff	___fladd@b,?___fladd
  9434  000D2C  C029  F029         	movff	___fladd@b+1,?___fladd+1
  9435  000D30  C02A  F02A         	movff	___fladd@b+2,?___fladd+2
  9436  000D34  C02B  F02B         	movff	___fladd@b+3,?___fladd+3
  9437  000D38                     i2l909:
  9438  000D38  0012               	return		;funcret
  9439  000D3A                     __end_of___fladd:
  9440                           	opt callstack 0
  9441                           
  9442 ;; *************** function ___fleq *****************
  9443 ;; Defined at:
  9444 ;;		line 4 in file "C:\Program Files (x86)\Microchip\xc8\v2.10\pic\sources\c99\common\fleq.c"
  9445 ;; Parameters:    Size  Location     Type
  9446 ;;  ff1             4    0[COMRAM] unsigned char 
  9447 ;;  ff2             4    4[COMRAM] unsigned char 
  9448 ;; Auto vars:     Size  Location     Type
  9449 ;;		None
  9450 ;; Return value:  Size  Location     Type
  9451 ;;		None               void
  9452 ;; Registers used:
  9453 ;;		wreg, status,2, status,0
  9454 ;; Tracked objects:
  9455 ;;		On entry : 0/0
  9456 ;;		On exit  : 0/0
  9457 ;;		Unchanged: 0/0
  9458 ;; Data sizes:     COMRAM   BANK0   BANK1   BANK2
  9459 ;;      Params:         8       0       0       0
  9460 ;;      Locals:         0       0       0       0
  9461 ;;      Temps:          4       0       0       0
  9462 ;;      Totals:        12       0       0       0
  9463 ;;Total ram usage:       12 bytes
  9464 ;; Hardware stack levels used:    1
  9465 ;; This function calls:
  9466 ;;		Nothing
  9467 ;; This function is called by:
  9468 ;;		_posicao
  9469 ;;		_moverMotor
  9470 ;; This function uses a non-reentrant model
  9471 ;;
  9472                           
  9473                           	psect	text50
  9474  0036A4                     __ptext50:
  9475                           	opt callstack 0
  9476  0036A4                     ___fleq:
  9477                           	opt callstack 23
  9478  0036A4  0E00               	movlw	0
  9479  0036A6  1401               	andwf	___fleq@ff1^0,w,c
  9480  0036A8  6E09               	movwf	??___fleq^0,c
  9481  0036AA  0E00               	movlw	0
  9482  0036AC  1402               	andwf	(___fleq@ff1+1)^0,w,c
  9483  0036AE  6E0A               	movwf	(??___fleq+1)^0,c
  9484  0036B0  0E80               	movlw	128
  9485  0036B2  1403               	andwf	(___fleq@ff1+2)^0,w,c
  9486  0036B4  6E0B               	movwf	(??___fleq+2)^0,c
  9487  0036B6  0E7F               	movlw	127
  9488  0036B8  1404               	andwf	(___fleq@ff1+3)^0,w,c
  9489  0036BA  6E0C               	movwf	(??___fleq+3)^0,c
  9490  0036BC  5009               	movf	??___fleq^0,w,c
  9491  0036BE  100A               	iorwf	(??___fleq+1)^0,w,c
  9492  0036C0  100B               	iorwf	(??___fleq+2)^0,w,c
  9493  0036C2  100C               	iorwf	(??___fleq+3)^0,w,c
  9494  0036C4  A4D8               	btfss	status,2,c
  9495  0036C6  EF67  F01B         	goto	i2u403_41
  9496  0036CA  EF69  F01B         	goto	i2u403_40
  9497  0036CE                     i2u403_41:
  9498  0036CE  EF71  F01B         	goto	i2l3746
  9499  0036D2                     i2u403_40:
  9500  0036D2  0E00               	movlw	0
  9501  0036D4  6E01               	movwf	___fleq@ff1^0,c
  9502  0036D6  0E00               	movlw	0
  9503  0036D8  6E02               	movwf	(___fleq@ff1+1)^0,c
  9504  0036DA  0E00               	movlw	0
  9505  0036DC  6E03               	movwf	(___fleq@ff1+2)^0,c
  9506  0036DE  0E00               	movlw	0
  9507  0036E0  6E04               	movwf	(___fleq@ff1+3)^0,c
  9508  0036E2                     i2l3746:
  9509  0036E2  0E00               	movlw	0
  9510  0036E4  1405               	andwf	___fleq@ff2^0,w,c
  9511  0036E6  6E09               	movwf	??___fleq^0,c
  9512  0036E8  0E00               	movlw	0
  9513  0036EA  1406               	andwf	(___fleq@ff2+1)^0,w,c
  9514  0036EC  6E0A               	movwf	(??___fleq+1)^0,c
  9515  0036EE  0E80               	movlw	128
  9516  0036F0  1407               	andwf	(___fleq@ff2+2)^0,w,c
  9517  0036F2  6E0B               	movwf	(??___fleq+2)^0,c
  9518  0036F4  0E7F               	movlw	127
  9519  0036F6  1408               	andwf	(___fleq@ff2+3)^0,w,c
  9520  0036F8  6E0C               	movwf	(??___fleq+3)^0,c
  9521  0036FA  5009               	movf	??___fleq^0,w,c
  9522  0036FC  100A               	iorwf	(??___fleq+1)^0,w,c
  9523  0036FE  100B               	iorwf	(??___fleq+2)^0,w,c
  9524  003700  100C               	iorwf	(??___fleq+3)^0,w,c
  9525  003702  A4D8               	btfss	status,2,c
  9526  003704  EF86  F01B         	goto	i2u404_41
  9527  003708  EF88  F01B         	goto	i2u404_40
  9528  00370C                     i2u404_41:
  9529  00370C  EF90  F01B         	goto	i2l3750
  9530  003710                     i2u404_40:
  9531  003710  0E00               	movlw	0
  9532  003712  6E05               	movwf	___fleq@ff2^0,c
  9533  003714  0E00               	movlw	0
  9534  003716  6E06               	movwf	(___fleq@ff2+1)^0,c
  9535  003718  0E00               	movlw	0
  9536  00371A  6E07               	movwf	(___fleq@ff2+2)^0,c
  9537  00371C  0E00               	movlw	0
  9538  00371E  6E08               	movwf	(___fleq@ff2+3)^0,c
  9539  003720                     i2l3750:
  9540  003720  5005               	movf	___fleq@ff2^0,w,c
  9541  003722  1801               	xorwf	___fleq@ff1^0,w,c
  9542  003724  E10F               	bnz	i2u405_40
  9543  003726  5006               	movf	(___fleq@ff2+1)^0,w,c
  9544  003728  1802               	xorwf	(___fleq@ff1+1)^0,w,c
  9545  00372A  E10C               	bnz	i2u405_40
  9546  00372C  5007               	movf	(___fleq@ff2+2)^0,w,c
  9547  00372E  1803               	xorwf	(___fleq@ff1+2)^0,w,c
  9548  003730  E109               	bnz	i2u405_40
  9549  003732  5008               	movf	(___fleq@ff2+3)^0,w,c
  9550  003734  1804               	xorwf	(___fleq@ff1+3)^0,w,c
  9551  003736  B4D8               	btfsc	status,2,c
  9552  003738  EFA0  F01B         	goto	i2u405_41
  9553  00373C  EFA2  F01B         	goto	i2u405_40
  9554  003740                     i2u405_41:
  9555  003740  EFA5  F01B         	goto	i2l3754
  9556  003744                     i2u405_40:
  9557  003744  90D8               	bcf	status,0,c
  9558  003746  EFA6  F01B         	goto	i2l631
  9559  00374A                     i2l3754:
  9560  00374A  80D8               	bsf	status,0,c
  9561  00374C                     i2l631:
  9562  00374C  0012               	return		;funcret
  9563  00374E                     __end_of___fleq:
  9564                           	opt callstack 0
  9565                           
  9566 ;; *************** function _configDA *****************
  9567 ;; Defined at:
  9568 ;;		line 27 in file "./Seguidor.h"
  9569 ;; Parameters:    Size  Location     Type
  9570 ;;		None
  9571 ;; Auto vars:     Size  Location     Type
  9572 ;;  i               2   85[COMRAM] int 
  9573 ;; Return value:  Size  Location     Type
  9574 ;;                  1    wreg      void 
  9575 ;; Registers used:
  9576 ;;		wreg, fsr2l, fsr2h, status,2, status,0, prodl, prodh, cstack
  9577 ;; Tracked objects:
  9578 ;;		On entry : 0/0
  9579 ;;		On exit  : 0/0
  9580 ;;		Unchanged: 0/0
  9581 ;; Data sizes:     COMRAM   BANK0   BANK1   BANK2
  9582 ;;      Params:         0       0       0       0
  9583 ;;      Locals:         6       0       0       0
  9584 ;;      Temps:          2       0       0       0
  9585 ;;      Totals:         8       0       0       0
  9586 ;;Total ram usage:        8 bytes
  9587 ;; Hardware stack levels used:    1
  9588 ;; Hardware stack levels required when called:    3
  9589 ;; This function calls:
  9590 ;;		___flge
  9591 ;;		i2___xxtofl
  9592 ;;		i2_getAD_AN
  9593 ;; This function is called by:
  9594 ;;		_setPID
  9595 ;; This function uses a non-reentrant model
  9596 ;;
  9597                           
  9598                           	psect	text51
  9599  0026E6                     __ptext51:
  9600                           	opt callstack 0
  9601  0026E6                     _configDA:
  9602                           	opt callstack 21
  9603  0026E6                     
  9604                           ;./Seguidor.h: 29:     int i;;./Seguidor.h: 30:     for (i = 0; i < 7; i++)
  9605  0026E6  0E00               	movlw	0
  9606  0026E8  6E57               	movwf	(configDA@i+1)^0,c
  9607  0026EA  0E00               	movlw	0
  9608  0026EC  6E56               	movwf	configDA@i^0,c
  9609  0026EE                     i2l3960:
  9610                           
  9611                           ;./Seguidor.h: 31:     {;./Seguidor.h: 32:         sensor[i] = getAD_AN(i);
  9612  0026EE  C056  F04A         	movff	configDA@i,i2getAD_AN@porta
  9613  0026F2  C057  F04B         	movff	configDA@i+1,i2getAD_AN@porta+1
  9614  0026F6  ECA5  F014         	call	i2_getAD_AN	;wreg free
  9615  0026FA  C04A  F052         	movff	?i2_getAD_AN,_configDA$1691
  9616  0026FE  C04B  F053         	movff	?i2_getAD_AN+1,_configDA$1691+1
  9617  002702  0E00               	movlw	0
  9618  002704  BE53               	btfsc	(_configDA$1691+1)^0,7,c
  9619  002706  0EFF               	movlw	-1
  9620  002708  6E54               	movwf	(_configDA$1691+2)^0,c
  9621  00270A  6E55               	movwf	(_configDA$1691+3)^0,c
  9622  00270C                     
  9623                           ;./Seguidor.h: 31:     {;./Seguidor.h: 32:         sensor[i] = getAD_AN(i);
  9624  00270C  C052  F001         	movff	_configDA$1691,i2___xxtofl@val
  9625  002710  C053  F002         	movff	_configDA$1691+1,i2___xxtofl@val+1
  9626  002714  C054  F003         	movff	_configDA$1691+2,i2___xxtofl@val+2
  9627  002718  C055  F004         	movff	_configDA$1691+3,i2___xxtofl@val+3
  9628  00271C  0E01               	movlw	1
  9629  00271E  EC6A  F010         	call	i2___xxtofl
  9630  002722  0E1C               	movlw	low _sensor
  9631  002724  6E50               	movwf	??_configDA^0,c
  9632  002726  0E01               	movlw	high _sensor
  9633  002728  6E51               	movwf	(??_configDA+1)^0,c
  9634  00272A  90D8               	bcf	status,0,c
  9635  00272C  3456               	rlcf	configDA@i^0,w,c
  9636  00272E  6ED9               	movwf	fsr2l,c
  9637  002730  3457               	rlcf	(configDA@i+1)^0,w,c
  9638  002732  6EDA               	movwf	fsr2h,c
  9639  002734  90D8               	bcf	status,0,c
  9640  002736  36D9               	rlcf	fsr2l,f,c
  9641  002738  36DA               	rlcf	fsr2h,f,c
  9642  00273A  5050               	movf	??_configDA^0,w,c
  9643  00273C  26D9               	addwf	fsr2l,f,c
  9644  00273E  5051               	movf	(??_configDA+1)^0,w,c
  9645  002740  22DA               	addwfc	fsr2h,f,c
  9646  002742  C001  FFDE         	movff	?i2___xxtofl,postinc2
  9647  002746  C002  FFDE         	movff	?i2___xxtofl+1,postinc2
  9648  00274A  C003  FFDE         	movff	?i2___xxtofl+2,postinc2
  9649  00274E  C004  FFDE         	movff	?i2___xxtofl+3,postinc2
  9650  002752                     
  9651                           ;./Seguidor.h: 33:         if (sensor[i] > 850)
  9652  002752  0E00               	movlw	0
  9653  002754  6E01               	movwf	___flge@ff1^0,c
  9654  002756  0E80               	movlw	128
  9655  002758  6E02               	movwf	(___flge@ff1+1)^0,c
  9656  00275A  0E54               	movlw	84
  9657  00275C  6E03               	movwf	(___flge@ff1+2)^0,c
  9658  00275E  0E44               	movlw	68
  9659  002760  6E04               	movwf	(___flge@ff1+3)^0,c
  9660  002762  0E1C               	movlw	low _sensor
  9661  002764  6E50               	movwf	??_configDA^0,c
  9662  002766  0E01               	movlw	high _sensor
  9663  002768  6E51               	movwf	(??_configDA+1)^0,c
  9664  00276A  90D8               	bcf	status,0,c
  9665  00276C  3456               	rlcf	configDA@i^0,w,c
  9666  00276E  6ED9               	movwf	fsr2l,c
  9667  002770  3457               	rlcf	(configDA@i+1)^0,w,c
  9668  002772  6EDA               	movwf	fsr2h,c
  9669  002774  90D8               	bcf	status,0,c
  9670  002776  36D9               	rlcf	fsr2l,f,c
  9671  002778  36DA               	rlcf	fsr2h,f,c
  9672  00277A  5050               	movf	??_configDA^0,w,c
  9673  00277C  26D9               	addwf	fsr2l,f,c
  9674  00277E  5051               	movf	(??_configDA+1)^0,w,c
  9675  002780  22DA               	addwfc	fsr2h,f,c
  9676  002782  CFDE F005          	movff	postinc2,___flge@ff2
  9677  002786  CFDE F006          	movff	postinc2,___flge@ff2+1
  9678  00278A  CFDE F007          	movff	postinc2,___flge@ff2+2
  9679  00278E  CFDE F008          	movff	postinc2,___flge@ff2+3
  9680  002792  EC40  F017         	call	___flge	;wreg free
  9681  002796  B0D8               	btfsc	status,0,c
  9682  002798  EFD0  F013         	goto	i2u430_41
  9683  00279C  EFD2  F013         	goto	i2u430_40
  9684  0027A0                     i2u430_41:
  9685  0027A0  EFEC  F013         	goto	i2l3968
  9686  0027A4                     i2u430_40:
  9687  0027A4                     
  9688                           ;./Seguidor.h: 34:         {;./Seguidor.h: 35:             leitura[i] = 1;
  9689  0027A4  0E00               	movlw	low _leitura
  9690  0027A6  6E50               	movwf	??_configDA^0,c
  9691  0027A8  0E01               	movlw	high _leitura
  9692  0027AA  6E51               	movwf	(??_configDA+1)^0,c
  9693  0027AC  90D8               	bcf	status,0,c
  9694  0027AE  3456               	rlcf	configDA@i^0,w,c
  9695  0027B0  6ED9               	movwf	fsr2l,c
  9696  0027B2  3457               	rlcf	(configDA@i+1)^0,w,c
  9697  0027B4  6EDA               	movwf	fsr2h,c
  9698  0027B6  90D8               	bcf	status,0,c
  9699  0027B8  36D9               	rlcf	fsr2l,f,c
  9700  0027BA  36DA               	rlcf	fsr2h,f,c
  9701  0027BC  5050               	movf	??_configDA^0,w,c
  9702  0027BE  26D9               	addwf	fsr2l,f,c
  9703  0027C0  5051               	movf	(??_configDA+1)^0,w,c
  9704  0027C2  22DA               	addwfc	fsr2h,f,c
  9705  0027C4  0E00               	movlw	0
  9706  0027C6  6EDE               	movwf	postinc2,c
  9707  0027C8  0E00               	movlw	0
  9708  0027CA  6EDE               	movwf	postinc2,c
  9709  0027CC  0E80               	movlw	128
  9710  0027CE  6EDE               	movwf	postinc2,c
  9711  0027D0  0E3F               	movlw	63
  9712  0027D2  6EDD               	movwf	postdec2,c
  9713                           
  9714                           ;./Seguidor.h: 36:         } else {
  9715  0027D4  EF04  F014         	goto	i2l3970
  9716  0027D8                     i2l3968:
  9717                           
  9718                           ;./Seguidor.h: 37:             leitura[i] = 0;
  9719  0027D8  0E00               	movlw	low _leitura
  9720  0027DA  6E50               	movwf	??_configDA^0,c
  9721  0027DC  0E01               	movlw	high _leitura
  9722  0027DE  6E51               	movwf	(??_configDA+1)^0,c
  9723  0027E0  90D8               	bcf	status,0,c
  9724  0027E2  3456               	rlcf	configDA@i^0,w,c
  9725  0027E4  6ED9               	movwf	fsr2l,c
  9726  0027E6  3457               	rlcf	(configDA@i+1)^0,w,c
  9727  0027E8  6EDA               	movwf	fsr2h,c
  9728  0027EA  90D8               	bcf	status,0,c
  9729  0027EC  36D9               	rlcf	fsr2l,f,c
  9730  0027EE  36DA               	rlcf	fsr2h,f,c
  9731  0027F0  5050               	movf	??_configDA^0,w,c
  9732  0027F2  26D9               	addwf	fsr2l,f,c
  9733  0027F4  5051               	movf	(??_configDA+1)^0,w,c
  9734  0027F6  22DA               	addwfc	fsr2h,f,c
  9735  0027F8  0E00               	movlw	0
  9736  0027FA  6EDE               	movwf	postinc2,c
  9737  0027FC  0E00               	movlw	0
  9738  0027FE  6EDE               	movwf	postinc2,c
  9739  002800  0E00               	movlw	0
  9740  002802  6EDE               	movwf	postinc2,c
  9741  002804  0E00               	movlw	0
  9742  002806  6EDD               	movwf	postdec2,c
  9743  002808                     i2l3970:
  9744                           
  9745                           ;./Seguidor.h: 39:     }
  9746  002808  4A56               	infsnz	configDA@i^0,f,c
  9747  00280A  2A57               	incf	(configDA@i+1)^0,f,c
  9748  00280C  BE57               	btfsc	(configDA@i+1)^0,7,c
  9749  00280E  EF12  F014         	goto	i2u431_41
  9750  002812  5057               	movf	(configDA@i+1)^0,w,c
  9751  002814  E109               	bnz	i2u431_40
  9752  002816  0E07               	movlw	7
  9753  002818  5C56               	subwf	configDA@i^0,w,c
  9754  00281A  A0D8               	btfss	status,0,c
  9755  00281C  EF12  F014         	goto	i2u431_41
  9756  002820  EF14  F014         	goto	i2u431_40
  9757  002824                     i2u431_41:
  9758  002824  EF77  F013         	goto	i2l3960
  9759  002828                     i2u431_40:
  9760  002828  0012               	return		;funcret
  9761  00282A                     __end_of_configDA:
  9762                           	opt callstack 0
  9763                           
  9764 ;; *************** function i2_getAD_AN *****************
  9765 ;; Defined at:
  9766 ;;		line 89 in file "./ADC.h"
  9767 ;; Parameters:    Size  Location     Type
  9768 ;;  porta           2   73[COMRAM] int 
  9769 ;; Auto vars:     Size  Location     Type
  9770 ;;  getAD_AN        4   75[COMRAM] float 
  9771 ;; Return value:  Size  Location     Type
  9772 ;;                  2   73[COMRAM] int 
  9773 ;; Registers used:
  9774 ;;		wreg, status,2, status,0, prodl, prodh, cstack
  9775 ;; Tracked objects:
  9776 ;;		On entry : 0/0
  9777 ;;		On exit  : 0/0
  9778 ;;		Unchanged: 0/0
  9779 ;; Data sizes:     COMRAM   BANK0   BANK1   BANK2
  9780 ;;      Params:         2       0       0       0
  9781 ;;      Locals:         4       0       0       0
  9782 ;;      Temps:          0       0       0       0
  9783 ;;      Totals:         6       0       0       0
  9784 ;;Total ram usage:        6 bytes
  9785 ;; Hardware stack levels used:    1
  9786 ;; Hardware stack levels required when called:    2
  9787 ;; This function calls:
  9788 ;;		i2___fltol
  9789 ;;		i2_bitExtract
  9790 ;;		i2_readAD_AN
  9791 ;; This function is called by:
  9792 ;;		_configDA
  9793 ;; This function uses a non-reentrant model
  9794 ;;
  9795                           
  9796                           	psect	text52
  9797  00294A                     __ptext52:
  9798                           	opt callstack 0
  9799  00294A                     i2_getAD_AN:
  9800                           	opt callstack 21
  9801  00294A                     
  9802                           ;./ADC.h: 91:     ADCON0bits.ACMOD = bitExtract(porta, 2, 0);
  9803  00294A  C04A  F001         	movff	i2getAD_AN@porta,i2bitExtract@numero
  9804  00294E  C04B  F002         	movff	i2getAD_AN@porta+1,i2bitExtract@numero+1
  9805  002952  0E00               	movlw	0
  9806  002954  6E04               	movwf	(i2bitExtract@k+1)^0,c
  9807  002956  0E02               	movlw	2
  9808  002958  6E03               	movwf	i2bitExtract@k^0,c
  9809  00295A  0E00               	movlw	0
  9810  00295C  6E06               	movwf	(i2bitExtract@p+1)^0,c
  9811  00295E  0E00               	movlw	0
  9812  002960  6E05               	movwf	i2bitExtract@p^0,c
  9813  002962  EC59  F01C         	call	i2_bitExtract	;wreg free
  9814  002966  4601               	rlncf	?i2_bitExtract^0,f,c
  9815  002968  4601               	rlncf	?i2_bitExtract^0,f,c
  9816  00296A  50C2               	movf	194,w,c	;volatile
  9817  00296C  1801               	xorwf	?i2_bitExtract^0,w,c
  9818  00296E  0BF3               	andlw	-13
  9819  002970  1801               	xorwf	?i2_bitExtract^0,w,c
  9820  002972  6EC2               	movwf	194,c	;volatile
  9821                           
  9822                           ;./ADC.h: 93:     ADCHSbits.GASEL0 = bitExtract(porta, 1, 2);
  9823  002974  C04A  F001         	movff	i2getAD_AN@porta,i2bitExtract@numero
  9824  002978  C04B  F002         	movff	i2getAD_AN@porta+1,i2bitExtract@numero+1
  9825  00297C  0E00               	movlw	0
  9826  00297E  6E04               	movwf	(i2bitExtract@k+1)^0,c
  9827  002980  0E01               	movlw	1
  9828  002982  6E03               	movwf	i2bitExtract@k^0,c
  9829  002984  0E00               	movlw	0
  9830  002986  6E06               	movwf	(i2bitExtract@p+1)^0,c
  9831  002988  0E02               	movlw	2
  9832  00298A  6E05               	movwf	i2bitExtract@p^0,c
  9833  00298C  EC59  F01C         	call	i2_bitExtract	;wreg free
  9834  002990  5099               	movf	153,w,c	;volatile
  9835  002992  1801               	xorwf	?i2_bitExtract^0,w,c
  9836  002994  0BFE               	andlw	-2
  9837  002996  1801               	xorwf	?i2_bitExtract^0,w,c
  9838  002998  6E99               	movwf	153,c	;volatile
  9839                           
  9840                           ;./ADC.h: 94:     ADCHSbits.GBSEL0 = bitExtract(porta, 1, 2);
  9841  00299A  C04A  F001         	movff	i2getAD_AN@porta,i2bitExtract@numero
  9842  00299E  C04B  F002         	movff	i2getAD_AN@porta+1,i2bitExtract@numero+1
  9843  0029A2  0E00               	movlw	0
  9844  0029A4  6E04               	movwf	(i2bitExtract@k+1)^0,c
  9845  0029A6  0E01               	movlw	1
  9846  0029A8  6E03               	movwf	i2bitExtract@k^0,c
  9847  0029AA  0E00               	movlw	0
  9848  0029AC  6E06               	movwf	(i2bitExtract@p+1)^0,c
  9849  0029AE  0E02               	movlw	2
  9850  0029B0  6E05               	movwf	i2bitExtract@p^0,c
  9851  0029B2  EC59  F01C         	call	i2_bitExtract	;wreg free
  9852  0029B6  3A01               	swapf	?i2_bitExtract^0,f,c
  9853  0029B8  5099               	movf	153,w,c	;volatile
  9854  0029BA  1801               	xorwf	?i2_bitExtract^0,w,c
  9855  0029BC  0BEF               	andlw	-17
  9856  0029BE  1801               	xorwf	?i2_bitExtract^0,w,c
  9857  0029C0  6E99               	movwf	153,c	;volatile
  9858                           
  9859                           ;./ADC.h: 95:     ADCHSbits.GCSEL0 = bitExtract(porta, 1, 2);
  9860  0029C2  C04A  F001         	movff	i2getAD_AN@porta,i2bitExtract@numero
  9861  0029C6  C04B  F002         	movff	i2getAD_AN@porta+1,i2bitExtract@numero+1
  9862  0029CA  0E00               	movlw	0
  9863  0029CC  6E04               	movwf	(i2bitExtract@k+1)^0,c
  9864  0029CE  0E01               	movlw	1
  9865  0029D0  6E03               	movwf	i2bitExtract@k^0,c
  9866  0029D2  0E00               	movlw	0
  9867  0029D4  6E06               	movwf	(i2bitExtract@p+1)^0,c
  9868  0029D6  0E02               	movlw	2
  9869  0029D8  6E05               	movwf	i2bitExtract@p^0,c
  9870  0029DA  EC59  F01C         	call	i2_bitExtract	;wreg free
  9871  0029DE  4601               	rlncf	?i2_bitExtract^0,f,c
  9872  0029E0  4601               	rlncf	?i2_bitExtract^0,f,c
  9873  0029E2  5099               	movf	153,w,c	;volatile
  9874  0029E4  1801               	xorwf	?i2_bitExtract^0,w,c
  9875  0029E6  0BFB               	andlw	-5
  9876  0029E8  1801               	xorwf	?i2_bitExtract^0,w,c
  9877  0029EA  6E99               	movwf	153,c	;volatile
  9878                           
  9879                           ;./ADC.h: 96:     ADCHSbits.GDSEL0 = bitExtract(porta, 1, 2);
  9880  0029EC  C04A  F001         	movff	i2getAD_AN@porta,i2bitExtract@numero
  9881  0029F0  C04B  F002         	movff	i2getAD_AN@porta+1,i2bitExtract@numero+1
  9882  0029F4  0E00               	movlw	0
  9883  0029F6  6E04               	movwf	(i2bitExtract@k+1)^0,c
  9884  0029F8  0E01               	movlw	1
  9885  0029FA  6E03               	movwf	i2bitExtract@k^0,c
  9886  0029FC  0E00               	movlw	0
  9887  0029FE  6E06               	movwf	(i2bitExtract@p+1)^0,c
  9888  002A00  0E02               	movlw	2
  9889  002A02  6E05               	movwf	i2bitExtract@p^0,c
  9890  002A04  EC59  F01C         	call	i2_bitExtract	;wreg free
  9891  002A08  3A01               	swapf	?i2_bitExtract^0,f,c
  9892  002A0A  4601               	rlncf	?i2_bitExtract^0,f,c
  9893  002A0C  4601               	rlncf	?i2_bitExtract^0,f,c
  9894  002A0E  5099               	movf	153,w,c	;volatile
  9895  002A10  1801               	xorwf	?i2_bitExtract^0,w,c
  9896  002A12  0BBF               	andlw	-65
  9897  002A14  1801               	xorwf	?i2_bitExtract^0,w,c
  9898  002A16  6E99               	movwf	153,c	;volatile
  9899  002A18                     
  9900                           ;./ADC.h: 98:     ADCON0bits.ADON = 1;
  9901  002A18  80C2               	bsf	194,0,c	;volatile
  9902  002A1A                     
  9903                           ;./ADC.h: 99:     ADCON0bits.GODONE = 1;
  9904  002A1A  82C2               	bsf	194,1,c	;volatile
  9905  002A1C                     i2l142:
  9906  002A1C  B2C2               	btfsc	194,1,c	;volatile
  9907  002A1E  EF13  F015         	goto	i2u418_41
  9908  002A22  EF15  F015         	goto	i2u418_40
  9909  002A26                     i2u418_41:
  9910  002A26  EF0E  F015         	goto	i2l142
  9911  002A2A                     i2u418_40:
  9912  002A2A                     
  9913                           ;./ADC.h: 102:     float ANread = readAD_AN();
  9914  002A2A  ECA7  F01B         	call	i2_readAD_AN	;wreg free
  9915  002A2E  C028  F04C         	movff	?i2_readAD_AN,i2getAD_AN@ANread
  9916  002A32  C029  F04D         	movff	?i2_readAD_AN+1,i2getAD_AN@ANread+1
  9917  002A36  C02A  F04E         	movff	?i2_readAD_AN+2,i2getAD_AN@ANread+2
  9918  002A3A  C02B  F04F         	movff	?i2_readAD_AN+3,i2getAD_AN@ANread+3
  9919  002A3E                     
  9920                           ;./ADC.h: 103:     ADCON0bits.ADON = 0;
  9921  002A3E  90C2               	bcf	194,0,c	;volatile
  9922  002A40                     
  9923                           ;./ADC.h: 105:     return (int) ANread;
  9924  002A40  C04C  F040         	movff	i2getAD_AN@ANread,i2___fltol@f1
  9925  002A44  C04D  F041         	movff	i2getAD_AN@ANread+1,i2___fltol@f1+1
  9926  002A48  C04E  F042         	movff	i2getAD_AN@ANread+2,i2___fltol@f1+2
  9927  002A4C  C04F  F043         	movff	i2getAD_AN@ANread+3,i2___fltol@f1+3
  9928  002A50  EC3B  F016         	call	i2___fltol	;wreg free
  9929  002A54  C040  F04A         	movff	?i2___fltol,?i2_getAD_AN
  9930  002A58  C041  F04B         	movff	?i2___fltol+1,?i2_getAD_AN+1
  9931  002A5C  0012               	return		;funcret
  9932  002A5E                     __end_ofi2_getAD_AN:
  9933                           	opt callstack 0
  9934                           
  9935 ;; *************** function i2_readAD_AN *****************
  9936 ;; Defined at:
  9937 ;;		line 69 in file "./ADC.h"
  9938 ;; Parameters:    Size  Location     Type
  9939 ;;		None
  9940 ;; Auto vars:     Size  Location     Type
  9941 ;;		None
  9942 ;; Return value:  Size  Location     Type
  9943 ;;                  4   39[COMRAM] float 
  9944 ;; Registers used:
  9945 ;;		wreg, status,2, status,0, prodl, prodh, cstack
  9946 ;; Tracked objects:
  9947 ;;		On entry : 0/0
  9948 ;;		On exit  : 0/0
  9949 ;;		Unchanged: 0/0
  9950 ;; Data sizes:     COMRAM   BANK0   BANK1   BANK2
  9951 ;;      Params:         4       0       0       0
  9952 ;;      Locals:         4       0       0       0
  9953 ;;      Temps:          0       0       0       0
  9954 ;;      Totals:         8       0       0       0
  9955 ;;Total ram usage:        8 bytes
  9956 ;; Hardware stack levels used:    1
  9957 ;; Hardware stack levels required when called:    1
  9958 ;; This function calls:
  9959 ;;		i2___flmul
  9960 ;;		i2___xxtofl
  9961 ;; This function is called by:
  9962 ;;		i2_getAD_AN
  9963 ;; This function uses a non-reentrant model
  9964 ;;
  9965                           
  9966                           	psect	text53
  9967  00374E                     __ptext53:
  9968                           	opt callstack 0
  9969  00374E                     i2_readAD_AN:
  9970                           	opt callstack 21
  9971  00374E                     
  9972                           ;./ADC.h: 71:     vdig_AN = ADRESH;
  9973  00374E  CFC4 F0D7          	movff	4036,_vdig_AN	;volatile
  9974  003752  0100               	movlb	0	; () banked
  9975  003754  6BD8               	clrf	(_vdig_AN+1)& (0+255),b
  9976  003756                     
  9977                           ; BSR set to: 0
  9978                           ;./ADC.h: 72:     vdig_AN = vdig_AN << 8;
  9979  003756  51D7               	movf	_vdig_AN& (0+255),w,b
  9980  003758  6FD8               	movwf	(_vdig_AN+1)& (0+255),b
  9981  00375A  6BD7               	clrf	_vdig_AN& (0+255),b
  9982  00375C                     
  9983                           ; BSR set to: 0
  9984                           ;./ADC.h: 73:     vdig_AN += ADRESL;
  9985  00375C  50C3               	movf	195,w,c	;volatile
  9986  00375E  27D7               	addwf	_vdig_AN& (0+255),f,b
  9987  003760  0E00               	movlw	0
  9988  003762  23D8               	addwfc	(_vdig_AN+1)& (0+255),f,b
  9989  003764                     
  9990                           ; BSR set to: 0
  9991                           ;./ADC.h: 75:     vanal_AN = 4.88 * vdig_AN * 0.1;
  9992  003764  0EF6               	movlw	246
  9993  003766  6E13               	movwf	i2___flmul@a^0,c
  9994  003768  0E28               	movlw	40
  9995  00376A  6E14               	movwf	(i2___flmul@a+1)^0,c
  9996  00376C  0E9C               	movlw	156
  9997  00376E  6E15               	movwf	(i2___flmul@a+2)^0,c
  9998  003770  0E40               	movlw	64
  9999  003772  6E16               	movwf	(i2___flmul@a+3)^0,c
 10000  003774  C0D7  F001         	movff	_vdig_AN,i2___xxtofl@val
 10001  003778  C0D8  F002         	movff	_vdig_AN+1,i2___xxtofl@val+1
 10002  00377C  0E00               	movlw	0
 10003  00377E  BE02               	btfsc	(i2___xxtofl@val+1)^0,7,c
 10004  003780  0EFF               	movlw	-1
 10005  003782  6E03               	movwf	(i2___xxtofl@val+2)^0,c
 10006  003784  6E04               	movwf	(i2___xxtofl@val+3)^0,c
 10007  003786  0E01               	movlw	1
 10008  003788  EC6A  F010         	call	i2___xxtofl
 10009  00378C  C001  F00F         	movff	?i2___xxtofl,i2___flmul@b
 10010  003790  C002  F010         	movff	?i2___xxtofl+1,i2___flmul@b+1
 10011  003794  C003  F011         	movff	?i2___xxtofl+2,i2___flmul@b+2
 10012  003798  C004  F012         	movff	?i2___xxtofl+3,i2___flmul@b+3
 10013  00379C  ECB3  F008         	call	i2___flmul	;wreg free
 10014  0037A0  C00F  F02C         	movff	?i2___flmul,i2_readAD_AN$1693
 10015  0037A4  C010  F02D         	movff	?i2___flmul+1,i2_readAD_AN$1693+1
 10016  0037A8  C011  F02E         	movff	?i2___flmul+2,i2_readAD_AN$1693+2
 10017  0037AC  C012  F02F         	movff	?i2___flmul+3,i2_readAD_AN$1693+3
 10018  0037B0                     
 10019                           ;./ADC.h: 75:     vanal_AN = 4.88 * vdig_AN * 0.1;
 10020  0037B0  C02C  F00F         	movff	i2_readAD_AN$1693,i2___flmul@b
 10021  0037B4  C02D  F010         	movff	i2_readAD_AN$1693+1,i2___flmul@b+1
 10022  0037B8  C02E  F011         	movff	i2_readAD_AN$1693+2,i2___flmul@b+2
 10023  0037BC  C02F  F012         	movff	i2_readAD_AN$1693+3,i2___flmul@b+3
 10024  0037C0  0ECD               	movlw	205
 10025  0037C2  6E13               	movwf	i2___flmul@a^0,c
 10026  0037C4  0ECC               	movlw	204
 10027  0037C6  6E14               	movwf	(i2___flmul@a+1)^0,c
 10028  0037C8  0ECC               	movlw	204
 10029  0037CA  6E15               	movwf	(i2___flmul@a+2)^0,c
 10030  0037CC  0E3D               	movlw	61
 10031  0037CE  6E16               	movwf	(i2___flmul@a+3)^0,c
 10032  0037D0  ECB3  F008         	call	i2___flmul	;wreg free
 10033  0037D4  C00F  F0D1         	movff	?i2___flmul,_vanal_AN
 10034  0037D8  C010  F0D2         	movff	?i2___flmul+1,_vanal_AN+1
 10035  0037DC  C011  F0D3         	movff	?i2___flmul+2,_vanal_AN+2
 10036  0037E0  C012  F0D4         	movff	?i2___flmul+3,_vanal_AN+3
 10037  0037E4                     
 10038                           ;./ADC.h: 77:     return vanal_AN;
 10039  0037E4  C0D1  F028         	movff	_vanal_AN,?i2_readAD_AN
 10040  0037E8  C0D2  F029         	movff	_vanal_AN+1,?i2_readAD_AN+1
 10041  0037EC  C0D3  F02A         	movff	_vanal_AN+2,?i2_readAD_AN+2
 10042  0037F0  C0D4  F02B         	movff	_vanal_AN+3,?i2_readAD_AN+3
 10043  0037F4  0012               	return		;funcret
 10044  0037F6                     __end_ofi2_readAD_AN:
 10045                           	opt callstack 0
 10046                           
 10047 ;; *************** function i2___xxtofl *****************
 10048 ;; Defined at:
 10049 ;;		line 10 in file "C:\Program Files (x86)\Microchip\xc8\v2.10\pic\sources\c99\common\xxtofl.c"
 10050 ;; Parameters:    Size  Location     Type
 10051 ;;  sign            1    wreg     unsigned char 
 10052 ;;  val             4    0[COMRAM] long 
 10053 ;; Auto vars:     Size  Location     Type
 10054 ;;  sign            1    8[COMRAM] unsigned char 
 10055 ;;  __xxtofl        4   10[COMRAM] unsigned long 
 10056 ;;  __xxtofl        1    9[COMRAM] unsigned char 
 10057 ;; Return value:  Size  Location     Type
 10058 ;;                  4    0[COMRAM] unsigned char 
 10059 ;; Registers used:
 10060 ;;		wreg, status,2, status,0
 10061 ;; Tracked objects:
 10062 ;;		On entry : 0/0
 10063 ;;		On exit  : 0/0
 10064 ;;		Unchanged: 0/0
 10065 ;; Data sizes:     COMRAM   BANK0   BANK1   BANK2
 10066 ;;      Params:         4       0       0       0
 10067 ;;      Locals:         6       0       0       0
 10068 ;;      Temps:          4       0       0       0
 10069 ;;      Totals:        14       0       0       0
 10070 ;;Total ram usage:       14 bytes
 10071 ;; Hardware stack levels used:    1
 10072 ;; This function calls:
 10073 ;;		Nothing
 10074 ;; This function is called by:
 10075 ;;		_configDA
 10076 ;;		_moverMotor
 10077 ;;		_setPID
 10078 ;;		i2_readAD_AN
 10079 ;; This function uses a non-reentrant model
 10080 ;;
 10081                           
 10082                           	psect	text54
 10083  0020D4                     __ptext54:
 10084                           	opt callstack 0
 10085  0020D4                     i2___xxtofl:
 10086                           	opt callstack 24
 10087                           
 10088                           ;incstack = 0
 10089                           ;i2___xxtofl@sign stored from wreg
 10090  0020D4  6E09               	movwf	i2___xxtofl@sign^0,c
 10091  0020D6  5009               	movf	i2___xxtofl@sign^0,w,c
 10092  0020D8  B4D8               	btfsc	status,2,c
 10093  0020DA  EF71  F010         	goto	i2u270_41
 10094  0020DE  EF73  F010         	goto	i2u270_40
 10095  0020E2                     i2u270_41:
 10096  0020E2  EF95  F010         	goto	i2l1027
 10097  0020E6                     i2u270_40:
 10098  0020E6  BE04               	btfsc	(i2___xxtofl@val+3)^0,7,c
 10099  0020E8  EF7A  F010         	goto	i2u271_40
 10100  0020EC  EF78  F010         	goto	i2u271_41
 10101  0020F0                     i2u271_41:
 10102  0020F0  EF95  F010         	goto	i2l1027
 10103  0020F4                     i2u271_40:
 10104  0020F4  C001  F005         	movff	i2___xxtofl@val,??i2___xxtofl
 10105  0020F8  C002  F006         	movff	i2___xxtofl@val+1,??i2___xxtofl+1
 10106  0020FC  C003  F007         	movff	i2___xxtofl@val+2,??i2___xxtofl+2
 10107  002100  C004  F008         	movff	i2___xxtofl@val+3,??i2___xxtofl+3
 10108  002104  1E05               	comf	??i2___xxtofl^0,f,c
 10109  002106  1E06               	comf	(??i2___xxtofl+1)^0,f,c
 10110  002108  1E07               	comf	(??i2___xxtofl+2)^0,f,c
 10111  00210A  1E08               	comf	(??i2___xxtofl+3)^0,f,c
 10112  00210C  2A05               	incf	??i2___xxtofl^0,f,c
 10113  00210E  0E00               	movlw	0
 10114  002110  2206               	addwfc	(??i2___xxtofl+1)^0,f,c
 10115  002112  2207               	addwfc	(??i2___xxtofl+2)^0,f,c
 10116  002114  2208               	addwfc	(??i2___xxtofl+3)^0,f,c
 10117  002116  C005  F00B         	movff	??i2___xxtofl,i2___xxtofl@arg
 10118  00211A  C006  F00C         	movff	??i2___xxtofl+1,i2___xxtofl@arg+1
 10119  00211E  C007  F00D         	movff	??i2___xxtofl+2,i2___xxtofl@arg+2
 10120  002122  C008  F00E         	movff	??i2___xxtofl+3,i2___xxtofl@arg+3
 10121  002126  EF9D  F010         	goto	i2l2934
 10122  00212A                     i2l1027:
 10123  00212A  C001  F00B         	movff	i2___xxtofl@val,i2___xxtofl@arg
 10124  00212E  C002  F00C         	movff	i2___xxtofl@val+1,i2___xxtofl@arg+1
 10125  002132  C003  F00D         	movff	i2___xxtofl@val+2,i2___xxtofl@arg+2
 10126  002136  C004  F00E         	movff	i2___xxtofl@val+3,i2___xxtofl@arg+3
 10127  00213A                     i2l2934:
 10128  00213A  5001               	movf	i2___xxtofl@val^0,w,c
 10129  00213C  1002               	iorwf	(i2___xxtofl@val+1)^0,w,c
 10130  00213E  1003               	iorwf	(i2___xxtofl@val+2)^0,w,c
 10131  002140  1004               	iorwf	(i2___xxtofl@val+3)^0,w,c
 10132  002142  A4D8               	btfss	status,2,c
 10133  002144  EFA6  F010         	goto	i2u272_41
 10134  002148  EFA8  F010         	goto	i2u272_40
 10135  00214C                     i2u272_41:
 10136  00214C  EFB2  F010         	goto	i2l2940
 10137  002150                     i2u272_40:
 10138  002150  0E00               	movlw	0
 10139  002152  6E01               	movwf	?i2___xxtofl^0,c
 10140  002154  0E00               	movlw	0
 10141  002156  6E02               	movwf	(?i2___xxtofl+1)^0,c
 10142  002158  0E00               	movlw	0
 10143  00215A  6E03               	movwf	(?i2___xxtofl+2)^0,c
 10144  00215C  0E00               	movlw	0
 10145  00215E  6E04               	movwf	(?i2___xxtofl+3)^0,c
 10146  002160  EF43  F011         	goto	i2l1030
 10147  002164                     i2l2940:
 10148  002164  0E96               	movlw	150
 10149  002166  6E0A               	movwf	i2___xxtofl@exp^0,c
 10150  002168  EFBC  F010         	goto	i2l2944
 10151  00216C                     i2l2942:
 10152  00216C  2A0A               	incf	i2___xxtofl@exp^0,f,c
 10153  00216E  90D8               	bcf	status,0,c
 10154  002170  320E               	rrcf	(i2___xxtofl@arg+3)^0,f,c
 10155  002172  320D               	rrcf	(i2___xxtofl@arg+2)^0,f,c
 10156  002174  320C               	rrcf	(i2___xxtofl@arg+1)^0,f,c
 10157  002176  320B               	rrcf	i2___xxtofl@arg^0,f,c
 10158  002178                     i2l2944:
 10159  002178  0E00               	movlw	0
 10160  00217A  140B               	andwf	i2___xxtofl@arg^0,w,c
 10161  00217C  6E05               	movwf	??i2___xxtofl^0,c
 10162  00217E  0E00               	movlw	0
 10163  002180  140C               	andwf	(i2___xxtofl@arg+1)^0,w,c
 10164  002182  6E06               	movwf	(??i2___xxtofl+1)^0,c
 10165  002184  0E00               	movlw	0
 10166  002186  140D               	andwf	(i2___xxtofl@arg+2)^0,w,c
 10167  002188  6E07               	movwf	(??i2___xxtofl+2)^0,c
 10168  00218A  0EFE               	movlw	254
 10169  00218C  140E               	andwf	(i2___xxtofl@arg+3)^0,w,c
 10170  00218E  6E08               	movwf	(??i2___xxtofl+3)^0,c
 10171  002190  5005               	movf	??i2___xxtofl^0,w,c
 10172  002192  1006               	iorwf	(??i2___xxtofl+1)^0,w,c
 10173  002194  1007               	iorwf	(??i2___xxtofl+2)^0,w,c
 10174  002196  1008               	iorwf	(??i2___xxtofl+3)^0,w,c
 10175  002198  A4D8               	btfss	status,2,c
 10176  00219A  EFD1  F010         	goto	i2u273_41
 10177  00219E  EFD3  F010         	goto	i2u273_40
 10178  0021A2                     i2u273_41:
 10179  0021A2  EFB6  F010         	goto	i2l2942
 10180  0021A6                     i2u273_40:
 10181  0021A6  EFE1  F010         	goto	i2l1034
 10182  0021AA                     i2l2946:
 10183  0021AA  2A0A               	incf	i2___xxtofl@exp^0,f,c
 10184  0021AC  0E01               	movlw	1
 10185  0021AE  260B               	addwf	i2___xxtofl@arg^0,f,c
 10186  0021B0  0E00               	movlw	0
 10187  0021B2  220C               	addwfc	(i2___xxtofl@arg+1)^0,f,c
 10188  0021B4  220D               	addwfc	(i2___xxtofl@arg+2)^0,f,c
 10189  0021B6  220E               	addwfc	(i2___xxtofl@arg+3)^0,f,c
 10190  0021B8  90D8               	bcf	status,0,c
 10191  0021BA  320E               	rrcf	(i2___xxtofl@arg+3)^0,f,c
 10192  0021BC  320D               	rrcf	(i2___xxtofl@arg+2)^0,f,c
 10193  0021BE  320C               	rrcf	(i2___xxtofl@arg+1)^0,f,c
 10194  0021C0  320B               	rrcf	i2___xxtofl@arg^0,f,c
 10195  0021C2                     i2l1034:
 10196  0021C2  0E00               	movlw	0
 10197  0021C4  140B               	andwf	i2___xxtofl@arg^0,w,c
 10198  0021C6  6E05               	movwf	??i2___xxtofl^0,c
 10199  0021C8  0E00               	movlw	0
 10200  0021CA  140C               	andwf	(i2___xxtofl@arg+1)^0,w,c
 10201  0021CC  6E06               	movwf	(??i2___xxtofl+1)^0,c
 10202  0021CE  0E00               	movlw	0
 10203  0021D0  140D               	andwf	(i2___xxtofl@arg+2)^0,w,c
 10204  0021D2  6E07               	movwf	(??i2___xxtofl+2)^0,c
 10205  0021D4  0EFF               	movlw	255
 10206  0021D6  140E               	andwf	(i2___xxtofl@arg+3)^0,w,c
 10207  0021D8  6E08               	movwf	(??i2___xxtofl+3)^0,c
 10208  0021DA  5005               	movf	??i2___xxtofl^0,w,c
 10209  0021DC  1006               	iorwf	(??i2___xxtofl+1)^0,w,c
 10210  0021DE  1007               	iorwf	(??i2___xxtofl+2)^0,w,c
 10211  0021E0  1008               	iorwf	(??i2___xxtofl+3)^0,w,c
 10212  0021E2  A4D8               	btfss	status,2,c
 10213  0021E4  EFF6  F010         	goto	i2u274_41
 10214  0021E8  EFF8  F010         	goto	i2u274_40
 10215  0021EC                     i2u274_41:
 10216  0021EC  EFD5  F010         	goto	i2l2946
 10217  0021F0                     i2u274_40:
 10218  0021F0  EF00  F011         	goto	i2l2954
 10219  0021F4                     i2l2952:
 10220  0021F4  060A               	decf	i2___xxtofl@exp^0,f,c
 10221  0021F6  90D8               	bcf	status,0,c
 10222  0021F8  360B               	rlcf	i2___xxtofl@arg^0,f,c
 10223  0021FA  360C               	rlcf	(i2___xxtofl@arg+1)^0,f,c
 10224  0021FC  360D               	rlcf	(i2___xxtofl@arg+2)^0,f,c
 10225  0021FE  360E               	rlcf	(i2___xxtofl@arg+3)^0,f,c
 10226  002200                     i2l2954:
 10227  002200  BE0D               	btfsc	(i2___xxtofl@arg+2)^0,7,c
 10228  002202  EF05  F011         	goto	i2u275_41
 10229  002206  EF07  F011         	goto	i2u275_40
 10230  00220A                     i2u275_41:
 10231  00220A  EF0F  F011         	goto	i2l1041
 10232  00220E                     i2u275_40:
 10233  00220E  0E02               	movlw	2
 10234  002210  600A               	cpfslt	i2___xxtofl@exp^0,c
 10235  002212  EF0D  F011         	goto	i2u276_41
 10236  002216  EF0F  F011         	goto	i2u276_40
 10237  00221A                     i2u276_41:
 10238  00221A  EFFA  F010         	goto	i2l2952
 10239  00221E                     i2u276_40:
 10240  00221E                     i2l1041:
 10241  00221E  B00A               	btfsc	i2___xxtofl@exp^0,0,c
 10242  002220  EF14  F011         	goto	i2u277_41
 10243  002224  EF16  F011         	goto	i2u277_40
 10244  002228                     i2u277_41:
 10245  002228  EF17  F011         	goto	i2l2960
 10246  00222C                     i2u277_40:
 10247  00222C  9E0D               	bcf	(i2___xxtofl@arg+2)^0,7,c
 10248  00222E                     i2l2960:
 10249  00222E  90D8               	bcf	status,0,c
 10250  002230  320A               	rrcf	i2___xxtofl@exp^0,f,c
 10251  002232  C00A  F005         	movff	i2___xxtofl@exp,??i2___xxtofl
 10252  002236  6A06               	clrf	(??i2___xxtofl+1)^0,c
 10253  002238  6A07               	clrf	(??i2___xxtofl+2)^0,c
 10254  00223A  6A08               	clrf	(??i2___xxtofl+3)^0,c
 10255  00223C  C005  F008         	movff	??i2___xxtofl,??i2___xxtofl+3
 10256  002240  6A07               	clrf	(??i2___xxtofl+2)^0,c
 10257  002242  6A06               	clrf	(??i2___xxtofl+1)^0,c
 10258  002244  6A05               	clrf	??i2___xxtofl^0,c
 10259  002246  5005               	movf	??i2___xxtofl^0,w,c
 10260  002248  120B               	iorwf	i2___xxtofl@arg^0,f,c
 10261  00224A  5006               	movf	(??i2___xxtofl+1)^0,w,c
 10262  00224C  120C               	iorwf	(i2___xxtofl@arg+1)^0,f,c
 10263  00224E  5007               	movf	(??i2___xxtofl+2)^0,w,c
 10264  002250  120D               	iorwf	(i2___xxtofl@arg+2)^0,f,c
 10265  002252  5008               	movf	(??i2___xxtofl+3)^0,w,c
 10266  002254  120E               	iorwf	(i2___xxtofl@arg+3)^0,f,c
 10267  002256  5009               	movf	i2___xxtofl@sign^0,w,c
 10268  002258  B4D8               	btfsc	status,2,c
 10269  00225A  EF31  F011         	goto	i2u278_41
 10270  00225E  EF33  F011         	goto	i2u278_40
 10271  002262                     i2u278_41:
 10272  002262  EF3B  F011         	goto	i2l2970
 10273  002266                     i2u278_40:
 10274  002266  BE04               	btfsc	(i2___xxtofl@val+3)^0,7,c
 10275  002268  EF3A  F011         	goto	i2u279_40
 10276  00226C  EF38  F011         	goto	i2u279_41
 10277  002270                     i2u279_41:
 10278  002270  EF3B  F011         	goto	i2l2970
 10279  002274                     i2u279_40:
 10280  002274  8E0E               	bsf	(i2___xxtofl@arg+3)^0,7,c
 10281  002276                     i2l2970:
 10282  002276  C00B  F001         	movff	i2___xxtofl@arg,?i2___xxtofl
 10283  00227A  C00C  F002         	movff	i2___xxtofl@arg+1,?i2___xxtofl+1
 10284  00227E  C00D  F003         	movff	i2___xxtofl@arg+2,?i2___xxtofl+2
 10285  002282  C00E  F004         	movff	i2___xxtofl@arg+3,?i2___xxtofl+3
 10286  002286                     i2l1030:
 10287  002286  0012               	return		;funcret
 10288  002288                     __end_ofi2___xxtofl:
 10289                           	opt callstack 0
 10290                           
 10291 ;; *************** function i2___flmul *****************
 10292 ;; Defined at:
 10293 ;;		line 8 in file "C:\Program Files (x86)\Microchip\xc8\v2.10\pic\sources\c99\common\sprcmul.c"
 10294 ;; Parameters:    Size  Location     Type
 10295 ;;  b               4   14[COMRAM] unsigned char 
 10296 ;;  a               4   18[COMRAM] unsigned char 
 10297 ;; Auto vars:     Size  Location     Type
 10298 ;;  __flmul         4   33[COMRAM] struct .
 10299 ;;  __flmul         4   27[COMRAM] unsigned long 
 10300 ;;  __flmul         2   37[COMRAM] struct .
 10301 ;;  __flmul         1   32[COMRAM] unsigned char 
 10302 ;;  __flmul         1   31[COMRAM] unsigned char 
 10303 ;;  __flmul         1   26[COMRAM] unsigned char 
 10304 ;; Return value:  Size  Location     Type
 10305 ;;                  4   14[COMRAM] unsigned char 
 10306 ;; Registers used:
 10307 ;;		wreg, status,2, status,0, prodl, prodh
 10308 ;; Tracked objects:
 10309 ;;		On entry : 0/0
 10310 ;;		On exit  : 0/0
 10311 ;;		Unchanged: 0/0
 10312 ;; Data sizes:     COMRAM   BANK0   BANK1   BANK2
 10313 ;;      Params:         8       0       0       0
 10314 ;;      Locals:        13       0       0       0
 10315 ;;      Temps:          4       0       0       0
 10316 ;;      Totals:        25       0       0       0
 10317 ;;Total ram usage:       25 bytes
 10318 ;; Hardware stack levels used:    1
 10319 ;; This function calls:
 10320 ;;		Nothing
 10321 ;; This function is called by:
 10322 ;;		_setPID
 10323 ;;		i2_readAD_AN
 10324 ;; This function uses a non-reentrant model
 10325 ;;
 10326                           
 10327                           	psect	text55
 10328  001166                     __ptext55:
 10329                           	opt callstack 0
 10330  001166                     i2___flmul:
 10331                           	opt callstack 24
 10332  001166  5012               	movf	(i2___flmul@b+3)^0,w,c
 10333  001168  0B80               	andlw	128
 10334  00116A  6E1B               	movwf	i2___flmul@sign^0,c
 10335  00116C  5012               	movf	(i2___flmul@b+3)^0,w,c
 10336  00116E  2412               	addwf	(i2___flmul@b+3)^0,w,c
 10337  001170  6E21               	movwf	i2___flmul@bexp^0,c
 10338  001172  AE11               	btfss	(i2___flmul@b+2)^0,7,c
 10339  001174  EFBE  F008         	goto	i2u251_41
 10340  001178  EFC0  F008         	goto	i2u251_40
 10341  00117C                     i2u251_41:
 10342  00117C  EFC1  F008         	goto	i2l2804
 10343  001180                     i2u251_40:
 10344  001180  8021               	bsf	i2___flmul@bexp^0,0,c
 10345  001182                     i2l2804:
 10346  001182  5021               	movf	i2___flmul@bexp^0,w,c
 10347  001184  B4D8               	btfsc	status,2,c
 10348  001186  EFC7  F008         	goto	i2u252_41
 10349  00118A  EFC9  F008         	goto	i2u252_40
 10350  00118E                     i2u252_41:
 10351  00118E  EFDC  F008         	goto	i2l2812
 10352  001192                     i2u252_40:
 10353  001192  2821               	incf	i2___flmul@bexp^0,w,c
 10354  001194  A4D8               	btfss	status,2,c
 10355  001196  EFCF  F008         	goto	i2u253_41
 10356  00119A  EFD1  F008         	goto	i2u253_40
 10357  00119E                     i2u253_41:
 10358  00119E  EFD9  F008         	goto	i2l2810
 10359  0011A2                     i2u253_40:
 10360  0011A2  0E00               	movlw	0
 10361  0011A4  6E0F               	movwf	i2___flmul@b^0,c
 10362  0011A6  0E00               	movlw	0
 10363  0011A8  6E10               	movwf	(i2___flmul@b+1)^0,c
 10364  0011AA  0E00               	movlw	0
 10365  0011AC  6E11               	movwf	(i2___flmul@b+2)^0,c
 10366  0011AE  0E00               	movlw	0
 10367  0011B0  6E12               	movwf	(i2___flmul@b+3)^0,c
 10368  0011B2                     i2l2810:
 10369  0011B2  8E11               	bsf	(i2___flmul@b+2)^0,7,c
 10370  0011B4  EFE4  F008         	goto	i2l2814
 10371  0011B8                     i2l2812:
 10372  0011B8  0E00               	movlw	0
 10373  0011BA  6E0F               	movwf	i2___flmul@b^0,c
 10374  0011BC  0E00               	movlw	0
 10375  0011BE  6E10               	movwf	(i2___flmul@b+1)^0,c
 10376  0011C0  0E00               	movlw	0
 10377  0011C2  6E11               	movwf	(i2___flmul@b+2)^0,c
 10378  0011C4  0E00               	movlw	0
 10379  0011C6  6E12               	movwf	(i2___flmul@b+3)^0,c
 10380  0011C8                     i2l2814:
 10381  0011C8  5016               	movf	(i2___flmul@a+3)^0,w,c
 10382  0011CA  0B80               	andlw	128
 10383  0011CC  1A1B               	xorwf	i2___flmul@sign^0,f,c
 10384  0011CE  5016               	movf	(i2___flmul@a+3)^0,w,c
 10385  0011D0  2416               	addwf	(i2___flmul@a+3)^0,w,c
 10386  0011D2  6E20               	movwf	i2___flmul@aexp^0,c
 10387  0011D4  AE15               	btfss	(i2___flmul@a+2)^0,7,c
 10388  0011D6  EFEF  F008         	goto	i2u254_41
 10389  0011DA  EFF1  F008         	goto	i2u254_40
 10390  0011DE                     i2u254_41:
 10391  0011DE  EFF2  F008         	goto	i2l2822
 10392  0011E2                     i2u254_40:
 10393  0011E2  8020               	bsf	i2___flmul@aexp^0,0,c
 10394  0011E4                     i2l2822:
 10395  0011E4  5020               	movf	i2___flmul@aexp^0,w,c
 10396  0011E6  B4D8               	btfsc	status,2,c
 10397  0011E8  EFF8  F008         	goto	i2u255_41
 10398  0011EC  EFFA  F008         	goto	i2u255_40
 10399  0011F0                     i2u255_41:
 10400  0011F0  EF0D  F009         	goto	i2l2830
 10401  0011F4                     i2u255_40:
 10402  0011F4  2820               	incf	i2___flmul@aexp^0,w,c
 10403  0011F6  A4D8               	btfss	status,2,c
 10404  0011F8  EF00  F009         	goto	i2u256_41
 10405  0011FC  EF02  F009         	goto	i2u256_40
 10406  001200                     i2u256_41:
 10407  001200  EF0A  F009         	goto	i2l2828
 10408  001204                     i2u256_40:
 10409  001204  0E00               	movlw	0
 10410  001206  6E13               	movwf	i2___flmul@a^0,c
 10411  001208  0E00               	movlw	0
 10412  00120A  6E14               	movwf	(i2___flmul@a+1)^0,c
 10413  00120C  0E00               	movlw	0
 10414  00120E  6E15               	movwf	(i2___flmul@a+2)^0,c
 10415  001210  0E00               	movlw	0
 10416  001212  6E16               	movwf	(i2___flmul@a+3)^0,c
 10417  001214                     i2l2828:
 10418  001214  8E15               	bsf	(i2___flmul@a+2)^0,7,c
 10419  001216  EF15  F009         	goto	i2l986
 10420  00121A                     i2l2830:
 10421  00121A  0E00               	movlw	0
 10422  00121C  6E13               	movwf	i2___flmul@a^0,c
 10423  00121E  0E00               	movlw	0
 10424  001220  6E14               	movwf	(i2___flmul@a+1)^0,c
 10425  001222  0E00               	movlw	0
 10426  001224  6E15               	movwf	(i2___flmul@a+2)^0,c
 10427  001226  0E00               	movlw	0
 10428  001228  6E16               	movwf	(i2___flmul@a+3)^0,c
 10429  00122A                     i2l986:
 10430  00122A  5020               	movf	i2___flmul@aexp^0,w,c
 10431  00122C  B4D8               	btfsc	status,2,c
 10432  00122E  EF1B  F009         	goto	i2u257_41
 10433  001232  EF1D  F009         	goto	i2u257_40
 10434  001236                     i2u257_41:
 10435  001236  EF25  F009         	goto	i2l2834
 10436  00123A                     i2u257_40:
 10437  00123A  5021               	movf	i2___flmul@bexp^0,w,c
 10438  00123C  A4D8               	btfss	status,2,c
 10439  00123E  EF23  F009         	goto	i2u258_41
 10440  001242  EF25  F009         	goto	i2u258_40
 10441  001246                     i2u258_41:
 10442  001246  EF2F  F009         	goto	i2l2838
 10443  00124A                     i2u258_40:
 10444  00124A                     i2l2834:
 10445  00124A  0E00               	movlw	0
 10446  00124C  6E0F               	movwf	?i2___flmul^0,c
 10447  00124E  0E00               	movlw	0
 10448  001250  6E10               	movwf	(?i2___flmul+1)^0,c
 10449  001252  0E00               	movlw	0
 10450  001254  6E11               	movwf	(?i2___flmul+2)^0,c
 10451  001256  0E00               	movlw	0
 10452  001258  6E12               	movwf	(?i2___flmul+3)^0,c
 10453  00125A  EFC7  F00A         	goto	i2l990
 10454  00125E                     i2l2838:
 10455  00125E  5015               	movf	(i2___flmul@a+2)^0,w,c
 10456  001260  020F               	mulwf	i2___flmul@b^0,c
 10457  001262  CFF3 F026          	movff	prodl,i2___flmul@temp
 10458  001266  CFF4 F027          	movff	prodh,i2___flmul@temp+1
 10459  00126A  5026               	movf	i2___flmul@temp^0,w,c
 10460  00126C  6E1C               	movwf	i2___flmul@grs^0,c
 10461  00126E  6A1D               	clrf	(i2___flmul@grs+1)^0,c
 10462  001270  6A1E               	clrf	(i2___flmul@grs+2)^0,c
 10463  001272  6A1F               	clrf	(i2___flmul@grs+3)^0,c
 10464  001274  5027               	movf	(i2___flmul@temp+1)^0,w,c
 10465  001276  6E22               	movwf	i2___flmul@prod^0,c
 10466  001278  6A23               	clrf	(i2___flmul@prod+1)^0,c
 10467  00127A  6A24               	clrf	(i2___flmul@prod+2)^0,c
 10468  00127C  6A25               	clrf	(i2___flmul@prod+3)^0,c
 10469  00127E  5014               	movf	(i2___flmul@a+1)^0,w,c
 10470  001280  0210               	mulwf	(i2___flmul@b+1)^0,c
 10471  001282  CFF3 F026          	movff	prodl,i2___flmul@temp
 10472  001286  CFF4 F027          	movff	prodh,i2___flmul@temp+1
 10473  00128A  5026               	movf	i2___flmul@temp^0,w,c
 10474  00128C  261C               	addwf	i2___flmul@grs^0,f,c
 10475  00128E  0E00               	movlw	0
 10476  001290  221D               	addwfc	(i2___flmul@grs+1)^0,f,c
 10477  001292  221E               	addwfc	(i2___flmul@grs+2)^0,f,c
 10478  001294  221F               	addwfc	(i2___flmul@grs+3)^0,f,c
 10479  001296  5027               	movf	(i2___flmul@temp+1)^0,w,c
 10480  001298  2622               	addwf	i2___flmul@prod^0,f,c
 10481  00129A  0E00               	movlw	0
 10482  00129C  2223               	addwfc	(i2___flmul@prod+1)^0,f,c
 10483  00129E  2224               	addwfc	(i2___flmul@prod+2)^0,f,c
 10484  0012A0  2225               	addwfc	(i2___flmul@prod+3)^0,f,c
 10485  0012A2  5013               	movf	i2___flmul@a^0,w,c
 10486  0012A4  0211               	mulwf	(i2___flmul@b+2)^0,c
 10487  0012A6  CFF3 F026          	movff	prodl,i2___flmul@temp
 10488  0012AA  CFF4 F027          	movff	prodh,i2___flmul@temp+1
 10489  0012AE  5026               	movf	i2___flmul@temp^0,w,c
 10490  0012B0  261C               	addwf	i2___flmul@grs^0,f,c
 10491  0012B2  0E00               	movlw	0
 10492  0012B4  221D               	addwfc	(i2___flmul@grs+1)^0,f,c
 10493  0012B6  221E               	addwfc	(i2___flmul@grs+2)^0,f,c
 10494  0012B8  221F               	addwfc	(i2___flmul@grs+3)^0,f,c
 10495  0012BA  5027               	movf	(i2___flmul@temp+1)^0,w,c
 10496  0012BC  2622               	addwf	i2___flmul@prod^0,f,c
 10497  0012BE  0E00               	movlw	0
 10498  0012C0  2223               	addwfc	(i2___flmul@prod+1)^0,f,c
 10499  0012C2  2224               	addwfc	(i2___flmul@prod+2)^0,f,c
 10500  0012C4  2225               	addwfc	(i2___flmul@prod+3)^0,f,c
 10501  0012C6  C01E  F01F         	movff	i2___flmul@grs+2,i2___flmul@grs+3
 10502  0012CA  C01D  F01E         	movff	i2___flmul@grs+1,i2___flmul@grs+2
 10503  0012CE  C01C  F01D         	movff	i2___flmul@grs,i2___flmul@grs+1
 10504  0012D2  6A1C               	clrf	i2___flmul@grs^0,c
 10505  0012D4  5013               	movf	i2___flmul@a^0,w,c
 10506  0012D6  0210               	mulwf	(i2___flmul@b+1)^0,c
 10507  0012D8  CFF3 F026          	movff	prodl,i2___flmul@temp
 10508  0012DC  CFF4 F027          	movff	prodh,i2___flmul@temp+1
 10509  0012E0  5026               	movf	i2___flmul@temp^0,w,c
 10510  0012E2  261C               	addwf	i2___flmul@grs^0,f,c
 10511  0012E4  5027               	movf	(i2___flmul@temp+1)^0,w,c
 10512  0012E6  221D               	addwfc	(i2___flmul@grs+1)^0,f,c
 10513  0012E8  0E00               	movlw	0
 10514  0012EA  221E               	addwfc	(i2___flmul@grs+2)^0,f,c
 10515  0012EC  0E00               	movlw	0
 10516  0012EE  221F               	addwfc	(i2___flmul@grs+3)^0,f,c
 10517  0012F0  5014               	movf	(i2___flmul@a+1)^0,w,c
 10518  0012F2  020F               	mulwf	i2___flmul@b^0,c
 10519  0012F4  CFF3 F026          	movff	prodl,i2___flmul@temp
 10520  0012F8  CFF4 F027          	movff	prodh,i2___flmul@temp+1
 10521  0012FC  5026               	movf	i2___flmul@temp^0,w,c
 10522  0012FE  261C               	addwf	i2___flmul@grs^0,f,c
 10523  001300  5027               	movf	(i2___flmul@temp+1)^0,w,c
 10524  001302  221D               	addwfc	(i2___flmul@grs+1)^0,f,c
 10525  001304  0E00               	movlw	0
 10526  001306  221E               	addwfc	(i2___flmul@grs+2)^0,f,c
 10527  001308  0E00               	movlw	0
 10528  00130A  221F               	addwfc	(i2___flmul@grs+3)^0,f,c
 10529  00130C  C01E  F01F         	movff	i2___flmul@grs+2,i2___flmul@grs+3
 10530  001310  C01D  F01E         	movff	i2___flmul@grs+1,i2___flmul@grs+2
 10531  001314  C01C  F01D         	movff	i2___flmul@grs,i2___flmul@grs+1
 10532  001318  6A1C               	clrf	i2___flmul@grs^0,c
 10533  00131A  5013               	movf	i2___flmul@a^0,w,c
 10534  00131C  020F               	mulwf	i2___flmul@b^0,c
 10535  00131E  CFF3 F026          	movff	prodl,i2___flmul@temp
 10536  001322  CFF4 F027          	movff	prodh,i2___flmul@temp+1
 10537  001326  5026               	movf	i2___flmul@temp^0,w,c
 10538  001328  261C               	addwf	i2___flmul@grs^0,f,c
 10539  00132A  5027               	movf	(i2___flmul@temp+1)^0,w,c
 10540  00132C  221D               	addwfc	(i2___flmul@grs+1)^0,f,c
 10541  00132E  0E00               	movlw	0
 10542  001330  221E               	addwfc	(i2___flmul@grs+2)^0,f,c
 10543  001332  0E00               	movlw	0
 10544  001334  221F               	addwfc	(i2___flmul@grs+3)^0,f,c
 10545  001336  5015               	movf	(i2___flmul@a+2)^0,w,c
 10546  001338  0210               	mulwf	(i2___flmul@b+1)^0,c
 10547  00133A  CFF3 F026          	movff	prodl,i2___flmul@temp
 10548  00133E  CFF4 F027          	movff	prodh,i2___flmul@temp+1
 10549  001342  5026               	movf	i2___flmul@temp^0,w,c
 10550  001344  2622               	addwf	i2___flmul@prod^0,f,c
 10551  001346  5027               	movf	(i2___flmul@temp+1)^0,w,c
 10552  001348  2223               	addwfc	(i2___flmul@prod+1)^0,f,c
 10553  00134A  0E00               	movlw	0
 10554  00134C  2224               	addwfc	(i2___flmul@prod+2)^0,f,c
 10555  00134E  0E00               	movlw	0
 10556  001350  2225               	addwfc	(i2___flmul@prod+3)^0,f,c
 10557  001352  5014               	movf	(i2___flmul@a+1)^0,w,c
 10558  001354  0211               	mulwf	(i2___flmul@b+2)^0,c
 10559  001356  CFF3 F026          	movff	prodl,i2___flmul@temp
 10560  00135A  CFF4 F027          	movff	prodh,i2___flmul@temp+1
 10561  00135E  5026               	movf	i2___flmul@temp^0,w,c
 10562  001360  2622               	addwf	i2___flmul@prod^0,f,c
 10563  001362  5027               	movf	(i2___flmul@temp+1)^0,w,c
 10564  001364  2223               	addwfc	(i2___flmul@prod+1)^0,f,c
 10565  001366  0E00               	movlw	0
 10566  001368  2224               	addwfc	(i2___flmul@prod+2)^0,f,c
 10567  00136A  0E00               	movlw	0
 10568  00136C  2225               	addwfc	(i2___flmul@prod+3)^0,f,c
 10569  00136E  5015               	movf	(i2___flmul@a+2)^0,w,c
 10570  001370  0211               	mulwf	(i2___flmul@b+2)^0,c
 10571  001372  CFF3 F026          	movff	prodl,i2___flmul@temp
 10572  001376  CFF4 F027          	movff	prodh,i2___flmul@temp+1
 10573  00137A  5026               	movf	i2___flmul@temp^0,w,c
 10574  00137C  6E17               	movwf	??i2___flmul^0,c
 10575  00137E  5027               	movf	(i2___flmul@temp+1)^0,w,c
 10576  001380  6E18               	movwf	(??i2___flmul+1)^0,c
 10577  001382  6A19               	clrf	(??i2___flmul+2)^0,c
 10578  001384  6A1A               	clrf	(??i2___flmul+3)^0,c
 10579  001386  C019  F01A         	movff	??i2___flmul+2,??i2___flmul+3
 10580  00138A  C018  F019         	movff	??i2___flmul+1,??i2___flmul+2
 10581  00138E  C017  F018         	movff	??i2___flmul,??i2___flmul+1
 10582  001392  6A17               	clrf	??i2___flmul^0,c
 10583  001394  5017               	movf	??i2___flmul^0,w,c
 10584  001396  2622               	addwf	i2___flmul@prod^0,f,c
 10585  001398  5018               	movf	(??i2___flmul+1)^0,w,c
 10586  00139A  2223               	addwfc	(i2___flmul@prod+1)^0,f,c
 10587  00139C  5019               	movf	(??i2___flmul+2)^0,w,c
 10588  00139E  2224               	addwfc	(i2___flmul@prod+2)^0,f,c
 10589  0013A0  501A               	movf	(??i2___flmul+3)^0,w,c
 10590  0013A2  2225               	addwfc	(i2___flmul@prod+3)^0,f,c
 10591  0013A4  C01C  F017         	movff	i2___flmul@grs,??i2___flmul
 10592  0013A8  C01D  F018         	movff	i2___flmul@grs+1,??i2___flmul+1
 10593  0013AC  C01E  F019         	movff	i2___flmul@grs+2,??i2___flmul+2
 10594  0013B0  C01F  F01A         	movff	i2___flmul@grs+3,??i2___flmul+3
 10595  0013B4  0E19               	movlw	25
 10596  0013B6  EFE2  F009         	goto	i2u259_40
 10597  0013BA                     i2u259_45:
 10598  0013BA  90D8               	bcf	status,0,c
 10599  0013BC  321A               	rrcf	(??i2___flmul+3)^0,f,c
 10600  0013BE  3219               	rrcf	(??i2___flmul+2)^0,f,c
 10601  0013C0  3218               	rrcf	(??i2___flmul+1)^0,f,c
 10602  0013C2  3217               	rrcf	??i2___flmul^0,f,c
 10603  0013C4                     i2u259_40:
 10604  0013C4  2EE8               	decfsz	wreg,f,c
 10605  0013C6  EFDD  F009         	goto	i2u259_45
 10606  0013CA  5017               	movf	??i2___flmul^0,w,c
 10607  0013CC  2622               	addwf	i2___flmul@prod^0,f,c
 10608  0013CE  5018               	movf	(??i2___flmul+1)^0,w,c
 10609  0013D0  2223               	addwfc	(i2___flmul@prod+1)^0,f,c
 10610  0013D2  5019               	movf	(??i2___flmul+2)^0,w,c
 10611  0013D4  2224               	addwfc	(i2___flmul@prod+2)^0,f,c
 10612  0013D6  501A               	movf	(??i2___flmul+3)^0,w,c
 10613  0013D8  2225               	addwfc	(i2___flmul@prod+3)^0,f,c
 10614  0013DA  C01E  F01F         	movff	i2___flmul@grs+2,i2___flmul@grs+3
 10615  0013DE  C01D  F01E         	movff	i2___flmul@grs+1,i2___flmul@grs+2
 10616  0013E2  C01C  F01D         	movff	i2___flmul@grs,i2___flmul@grs+1
 10617  0013E6  6A1C               	clrf	i2___flmul@grs^0,c
 10618  0013E8  5020               	movf	i2___flmul@aexp^0,w,c
 10619  0013EA  C021  F017         	movff	i2___flmul@bexp,??i2___flmul
 10620  0013EE  6A18               	clrf	(??i2___flmul+1)^0,c
 10621  0013F0  2617               	addwf	??i2___flmul^0,f,c
 10622  0013F2  0E00               	movlw	0
 10623  0013F4  2218               	addwfc	(??i2___flmul+1)^0,f,c
 10624  0013F6  0E82               	movlw	130
 10625  0013F8  2417               	addwf	??i2___flmul^0,w,c
 10626  0013FA  6E26               	movwf	i2___flmul@temp^0,c
 10627  0013FC  0EFF               	movlw	255
 10628  0013FE  2018               	addwfc	(??i2___flmul+1)^0,w,c
 10629  001400  6E27               	movwf	(i2___flmul@temp+1)^0,c
 10630  001402  EF18  F00A         	goto	i2l2886
 10631  001406                     i2l2880:
 10632  001406  90D8               	bcf	status,0,c
 10633  001408  3622               	rlcf	i2___flmul@prod^0,f,c
 10634  00140A  3623               	rlcf	(i2___flmul@prod+1)^0,f,c
 10635  00140C  3624               	rlcf	(i2___flmul@prod+2)^0,f,c
 10636  00140E  3625               	rlcf	(i2___flmul@prod+3)^0,f,c
 10637  001410  AE1F               	btfss	(i2___flmul@grs+3)^0,7,c
 10638  001412  EF0D  F00A         	goto	i2u260_41
 10639  001416  EF0F  F00A         	goto	i2u260_40
 10640  00141A                     i2u260_41:
 10641  00141A  EF10  F00A         	goto	i2l993
 10642  00141E                     i2u260_40:
 10643  00141E  8022               	bsf	i2___flmul@prod^0,0,c
 10644  001420                     i2l993:
 10645  001420  90D8               	bcf	status,0,c
 10646  001422  361C               	rlcf	i2___flmul@grs^0,f,c
 10647  001424  361D               	rlcf	(i2___flmul@grs+1)^0,f,c
 10648  001426  361E               	rlcf	(i2___flmul@grs+2)^0,f,c
 10649  001428  361F               	rlcf	(i2___flmul@grs+3)^0,f,c
 10650  00142A  0626               	decf	i2___flmul@temp^0,f,c
 10651  00142C  A0D8               	btfss	status,0,c
 10652  00142E  0627               	decf	(i2___flmul@temp+1)^0,f,c
 10653  001430                     i2l2886:
 10654  001430  AE24               	btfss	(i2___flmul@prod+2)^0,7,c
 10655  001432  EF1D  F00A         	goto	i2u261_41
 10656  001436  EF1F  F00A         	goto	i2u261_40
 10657  00143A                     i2u261_41:
 10658  00143A  EF03  F00A         	goto	i2l2880
 10659  00143E                     i2u261_40:
 10660  00143E  0E00               	movlw	0
 10661  001440  6E20               	movwf	i2___flmul@aexp^0,c
 10662  001442  AE1F               	btfss	(i2___flmul@grs+3)^0,7,c
 10663  001444  EF26  F00A         	goto	i2u262_41
 10664  001448  EF28  F00A         	goto	i2u262_40
 10665  00144C                     i2u262_41:
 10666  00144C  EF4C  F00A         	goto	i2l995
 10667  001450                     i2u262_40:
 10668  001450  0EFF               	movlw	255
 10669  001452  141C               	andwf	i2___flmul@grs^0,w,c
 10670  001454  6E17               	movwf	??i2___flmul^0,c
 10671  001456  0EFF               	movlw	255
 10672  001458  141D               	andwf	(i2___flmul@grs+1)^0,w,c
 10673  00145A  6E18               	movwf	(??i2___flmul+1)^0,c
 10674  00145C  0EFF               	movlw	255
 10675  00145E  141E               	andwf	(i2___flmul@grs+2)^0,w,c
 10676  001460  6E19               	movwf	(??i2___flmul+2)^0,c
 10677  001462  0E7F               	movlw	127
 10678  001464  141F               	andwf	(i2___flmul@grs+3)^0,w,c
 10679  001466  6E1A               	movwf	(??i2___flmul+3)^0,c
 10680  001468  5017               	movf	??i2___flmul^0,w,c
 10681  00146A  1018               	iorwf	(??i2___flmul+1)^0,w,c
 10682  00146C  1019               	iorwf	(??i2___flmul+2)^0,w,c
 10683  00146E  101A               	iorwf	(??i2___flmul+3)^0,w,c
 10684  001470  B4D8               	btfsc	status,2,c
 10685  001472  EF3D  F00A         	goto	i2u263_41
 10686  001476  EF3F  F00A         	goto	i2u263_40
 10687  00147A                     i2u263_41:
 10688  00147A  EF43  F00A         	goto	i2l996
 10689  00147E                     i2u263_40:
 10690  00147E                     i2l2894:
 10691  00147E  0E01               	movlw	1
 10692  001480  6E20               	movwf	i2___flmul@aexp^0,c
 10693  001482  EF4C  F00A         	goto	i2l995
 10694  001486                     i2l996:
 10695  001486  A022               	btfss	i2___flmul@prod^0,0,c
 10696  001488  EF48  F00A         	goto	i2u264_41
 10697  00148C  EF4A  F00A         	goto	i2u264_40
 10698  001490                     i2u264_41:
 10699  001490  EF4C  F00A         	goto	i2l995
 10700  001494                     i2u264_40:
 10701  001494  EF3F  F00A         	goto	i2l2894
 10702  001498                     i2l995:
 10703  001498  5020               	movf	i2___flmul@aexp^0,w,c
 10704  00149A  B4D8               	btfsc	status,2,c
 10705  00149C  EF52  F00A         	goto	i2u265_41
 10706  0014A0  EF54  F00A         	goto	i2u265_40
 10707  0014A4                     i2u265_41:
 10708  0014A4  EF78  F00A         	goto	i2l2906
 10709  0014A8                     i2u265_40:
 10710  0014A8  0E01               	movlw	1
 10711  0014AA  2622               	addwf	i2___flmul@prod^0,f,c
 10712  0014AC  0E00               	movlw	0
 10713  0014AE  2223               	addwfc	(i2___flmul@prod+1)^0,f,c
 10714  0014B0  2224               	addwfc	(i2___flmul@prod+2)^0,f,c
 10715  0014B2  2225               	addwfc	(i2___flmul@prod+3)^0,f,c
 10716  0014B4  A025               	btfss	(i2___flmul@prod+3)^0,0,c
 10717  0014B6  EF5F  F00A         	goto	i2u266_41
 10718  0014BA  EF61  F00A         	goto	i2u266_40
 10719  0014BE                     i2u266_41:
 10720  0014BE  EF78  F00A         	goto	i2l2906
 10721  0014C2                     i2u266_40:
 10722  0014C2  C022  F017         	movff	i2___flmul@prod,??i2___flmul
 10723  0014C6  C023  F018         	movff	i2___flmul@prod+1,??i2___flmul+1
 10724  0014CA  C024  F019         	movff	i2___flmul@prod+2,??i2___flmul+2
 10725  0014CE  C025  F01A         	movff	i2___flmul@prod+3,??i2___flmul+3
 10726  0014D2  341A               	rlcf	(??i2___flmul+3)^0,w,c
 10727  0014D4  321A               	rrcf	(??i2___flmul+3)^0,f,c
 10728  0014D6  3219               	rrcf	(??i2___flmul+2)^0,f,c
 10729  0014D8  3218               	rrcf	(??i2___flmul+1)^0,f,c
 10730  0014DA  3217               	rrcf	??i2___flmul^0,f,c
 10731  0014DC  C017  F022         	movff	??i2___flmul,i2___flmul@prod
 10732  0014E0  C018  F023         	movff	??i2___flmul+1,i2___flmul@prod+1
 10733  0014E4  C019  F024         	movff	??i2___flmul+2,i2___flmul@prod+2
 10734  0014E8  C01A  F025         	movff	??i2___flmul+3,i2___flmul@prod+3
 10735  0014EC  4A26               	infsnz	i2___flmul@temp^0,f,c
 10736  0014EE  2A27               	incf	(i2___flmul@temp+1)^0,f,c
 10737  0014F0                     i2l2906:
 10738  0014F0  BE27               	btfsc	(i2___flmul@temp+1)^0,7,c
 10739  0014F2  EF83  F00A         	goto	i2u267_41
 10740  0014F6  5027               	movf	(i2___flmul@temp+1)^0,w,c
 10741  0014F8  E108               	bnz	i2u267_40
 10742  0014FA  2826               	incf	i2___flmul@temp^0,w,c
 10743  0014FC  A0D8               	btfss	status,0,c
 10744  0014FE  EF83  F00A         	goto	i2u267_41
 10745  001502  EF85  F00A         	goto	i2u267_40
 10746  001506                     i2u267_41:
 10747  001506  EF8F  F00A         	goto	i2l2910
 10748  00150A                     i2u267_40:
 10749  00150A  0E00               	movlw	0
 10750  00150C  6E22               	movwf	i2___flmul@prod^0,c
 10751  00150E  0E00               	movlw	0
 10752  001510  6E23               	movwf	(i2___flmul@prod+1)^0,c
 10753  001512  0E80               	movlw	128
 10754  001514  6E24               	movwf	(i2___flmul@prod+2)^0,c
 10755  001516  0E7F               	movlw	127
 10756  001518  6E25               	movwf	(i2___flmul@prod+3)^0,c
 10757  00151A  EFBD  F00A         	goto	i2l2922
 10758  00151E                     i2l2910:
 10759  00151E  BE27               	btfsc	(i2___flmul@temp+1)^0,7,c
 10760  001520  EF9C  F00A         	goto	i2u268_40
 10761  001524  5027               	movf	(i2___flmul@temp+1)^0,w,c
 10762  001526  E106               	bnz	i2u268_41
 10763  001528  0426               	decf	i2___flmul@temp^0,w,c
 10764  00152A  B0D8               	btfsc	status,0,c
 10765  00152C  EF9A  F00A         	goto	i2u268_41
 10766  001530  EF9C  F00A         	goto	i2u268_40
 10767  001534                     i2u268_41:
 10768  001534  EFA8  F00A         	goto	i2l1003
 10769  001538                     i2u268_40:
 10770  001538  0E00               	movlw	0
 10771  00153A  6E22               	movwf	i2___flmul@prod^0,c
 10772  00153C  0E00               	movlw	0
 10773  00153E  6E23               	movwf	(i2___flmul@prod+1)^0,c
 10774  001540  0E00               	movlw	0
 10775  001542  6E24               	movwf	(i2___flmul@prod+2)^0,c
 10776  001544  0E00               	movlw	0
 10777  001546  6E25               	movwf	(i2___flmul@prod+3)^0,c
 10778  001548  0E00               	movlw	0
 10779  00154A  6E1B               	movwf	i2___flmul@sign^0,c
 10780  00154C  EFBD  F00A         	goto	i2l2922
 10781  001550                     i2l1003:
 10782  001550  C026  F021         	movff	i2___flmul@temp,i2___flmul@bexp
 10783  001554  0EFF               	movlw	255
 10784  001556  1622               	andwf	i2___flmul@prod^0,f,c
 10785  001558  0EFF               	movlw	255
 10786  00155A  1623               	andwf	(i2___flmul@prod+1)^0,f,c
 10787  00155C  0E7F               	movlw	127
 10788  00155E  1624               	andwf	(i2___flmul@prod+2)^0,f,c
 10789  001560  0E00               	movlw	0
 10790  001562  1625               	andwf	(i2___flmul@prod+3)^0,f,c
 10791  001564  A021               	btfss	i2___flmul@bexp^0,0,c
 10792  001566  EFB7  F00A         	goto	i2u269_41
 10793  00156A  EFB9  F00A         	goto	i2u269_40
 10794  00156E                     i2u269_41:
 10795  00156E  EFBA  F00A         	goto	i2l2920
 10796  001572                     i2u269_40:
 10797  001572  8E24               	bsf	(i2___flmul@prod+2)^0,7,c
 10798  001574                     i2l2920:
 10799  001574  90D8               	bcf	status,0,c
 10800  001576  3021               	rrcf	i2___flmul@bexp^0,w,c
 10801  001578  6E25               	movwf	(i2___flmul@prod+3)^0,c
 10802  00157A                     i2l2922:
 10803  00157A  501B               	movf	i2___flmul@sign^0,w,c
 10804  00157C  1225               	iorwf	(i2___flmul@prod+3)^0,f,c
 10805  00157E  C022  F00F         	movff	i2___flmul@prod,?i2___flmul
 10806  001582  C023  F010         	movff	i2___flmul@prod+1,?i2___flmul+1
 10807  001586  C024  F011         	movff	i2___flmul@prod+2,?i2___flmul+2
 10808  00158A  C025  F012         	movff	i2___flmul@prod+3,?i2___flmul+3
 10809  00158E                     i2l990:
 10810  00158E  0012               	return		;funcret
 10811  001590                     __end_ofi2___flmul:
 10812                           	opt callstack 0
 10813                           
 10814 ;; *************** function i2_bitExtract *****************
 10815 ;; Defined at:
 10816 ;;		line 72 in file "./geral.h"
 10817 ;; Parameters:    Size  Location     Type
 10818 ;;  numero          2    0[COMRAM] int 
 10819 ;;  k               2    2[COMRAM] int 
 10820 ;;  p               2    4[COMRAM] int 
 10821 ;; Auto vars:     Size  Location     Type
 10822 ;;		None
 10823 ;; Return value:  Size  Location     Type
 10824 ;;                  2    0[COMRAM] int 
 10825 ;; Registers used:
 10826 ;;		wreg, status,2, status,0
 10827 ;; Tracked objects:
 10828 ;;		On entry : 0/0
 10829 ;;		On exit  : 0/0
 10830 ;;		Unchanged: 0/0
 10831 ;; Data sizes:     COMRAM   BANK0   BANK1   BANK2
 10832 ;;      Params:         6       0       0       0
 10833 ;;      Locals:         0       0       0       0
 10834 ;;      Temps:          8       0       0       0
 10835 ;;      Totals:        14       0       0       0
 10836 ;;Total ram usage:       14 bytes
 10837 ;; Hardware stack levels used:    1
 10838 ;; This function calls:
 10839 ;;		Nothing
 10840 ;; This function is called by:
 10841 ;;		i2_getAD_AN
 10842 ;; This function uses a non-reentrant model
 10843 ;;
 10844                           
 10845                           	psect	text56
 10846  0038B2                     __ptext56:
 10847                           	opt callstack 0
 10848  0038B2                     i2_bitExtract:
 10849                           	opt callstack 22
 10850  0038B2                     
 10851                           ;./geral.h: 73:         _delay((unsigned long)((20)*(20000000/4000.0)));
 10852  0038B2  C005  F007         	movff	i2bitExtract@p,??i2_bitExtract
 10853  0038B6  C001  F008         	movff	i2bitExtract@numero,??i2_bitExtract+1
 10854  0038BA  C002  F009         	movff	i2bitExtract@numero+1,??i2_bitExtract+2
 10855  0038BE  2A07               	incf	??i2_bitExtract^0,f,c
 10856  0038C0  EF65  F01C         	goto	i2u349_44
 10857  0038C4                     i2u349_45:
 10858  0038C4  3409               	rlcf	(??i2_bitExtract+2)^0,w,c
 10859  0038C6  3209               	rrcf	(??i2_bitExtract+2)^0,f,c
 10860  0038C8  3208               	rrcf	(??i2_bitExtract+1)^0,f,c
 10861  0038CA                     i2u349_44:
 10862  0038CA  2E07               	decfsz	??i2_bitExtract^0,f,c
 10863  0038CC  EF62  F01C         	goto	i2u349_45
 10864  0038D0  0EFF               	movlw	255
 10865  0038D2  6E0A               	movwf	(??i2_bitExtract+3)^0,c
 10866  0038D4  0EFF               	movlw	255
 10867  0038D6  6E0B               	movwf	(??i2_bitExtract+4)^0,c
 10868  0038D8  C003  F00C         	movff	i2bitExtract@k,??i2_bitExtract+5
 10869  0038DC  0E01               	movlw	1
 10870  0038DE  6E0D               	movwf	(??i2_bitExtract+6)^0,c
 10871  0038E0  0E00               	movlw	0
 10872  0038E2  6E0E               	movwf	(??i2_bitExtract+7)^0,c
 10873  0038E4  2A0C               	incf	(??i2_bitExtract+5)^0,f,c
 10874  0038E6  EF78  F01C         	goto	i2u350_44
 10875  0038EA                     i2u350_45:
 10876  0038EA  90D8               	bcf	status,0,c
 10877  0038EC  360D               	rlcf	(??i2_bitExtract+6)^0,f,c
 10878  0038EE  360E               	rlcf	(??i2_bitExtract+7)^0,f,c
 10879  0038F0                     i2u350_44:
 10880  0038F0  2E0C               	decfsz	(??i2_bitExtract+5)^0,f,c
 10881  0038F2  EF75  F01C         	goto	i2u350_45
 10882  0038F6  500A               	movf	(??i2_bitExtract+3)^0,w,c
 10883  0038F8  260D               	addwf	(??i2_bitExtract+6)^0,f,c
 10884  0038FA  500B               	movf	(??i2_bitExtract+4)^0,w,c
 10885  0038FC  220E               	addwfc	(??i2_bitExtract+7)^0,f,c
 10886  0038FE  5008               	movf	(??i2_bitExtract+1)^0,w,c
 10887  003900  140D               	andwf	(??i2_bitExtract+6)^0,w,c
 10888  003902  6E01               	movwf	?i2_bitExtract^0,c
 10889  003904  5009               	movf	(??i2_bitExtract+2)^0,w,c
 10890  003906  140E               	andwf	(??i2_bitExtract+7)^0,w,c
 10891  003908  6E02               	movwf	(?i2_bitExtract+1)^0,c
 10892  00390A  0012               	return		;funcret
 10893  00390C                     __end_ofi2_bitExtract:
 10894                           	opt callstack 0
 10895                           
 10896 ;; *************** function i2___fltol *****************
 10897 ;; Defined at:
 10898 ;;		line 43 in file "C:\Program Files (x86)\Microchip\xc8\v2.10\pic\sources\c99\common\fltol.c"
 10899 ;; Parameters:    Size  Location     Type
 10900 ;;  f1              4   63[COMRAM] int 
 10901 ;; Auto vars:     Size  Location     Type
 10902 ;;  __fltol         1   72[COMRAM] unsigned char 
 10903 ;;  __fltol         1   71[COMRAM] unsigned char 
 10904 ;; Return value:  Size  Location     Type
 10905 ;;                  4   63[COMRAM] long 
 10906 ;; Registers used:
 10907 ;;		wreg, status,2, status,0
 10908 ;; Tracked objects:
 10909 ;;		On entry : 0/0
 10910 ;;		On exit  : 0/0
 10911 ;;		Unchanged: 0/0
 10912 ;; Data sizes:     COMRAM   BANK0   BANK1   BANK2
 10913 ;;      Params:         4       0       0       0
 10914 ;;      Locals:         2       0       0       0
 10915 ;;      Temps:          4       0       0       0
 10916 ;;      Totals:        10       0       0       0
 10917 ;;Total ram usage:       10 bytes
 10918 ;; Hardware stack levels used:    1
 10919 ;; This function calls:
 10920 ;;		Nothing
 10921 ;; This function is called by:
 10922 ;;		_moverMotor
 10923 ;;		i2_getAD_AN
 10924 ;; This function uses a non-reentrant model
 10925 ;;
 10926                           
 10927                           	psect	text57
 10928  002C76                     __ptext57:
 10929                           	opt callstack 0
 10930  002C76                     i2___fltol:
 10931                           	opt callstack 23
 10932  002C76  3442               	rlcf	(i2___fltol@f1+2)^0,w,c
 10933  002C78  3443               	rlcf	(i2___fltol@f1+3)^0,w,c
 10934  002C7A  6E49               	movwf	i2___fltol@exp1^0,c
 10935  002C7C  5049               	movf	i2___fltol@exp1^0,w,c
 10936  002C7E  A4D8               	btfss	status,2,c
 10937  002C80  EF44  F016         	goto	i2u351_41
 10938  002C84  EF46  F016         	goto	i2u351_40
 10939  002C88                     i2u351_41:
 10940  002C88  EF50  F016         	goto	i2l3402
 10941  002C8C                     i2u351_40:
 10942  002C8C                     i2l3398:
 10943  002C8C  0E00               	movlw	0
 10944  002C8E  6E40               	movwf	?i2___fltol^0,c
 10945  002C90  0E00               	movlw	0
 10946  002C92  6E41               	movwf	(?i2___fltol+1)^0,c
 10947  002C94  0E00               	movlw	0
 10948  002C96  6E42               	movwf	(?i2___fltol+2)^0,c
 10949  002C98  0E00               	movlw	0
 10950  002C9A  6E43               	movwf	(?i2___fltol+3)^0,c
 10951  002C9C  EFBD  F016         	goto	i2l669
 10952  002CA0                     i2l3402:
 10953  002CA0  C040  F044         	movff	i2___fltol@f1,??i2___fltol
 10954  002CA4  C041  F045         	movff	i2___fltol@f1+1,??i2___fltol+1
 10955  002CA8  C042  F046         	movff	i2___fltol@f1+2,??i2___fltol+2
 10956  002CAC  C043  F047         	movff	i2___fltol@f1+3,??i2___fltol+3
 10957  002CB0  0E20               	movlw	32
 10958  002CB2  EF60  F016         	goto	i2u352_40
 10959  002CB6                     i2u352_45:
 10960  002CB6  90D8               	bcf	status,0,c
 10961  002CB8  3247               	rrcf	(??i2___fltol+3)^0,f,c
 10962  002CBA  3246               	rrcf	(??i2___fltol+2)^0,f,c
 10963  002CBC  3245               	rrcf	(??i2___fltol+1)^0,f,c
 10964  002CBE  3244               	rrcf	??i2___fltol^0,f,c
 10965  002CC0                     i2u352_40:
 10966  002CC0  2EE8               	decfsz	wreg,f,c
 10967  002CC2  EF5B  F016         	goto	i2u352_45
 10968  002CC6  5044               	movf	??i2___fltol^0,w,c
 10969  002CC8  6E48               	movwf	i2___fltol@sign1^0,c
 10970  002CCA  8E42               	bsf	(i2___fltol@f1+2)^0,7,c
 10971  002CCC  0EFF               	movlw	255
 10972  002CCE  1640               	andwf	i2___fltol@f1^0,f,c
 10973  002CD0  0EFF               	movlw	255
 10974  002CD2  1641               	andwf	(i2___fltol@f1+1)^0,f,c
 10975  002CD4  0EFF               	movlw	255
 10976  002CD6  1642               	andwf	(i2___fltol@f1+2)^0,f,c
 10977  002CD8  0E00               	movlw	0
 10978  002CDA  1643               	andwf	(i2___fltol@f1+3)^0,f,c
 10979  002CDC  0E96               	movlw	150
 10980  002CDE  5E49               	subwf	i2___fltol@exp1^0,f,c
 10981  002CE0  BE49               	btfsc	i2___fltol@exp1^0,7,c
 10982  002CE2  EF77  F016         	goto	i2u353_40
 10983  002CE6  EF75  F016         	goto	i2u353_41
 10984  002CEA                     i2u353_41:
 10985  002CEA  EF8D  F016         	goto	i2l3422
 10986  002CEE                     i2u353_40:
 10987  002CEE  5049               	movf	i2___fltol@exp1^0,w,c
 10988  002CF0  0A80               	xorlw	128
 10989  002CF2  0F97               	addlw	151
 10990  002CF4  B0D8               	btfsc	status,0,c
 10991  002CF6  EF7F  F016         	goto	i2u354_41
 10992  002CFA  EF81  F016         	goto	i2u354_40
 10993  002CFE                     i2u354_41:
 10994  002CFE  EF83  F016         	goto	i2l3418
 10995  002D02                     i2u354_40:
 10996  002D02  EF46  F016         	goto	i2l3398
 10997  002D06                     i2l3418:
 10998  002D06  90D8               	bcf	status,0,c
 10999  002D08  3243               	rrcf	(i2___fltol@f1+3)^0,f,c
 11000  002D0A  3242               	rrcf	(i2___fltol@f1+2)^0,f,c
 11001  002D0C  3241               	rrcf	(i2___fltol@f1+1)^0,f,c
 11002  002D0E  3240               	rrcf	i2___fltol@f1^0,f,c
 11003  002D10  3E49               	incfsz	i2___fltol@exp1^0,f,c
 11004  002D12  EF83  F016         	goto	i2l3418
 11005  002D16  EFA5  F016         	goto	i2l3432
 11006  002D1A                     i2l3422:
 11007  002D1A  0E1F               	movlw	31
 11008  002D1C  6449               	cpfsgt	i2___fltol@exp1^0,c
 11009  002D1E  EF93  F016         	goto	i2u355_41
 11010  002D22  EF95  F016         	goto	i2u355_40
 11011  002D26                     i2u355_41:
 11012  002D26  EF9D  F016         	goto	i2l3430
 11013  002D2A                     i2u355_40:
 11014  002D2A  EF46  F016         	goto	i2l3398
 11015  002D2E                     i2l3428:
 11016  002D2E  90D8               	bcf	status,0,c
 11017  002D30  3640               	rlcf	i2___fltol@f1^0,f,c
 11018  002D32  3641               	rlcf	(i2___fltol@f1+1)^0,f,c
 11019  002D34  3642               	rlcf	(i2___fltol@f1+2)^0,f,c
 11020  002D36  3643               	rlcf	(i2___fltol@f1+3)^0,f,c
 11021  002D38  0649               	decf	i2___fltol@exp1^0,f,c
 11022  002D3A                     i2l3430:
 11023  002D3A  5049               	movf	i2___fltol@exp1^0,w,c
 11024  002D3C  A4D8               	btfss	status,2,c
 11025  002D3E  EFA3  F016         	goto	i2u356_41
 11026  002D42  EFA5  F016         	goto	i2u356_40
 11027  002D46                     i2u356_41:
 11028  002D46  EF97  F016         	goto	i2l3428
 11029  002D4A                     i2u356_40:
 11030  002D4A                     i2l3432:
 11031  002D4A  5048               	movf	i2___fltol@sign1^0,w,c
 11032  002D4C  B4D8               	btfsc	status,2,c
 11033  002D4E  EFAB  F016         	goto	i2u357_41
 11034  002D52  EFAD  F016         	goto	i2u357_40
 11035  002D56                     i2u357_41:
 11036  002D56  EFB5  F016         	goto	i2l3436
 11037  002D5A                     i2u357_40:
 11038  002D5A  1E43               	comf	(i2___fltol@f1+3)^0,f,c
 11039  002D5C  1E42               	comf	(i2___fltol@f1+2)^0,f,c
 11040  002D5E  1E41               	comf	(i2___fltol@f1+1)^0,f,c
 11041  002D60  6C40               	negf	i2___fltol@f1^0,c
 11042  002D62  0E00               	movlw	0
 11043  002D64  2241               	addwfc	(i2___fltol@f1+1)^0,f,c
 11044  002D66  2242               	addwfc	(i2___fltol@f1+2)^0,f,c
 11045  002D68  2243               	addwfc	(i2___fltol@f1+3)^0,f,c
 11046  002D6A                     i2l3436:
 11047  002D6A  C040  F040         	movff	i2___fltol@f1,?i2___fltol
 11048  002D6E  C041  F041         	movff	i2___fltol@f1+1,?i2___fltol+1
 11049  002D72  C042  F042         	movff	i2___fltol@f1+2,?i2___fltol+2
 11050  002D76  C043  F043         	movff	i2___fltol@f1+3,?i2___fltol+3
 11051  002D7A                     i2l669:
 11052  002D7A  0012               	return		;funcret
 11053  002D7C                     __end_ofi2___fltol:
 11054                           	opt callstack 0
 11055                           
 11056 ;; *************** function ___flge *****************
 11057 ;; Defined at:
 11058 ;;		line 4 in file "C:\Program Files (x86)\Microchip\xc8\v2.10\pic\sources\c99\common\flge.c"
 11059 ;; Parameters:    Size  Location     Type
 11060 ;;  ff1             4    0[COMRAM] long 
 11061 ;;  ff2             4    4[COMRAM] long 
 11062 ;; Auto vars:     Size  Location     Type
 11063 ;;		None
 11064 ;; Return value:  Size  Location     Type
 11065 ;;		None               void
 11066 ;; Registers used:
 11067 ;;		wreg, status,2, status,0
 11068 ;; Tracked objects:
 11069 ;;		On entry : 0/0
 11070 ;;		On exit  : 0/0
 11071 ;;		Unchanged: 0/0
 11072 ;; Data sizes:     COMRAM   BANK0   BANK1   BANK2
 11073 ;;      Params:         8       0       0       0
 11074 ;;      Locals:         0       0       0       0
 11075 ;;      Temps:          4       0       0       0
 11076 ;;      Totals:        12       0       0       0
 11077 ;;Total ram usage:       12 bytes
 11078 ;; Hardware stack levels used:    1
 11079 ;; This function calls:
 11080 ;;		Nothing
 11081 ;; This function is called by:
 11082 ;;		_configDA
 11083 ;; This function uses a non-reentrant model
 11084 ;;
 11085                           
 11086                           	psect	text58
 11087  002E80                     __ptext58:
 11088                           	opt callstack 0
 11089  002E80                     ___flge:
 11090                           	opt callstack 23
 11091  002E80  0E00               	movlw	0
 11092  002E82  1401               	andwf	___flge@ff1^0,w,c
 11093  002E84  6E09               	movwf	??___flge^0,c
 11094  002E86  0E00               	movlw	0
 11095  002E88  1402               	andwf	(___flge@ff1+1)^0,w,c
 11096  002E8A  6E0A               	movwf	(??___flge+1)^0,c
 11097  002E8C  0E80               	movlw	128
 11098  002E8E  1403               	andwf	(___flge@ff1+2)^0,w,c
 11099  002E90  6E0B               	movwf	(??___flge+2)^0,c
 11100  002E92  0E7F               	movlw	127
 11101  002E94  1404               	andwf	(___flge@ff1+3)^0,w,c
 11102  002E96  6E0C               	movwf	(??___flge+3)^0,c
 11103  002E98  5009               	movf	??___flge^0,w,c
 11104  002E9A  100A               	iorwf	(??___flge+1)^0,w,c
 11105  002E9C  100B               	iorwf	(??___flge+2)^0,w,c
 11106  002E9E  100C               	iorwf	(??___flge+3)^0,w,c
 11107  002EA0  A4D8               	btfss	status,2,c
 11108  002EA2  EF55  F017         	goto	i2u406_41
 11109  002EA6  EF57  F017         	goto	i2u406_40
 11110  002EAA                     i2u406_41:
 11111  002EAA  EF5F  F017         	goto	i2l3762
 11112  002EAE                     i2u406_40:
 11113  002EAE  0E00               	movlw	0
 11114  002EB0  6E01               	movwf	___flge@ff1^0,c
 11115  002EB2  0E00               	movlw	0
 11116  002EB4  6E02               	movwf	(___flge@ff1+1)^0,c
 11117  002EB6  0E00               	movlw	0
 11118  002EB8  6E03               	movwf	(___flge@ff1+2)^0,c
 11119  002EBA  0E00               	movlw	0
 11120  002EBC  6E04               	movwf	(___flge@ff1+3)^0,c
 11121  002EBE                     i2l3762:
 11122  002EBE  0E00               	movlw	0
 11123  002EC0  1405               	andwf	___flge@ff2^0,w,c
 11124  002EC2  6E09               	movwf	??___flge^0,c
 11125  002EC4  0E00               	movlw	0
 11126  002EC6  1406               	andwf	(___flge@ff2+1)^0,w,c
 11127  002EC8  6E0A               	movwf	(??___flge+1)^0,c
 11128  002ECA  0E80               	movlw	128
 11129  002ECC  1407               	andwf	(___flge@ff2+2)^0,w,c
 11130  002ECE  6E0B               	movwf	(??___flge+2)^0,c
 11131  002ED0  0E7F               	movlw	127
 11132  002ED2  1408               	andwf	(___flge@ff2+3)^0,w,c
 11133  002ED4  6E0C               	movwf	(??___flge+3)^0,c
 11134  002ED6  5009               	movf	??___flge^0,w,c
 11135  002ED8  100A               	iorwf	(??___flge+1)^0,w,c
 11136  002EDA  100B               	iorwf	(??___flge+2)^0,w,c
 11137  002EDC  100C               	iorwf	(??___flge+3)^0,w,c
 11138  002EDE  A4D8               	btfss	status,2,c
 11139  002EE0  EF74  F017         	goto	i2u407_41
 11140  002EE4  EF76  F017         	goto	i2u407_40
 11141  002EE8                     i2u407_41:
 11142  002EE8  EF7E  F017         	goto	i2l3766
 11143  002EEC                     i2u407_40:
 11144  002EEC  0E00               	movlw	0
 11145  002EEE  6E05               	movwf	___flge@ff2^0,c
 11146  002EF0  0E00               	movlw	0
 11147  002EF2  6E06               	movwf	(___flge@ff2+1)^0,c
 11148  002EF4  0E00               	movlw	0
 11149  002EF6  6E07               	movwf	(___flge@ff2+2)^0,c
 11150  002EF8  0E00               	movlw	0
 11151  002EFA  6E08               	movwf	(___flge@ff2+3)^0,c
 11152  002EFC                     i2l3766:
 11153  002EFC  AE04               	btfss	(___flge@ff1+3)^0,7,c
 11154  002EFE  EF83  F017         	goto	i2u408_41
 11155  002F02  EF85  F017         	goto	i2u408_40
 11156  002F06                     i2u408_41:
 11157  002F06  EF8E  F017         	goto	i2l3770
 11158  002F0A                     i2u408_40:
 11159  002F0A  6C01               	negf	___flge@ff1^0,c
 11160  002F0C  1E02               	comf	(___flge@ff1+1)^0,f,c
 11161  002F0E  B0D8               	btfsc	status,0,c
 11162  002F10  2A02               	incf	(___flge@ff1+1)^0,f,c
 11163  002F12  1E03               	comf	(___flge@ff1+2)^0,f,c
 11164  002F14  B0D8               	btfsc	status,0,c
 11165  002F16  2A03               	incf	(___flge@ff1+2)^0,f,c
 11166  002F18  0E80               	movlw	128
 11167  002F1A  5604               	subfwb	(___flge@ff1+3)^0,f,c
 11168  002F1C                     i2l3770:
 11169  002F1C  AE08               	btfss	(___flge@ff2+3)^0,7,c
 11170  002F1E  EF93  F017         	goto	i2u409_41
 11171  002F22  EF95  F017         	goto	i2u409_40
 11172  002F26                     i2u409_41:
 11173  002F26  EF9E  F017         	goto	i2l637
 11174  002F2A                     i2u409_40:
 11175  002F2A  6C05               	negf	___flge@ff2^0,c
 11176  002F2C  1E06               	comf	(___flge@ff2+1)^0,f,c
 11177  002F2E  B0D8               	btfsc	status,0,c
 11178  002F30  2A06               	incf	(___flge@ff2+1)^0,f,c
 11179  002F32  1E07               	comf	(___flge@ff2+2)^0,f,c
 11180  002F34  B0D8               	btfsc	status,0,c
 11181  002F36  2A07               	incf	(___flge@ff2+2)^0,f,c
 11182  002F38  0E80               	movlw	128
 11183  002F3A  5608               	subfwb	(___flge@ff2+3)^0,f,c
 11184  002F3C                     i2l637:
 11185  002F3C  0E00               	movlw	0
 11186  002F3E  1A01               	xorwf	___flge@ff1^0,f,c
 11187  002F40  0E00               	movlw	0
 11188  002F42  1A02               	xorwf	(___flge@ff1+1)^0,f,c
 11189  002F44  0E00               	movlw	0
 11190  002F46  1A03               	xorwf	(___flge@ff1+2)^0,f,c
 11191  002F48  0E80               	movlw	128
 11192  002F4A  1A04               	xorwf	(___flge@ff1+3)^0,f,c
 11193  002F4C  0E00               	movlw	0
 11194  002F4E  1A05               	xorwf	___flge@ff2^0,f,c
 11195  002F50  0E00               	movlw	0
 11196  002F52  1A06               	xorwf	(___flge@ff2+1)^0,f,c
 11197  002F54  0E00               	movlw	0
 11198  002F56  1A07               	xorwf	(___flge@ff2+2)^0,f,c
 11199  002F58  0E80               	movlw	128
 11200  002F5A  1A08               	xorwf	(___flge@ff2+3)^0,f,c
 11201  002F5C  5005               	movf	___flge@ff2^0,w,c
 11202  002F5E  5C01               	subwf	___flge@ff1^0,w,c
 11203  002F60  5006               	movf	(___flge@ff2+1)^0,w,c
 11204  002F62  5802               	subwfb	(___flge@ff1+1)^0,w,c
 11205  002F64  5007               	movf	(___flge@ff2+2)^0,w,c
 11206  002F66  5803               	subwfb	(___flge@ff1+2)^0,w,c
 11207  002F68  5008               	movf	(___flge@ff2+3)^0,w,c
 11208  002F6A  5804               	subwfb	(___flge@ff1+3)^0,w,c
 11209  002F6C  B0D8               	btfsc	status,0,c
 11210  002F6E  EFBB  F017         	goto	i2u410_41
 11211  002F72  EFBD  F017         	goto	i2u410_40
 11212  002F76                     i2u410_41:
 11213  002F76  EFC0  F017         	goto	i2l3776
 11214  002F7A                     i2u410_40:
 11215  002F7A  90D8               	bcf	status,0,c
 11216  002F7C  EFC1  F017         	goto	i2l642
 11217  002F80                     i2l3776:
 11218  002F80  80D8               	bsf	status,0,c
 11219  002F82                     i2l642:
 11220  002F82  0012               	return		;funcret
 11221  002F84                     __end_of___flge:
 11222                           	opt callstack 0
 11223                           
 11224 ;; *************** function _setEstrategia *****************
 11225 ;; Defined at:
 11226 ;;		line 39 in file "./bluetooth.h"
 11227 ;; Parameters:    Size  Location     Type
 11228 ;;  c               2    0[COMRAM] PTR unsigned char 
 11229 ;;		 -> STR_50(5), STR_49(11), STR_47(3), STR_46(14), 
 11230 ;;		 -> STR_45(13), 
 11231 ;; Auto vars:     Size  Location     Type
 11232 ;;		None
 11233 ;; Return value:  Size  Location     Type
 11234 ;;                  1    wreg      void 
 11235 ;; Registers used:
 11236 ;;		wreg, status,2, status,0
 11237 ;; Tracked objects:
 11238 ;;		On entry : 0/0
 11239 ;;		On exit  : 0/0
 11240 ;;		Unchanged: 0/0
 11241 ;; Data sizes:     COMRAM   BANK0   BANK1   BANK2
 11242 ;;      Params:         2       0       0       0
 11243 ;;      Locals:         0       0       0       0
 11244 ;;      Temps:          0       0       0       0
 11245 ;;      Totals:         2       0       0       0
 11246 ;;Total ram usage:        2 bytes
 11247 ;; Hardware stack levels used:    1
 11248 ;; This function calls:
 11249 ;;		Nothing
 11250 ;; This function is called by:
 11251 ;;		_ISR
 11252 ;; This function uses a non-reentrant model
 11253 ;;
 11254                           
 11255                           	psect	text59
 11256  003C8A                     __ptext59:
 11257                           	opt callstack 0
 11258  003C8A                     _setEstrategia:
 11259                           	opt callstack 25
 11260  003C8A                     
 11261                           ;./bluetooth.h: 40:     comando = c;
 11262  003C8A  C001  F0DF         	movff	setEstrategia@c,_comando
 11263  003C8E  C002  F0E0         	movff	setEstrategia@c+1,_comando+1
 11264  003C92  0012               	return		;funcret
 11265  003C94                     __end_of_setEstrategia:
 11266                           	opt callstack 0
 11267                           
 11268 ;; *************** function _ligaTimer0 *****************
 11269 ;; Defined at:
 11270 ;;		line 21 in file "./Timer0.h"
 11271 ;; Parameters:    Size  Location     Type
 11272 ;;		None
 11273 ;; Auto vars:     Size  Location     Type
 11274 ;;		None
 11275 ;; Return value:  Size  Location     Type
 11276 ;;                  1    wreg      void 
 11277 ;; Registers used:
 11278 ;;		None
 11279 ;; Tracked objects:
 11280 ;;		On entry : 0/0
 11281 ;;		On exit  : 0/0
 11282 ;;		Unchanged: 0/0
 11283 ;; Data sizes:     COMRAM   BANK0   BANK1   BANK2
 11284 ;;      Params:         0       0       0       0
 11285 ;;      Locals:         0       0       0       0
 11286 ;;      Temps:          0       0       0       0
 11287 ;;      Totals:         0       0       0       0
 11288 ;;Total ram usage:        0 bytes
 11289 ;; Hardware stack levels used:    1
 11290 ;; This function calls:
 11291 ;;		Nothing
 11292 ;; This function is called by:
 11293 ;;		_ISR
 11294 ;; This function uses a non-reentrant model
 11295 ;;
 11296                           
 11297                           	psect	text60
 11298  003C9E                     __ptext60:
 11299                           	opt callstack 0
 11300  003C9E                     _ligaTimer0:
 11301                           	opt callstack 25
 11302  003C9E                     
 11303                           ;./Timer0.h: 22:     TMR0ON = 1;
 11304  003C9E  8ED5               	bsf	4053,7,c	;volatile
 11305  003CA0  0012               	return		;funcret
 11306  003CA2                     __end_of_ligaTimer0:
 11307                           	opt callstack 0
 11308                           
 11309                           	psect	rparam
 11310  0000                     
 11311                           	psect	temp
 11312  00005F                     btemp:
 11313                           	opt callstack 0
 11314  00005F                     	ds	1
 11315  0000                     int$flags	set	btemp
 11316  0000                     wtemp8	set	btemp+1
 11317  0000                     ttemp5	set	btemp+1
 11318  0000                     ttemp6	set	btemp+4
 11319  0000                     ttemp7	set	btemp+8
 11320                           tosu	equ	0xFFF
 11321                           tosh	equ	0xFFE
 11322                           tosl	equ	0xFFD
 11323                           stkptr	equ	0xFFC
 11324                           pclatu	equ	0xFFB
 11325                           pclath	equ	0xFFA
 11326                           pcl	equ	0xFF9
 11327                           tblptru	equ	0xFF8
 11328                           tblptrh	equ	0xFF7
 11329                           tblptrl	equ	0xFF6
 11330                           tablat	equ	0xFF5
 11331                           prodh	equ	0xFF4
 11332                           prodl	equ	0xFF3
 11333                           indf0	equ	0xFEF
 11334                           postinc0	equ	0xFEE
 11335                           postdec0	equ	0xFED
 11336                           preinc0	equ	0xFEC
 11337                           plusw0	equ	0xFEB
 11338                           fsr0h	equ	0xFEA
 11339                           fsr0l	equ	0xFE9
 11340                           wreg	equ	0xFE8
 11341                           indf1	equ	0xFE7
 11342                           postinc1	equ	0xFE6
 11343                           postdec1	equ	0xFE5
 11344                           preinc1	equ	0xFE4
 11345                           plusw1	equ	0xFE3
 11346                           fsr1h	equ	0xFE2
 11347                           fsr1l	equ	0xFE1
 11348                           bsr	equ	0xFE0
 11349                           indf2	equ	0xFDF
 11350                           postinc2	equ	0xFDE
 11351                           postdec2	equ	0xFDD
 11352                           preinc2	equ	0xFDC
 11353                           plusw2	equ	0xFDB
 11354                           fsr2h	equ	0xFDA
 11355                           fsr2l	equ	0xFD9
 11356                           status	equ	0xFD8


Data Sizes:
    Strings     157
    Constant    0
    Data        9
    BSS         134
    Persistent  0
    Stack       0

Auto Spaces:
    Space          Size  Autos    Used
    COMRAM           94     94      94
    BANK0           160     85     130
    BANK1           256     28     126
    BANK2           256      0       0

Pointer List with Targets:

    strncmp@_r	PTR const unsigned char  size(2) Largest target is 14
		 -> STR_62(CODE[11]), STR_60(CODE[3]), STR_58(CODE[14]), STR_56(CODE[13]), 
		 -> STR_54(CODE[5]), STR_21(CODE[5]), STR_19(CODE[5]), STR_17(CODE[5]), 
		 -> STR_15(CODE[5]), STR_13(CODE[5]), STR_11(CODE[5]), STR_9(CODE[5]), 
		 -> STR_7(CODE[5]), STR_4(CODE[5]), 

    strncmp@r	PTR const unsigned char  size(2) Largest target is 14
		 -> STR_62(CODE[11]), STR_60(CODE[3]), STR_58(CODE[14]), STR_56(CODE[13]), 
		 -> STR_54(CODE[5]), STR_21(CODE[5]), STR_19(CODE[5]), STR_17(CODE[5]), 
		 -> STR_15(CODE[5]), STR_13(CODE[5]), STR_11(CODE[5]), STR_9(CODE[5]), 
		 -> STR_7(CODE[5]), STR_4(CODE[5]), 

    strncmp@_l	PTR const unsigned char  size(2) Largest target is 14
		 -> STR_52(CODE[2]), STR_50(CODE[5]), STR_49(CODE[11]), STR_47(CODE[3]), 
		 -> STR_46(CODE[14]), STR_45(CODE[13]), STR_1(CODE[1]), 

    strncmp@l	PTR const unsigned char  size(2) Largest target is 14
		 -> STR_52(CODE[2]), STR_50(CODE[5]), STR_49(CODE[11]), STR_47(CODE[3]), 
		 -> STR_46(CODE[14]), STR_45(CODE[13]), STR_1(CODE[1]), 

    strlen@s	PTR const unsigned char  size(2) Largest target is 14
		 -> STR_52(CODE[2]), STR_50(CODE[5]), STR_49(CODE[11]), STR_47(CODE[3]), 
		 -> STR_46(CODE[14]), STR_45(CODE[13]), STR_1(CODE[1]), 

    strlen@a	PTR const unsigned char  size(2) Largest target is 14
		 -> STR_52(CODE[2]), STR_50(CODE[5]), STR_49(CODE[11]), STR_47(CODE[3]), 
		 -> STR_46(CODE[14]), STR_45(CODE[13]), STR_1(CODE[1]), 

    myStrncmp@str2	PTR const unsigned char  size(2) Largest target is 14
		 -> STR_62(CODE[11]), STR_60(CODE[3]), STR_58(CODE[14]), STR_56(CODE[13]), 
		 -> STR_54(CODE[5]), STR_21(CODE[5]), STR_19(CODE[5]), STR_17(CODE[5]), 
		 -> STR_15(CODE[5]), STR_13(CODE[5]), STR_11(CODE[5]), STR_9(CODE[5]), 
		 -> STR_7(CODE[5]), STR_4(CODE[5]), 

    myStrncmp@str1	PTR const unsigned char  size(2) Largest target is 14
		 -> STR_52(CODE[2]), STR_50(CODE[5]), STR_49(CODE[11]), STR_47(CODE[3]), 
		 -> STR_46(CODE[14]), STR_45(CODE[13]), STR_1(CODE[1]), 

    UARTSendString@str	PTR unsigned char  size(2) Largest target is 15
		 -> STR_52(CODE[2]), STR_51(CODE[5]), STR_50(CODE[5]), STR_49(CODE[11]), 
		 -> STR_48(CODE[4]), STR_47(CODE[3]), STR_46(CODE[14]), STR_45(CODE[13]), 
		 -> STR_44(CODE[10]), STR_43(CODE[2]), STR_42(CODE[11]), STR_41(CODE[2]), 
		 -> STR_40(CODE[2]), testeADbit@string(BANK1[2]), STR_39(CODE[2]), STR_38(CODE[11]), 
		 -> STR_37(CODE[2]), STR_36(CODE[6]), STR_35(CODE[2]), STR_34(CODE[6]), 
		 -> STR_33(CODE[2]), STR_32(CODE[6]), STR_31(CODE[2]), STR_30(CODE[6]), 
		 -> STR_29(CODE[2]), STR_28(CODE[6]), STR_27(CODE[2]), STR_26(CODE[6]), 
		 -> STR_25(CODE[2]), STR_24(CODE[6]), STR_23(CODE[2]), STR_22(CODE[6]), 
		 -> STR_5(CODE[15]), STR_2(CODE[14]), STR_1(CODE[1]), valorConvUARTbit@string(BANK0[5]), 
		 -> valorConvUART@string(BANK1[5]), 

    setEstrategia@c	PTR unsigned char  size(2) Largest target is 14
		 -> STR_50(CODE[5]), STR_49(CODE[11]), STR_47(CODE[3]), STR_46(CODE[14]), 
		 -> STR_45(CODE[13]), 

    comando	PTR unsigned char  size(2) Largest target is 14
		 -> STR_52(CODE[2]), STR_50(CODE[5]), STR_49(CODE[11]), STR_47(CODE[3]), 
		 -> STR_46(CODE[14]), STR_45(CODE[13]), STR_1(CODE[1]), 

    sp__valorConvUARTbit	PTR const unsigned char  size(2) Largest target is 5
		 -> valorConvUARTbit@string(BANK0[5]), 

    sp__valorConvUART	PTR const unsigned char  size(2) Largest target is 5
		 -> valorConvUART@string(BANK1[5]), 


Critical Paths under _main in COMRAM

    None.

Critical Paths under _ISR in COMRAM

    i2_UARTSendString->i2_UARTSendChar
    _setPID->_posicao
    _posicao->___fldiv
    ___fldiv->___flsub
    _moverMotor->_lados
    _lados->i2___fltol
    i2_setDutyPWM6->i2___wmul
    i2_setDutyPWM4->i2___wmul
    i2_setDutyPWM2->i2___wmul
    i2_setDutyPWM0->i2___wmul
    ___flsub->___fladd
    ___fladd->i2___flmul
    _configDA->i2_getAD_AN
    i2_getAD_AN->i2___fltol
    i2_readAD_AN->i2___flmul
    i2___flmul->i2___xxtofl
    i2___fltol->___flsub

Critical Paths under _main in BANK0

    _setDutyPWM6->___wmul
    _setDutyPWM4->___wmul
    _setDutyPWM2->___wmul
    _setDutyPWM0->___wmul
    _testeLampadas->_myStrncmp
    _myStrncmp->_strncmp
    _strncmp->_strlen
    _valorConvUARTbit->_getAD_ANbit
    _getAD_ANbit->_bitExtract
    _testeAD->_valorConvUART
    _valorConvUART->_getAD_AN
    ___awmod->___awdiv
    _getAD_AN->_readAD_AN
    _readAD_AN->___flmul
    ___flmul->___xxtofl
    _UARTSendString->_valorConvUART

Critical Paths under _ISR in BANK0

    _ISR->_setPID
    _setPID->_posicao

Critical Paths under _main in BANK1

    _main->_testeADbit
    _testeMotores->_UARTSendString
    _testeADbit->_UARTSendString
    _testeAD->_UARTSendString
    _UARTSendString->_valorConvUART

Critical Paths under _ISR in BANK1

    None.

Critical Paths under _main in BANK2

    None.

Critical Paths under _ISR in BANK2

    None.

Call Graph Tables:

 ---------------------------------------------------------------------------------
 (Depth) Function   	        Calls       Base Space   Used Autos Params    Refs
 ---------------------------------------------------------------------------------
 (0) _main                                                15    15      0   72790
                                             27 BANK1      1     1      0
                       _UARTReadChar
                       _UARTSendChar
                     _UARTSendString
                           _configAD
                         _configBits
                          _configPWM
                        _configUSART
                         _initTimer0
                          _myStrncmp
                            _testeAD
                         _testeADbit
                      _testeLampadas
                       _testeMotores
 ---------------------------------------------------------------------------------
 (1) _testeMotores                                         3     3      0   18714
                                             21 BANK1      3     3      0
                     _UARTSendString
                          _myStrncmp
                        _setDutyPWM0
                        _setDutyPWM2
                        _setDutyPWM4
                        _setDutyPWM6
 ---------------------------------------------------------------------------------
 (2) _setDutyPWM6                                          4     2      2    1698
                                             36 BANK0      4     2      2
                             ___wmul
 ---------------------------------------------------------------------------------
 (2) _setDutyPWM4                                          4     2      2    1608
                                             36 BANK0      4     2      2
                             ___wmul
 ---------------------------------------------------------------------------------
 (2) _setDutyPWM2                                          4     2      2    1788
                                             36 BANK0      4     2      2
                             ___wmul
 ---------------------------------------------------------------------------------
 (2) _setDutyPWM0                                          4     2      2    1698
                                             36 BANK0      4     2      2
                             ___wmul
 ---------------------------------------------------------------------------------
 (3) ___wmul                                               6     2      4     952
                                             30 BANK0      6     2      4
 ---------------------------------------------------------------------------------
 (1) _testeLampadas                                        4     4      0    7493
                                             49 BANK0      4     4      0
                         _bitExtract
                          _myStrncmp
 ---------------------------------------------------------------------------------
 (2) _myStrncmp                                            4     0      4    3428
                                             45 BANK0      4     0      4
                             _strlen
                            _strncmp
 ---------------------------------------------------------------------------------
 (3) _strncmp                                             11     5      6     595
                                             34 BANK0     11     5      6
                             _strlen (ARG)
 ---------------------------------------------------------------------------------
 (3) _strlen                                               4     2      2     220
                                             30 BANK0      4     2      2
 ---------------------------------------------------------------------------------
 (1) _testeADbit                                           6     6      0   15491
                                             21 BANK1      6     6      0
                     _UARTSendString
                        _getAD_ANbit
                   _valorConvUARTbit
 ---------------------------------------------------------------------------------
 (2) _valorConvUARTbit                                    17    15      2    3582
                                             48 BANK0     17    15      2
                            ___awdiv
                            ___awmod
                        _getAD_ANbit (ARG)
 ---------------------------------------------------------------------------------
 (2) _getAD_ANbit                                          4     2      2    4152
                                             44 BANK0      4     2      2
                         _bitExtract
                       _readAD_ANbit
 ---------------------------------------------------------------------------------
 (3) _readAD_ANbit                                         2     0      2       0
                                             30 BANK0      2     0      2
 ---------------------------------------------------------------------------------
 (1) _testeAD                                              2     2      0   19934
                                             21 BANK1      2     2      0
                     _UARTSendString
                           _getAD_AN
                      _valorConvUART
 ---------------------------------------------------------------------------------
 (2) _valorConvUART                                       15    13      2    4147
                                             83 BANK0      2     0      2
                                              0 BANK1     13    13      0
                            ___awdiv
                            ___awmod
                           _getAD_AN (ARG)
 ---------------------------------------------------------------------------------
 (3) ___awmod                                              6     2      4    1693
                                             38 BANK0      6     2      4
                            ___awdiv (ARG)
 ---------------------------------------------------------------------------------
 (3) ___awdiv                                              8     4      4    1345
                                             30 BANK0      8     4      4
 ---------------------------------------------------------------------------------
 (2) _getAD_AN                                             6     4      2    8209
                                             77 BANK0      6     4      2
                            ___fltol
                         _bitExtract
                          _readAD_AN
 ---------------------------------------------------------------------------------
 (3) _readAD_AN                                            8     4      4    2967
                                             69 BANK0      8     4      4
                            ___flmul
                           ___xxtofl
 ---------------------------------------------------------------------------------
 (4) ___xxtofl                                            14    10      4     648
                                             30 BANK0     14    10      4
 ---------------------------------------------------------------------------------
 (4) ___flmul                                             25    17      8    2296
                                             44 BANK0     25    17      8
                           ___xxtofl (ARG)
 ---------------------------------------------------------------------------------
 (2) _bitExtract                                          14     8      6    3873
                                             30 BANK0     14     8      6
 ---------------------------------------------------------------------------------
 (3) ___fltol                                             10     6      4     405
                                             30 BANK0     10     6      4
 ---------------------------------------------------------------------------------
 (2) _UARTSendString                                       8     4      4    7578
                                             13 BANK1      8     4      4
                       _UARTSendChar
                      _UARTWriteTest
                           _getAD_AN (ARG)
                        _getAD_ANbit (ARG)
                      _valorConvUART (ARG)
                   _valorConvUARTbit (ARG)
 ---------------------------------------------------------------------------------
 (3) _UARTSendChar                                         1     1      0      31
                                             30 BANK0      1     1      0
                      _UARTWriteTest
 ---------------------------------------------------------------------------------
 (3) _UARTWriteTest                                        0     0      0       0
 ---------------------------------------------------------------------------------
 (1) _initTimer0                                           2     0      2      98
                                             30 BANK0      2     0      2
 ---------------------------------------------------------------------------------
 (1) _configUSART                                          0     0      0       0
 ---------------------------------------------------------------------------------
 (1) _configPWM                                            0     0      0       0
 ---------------------------------------------------------------------------------
 (1) _configBits                                           0     0      0       0
 ---------------------------------------------------------------------------------
 (1) _configAD                                             0     0      0       0
 ---------------------------------------------------------------------------------
 (1) _UARTReadChar                                         1     1      0      23
                                             30 BANK0      1     1      0
 ---------------------------------------------------------------------------------
 Estimated maximum stack depth 4
 ---------------------------------------------------------------------------------
 (Depth) Function   	        Calls       Base Space   Used Autos Params    Refs
 ---------------------------------------------------------------------------------
 (5) _ISR                                                  8     8      0   35200
                                             22 BANK0      8     8      0
                         _ligaTimer0
                      _setEstrategia
                             _setPID
                   i2_UARTSendString
                      i2_setDutyPWM0
                      i2_setDutyPWM2
                      i2_setDutyPWM4
                      i2_setDutyPWM6
 ---------------------------------------------------------------------------------
 (6) i2_UARTSendString                                     8     4      4     918
                                              1 COMRAM     8     4      4
                     i2_UARTSendChar
                    i2_UARTWriteTest
 ---------------------------------------------------------------------------------
 (7) i2_UARTSendChar                                       1     1      0      31
                                              0 COMRAM     1     1      0
                    i2_UARTWriteTest
 ---------------------------------------------------------------------------------
 (7) i2_UARTWriteTest                                      0     0      0       0
 ---------------------------------------------------------------------------------
 (6) _setPID                                               8     8      0   31936
                                             14 BANK0      8     8      0
                            ___fladd
                            ___fldiv
                            ___flsub
                           _configDA
                         _moverMotor
                            _posicao
                          i2___flmul
                         i2___xxtofl
 ---------------------------------------------------------------------------------
 (7) _posicao                                             20    16      4    5728
                                             88 COMRAM     6     2      4
                                              0 BANK0     14    14      0
                            ___fladd
                            ___fldiv
                             ___fleq
 ---------------------------------------------------------------------------------
 (8) ___fldiv                                             25    17      8    1703
                                             63 COMRAM    25    17      8
                            ___flsub (ARG)
                          i2___flmul (ARG)
                         i2___xxtofl (ARG)
 ---------------------------------------------------------------------------------
 (7) _moverMotor                                           4     0      4   11036
                                             76 COMRAM     4     0      4
                            ___fladd
                             ___fleq
                            ___flsub
                              _lados
                          i2___fltol
                         i2___xxtofl
 ---------------------------------------------------------------------------------
 (8) _lados                                                3     1      2    2336
                                             73 COMRAM     3     1      2
                            ___fladd (ARG)
                            ___flsub (ARG)
                          i2___fltol (ARG)
                         i2___xxtofl (ARG)
                      i2_setDutyPWM0
                      i2_setDutyPWM2
                      i2_setDutyPWM4
                      i2_setDutyPWM6
 ---------------------------------------------------------------------------------
 (6) i2_setDutyPWM6                                        4     2      2     486
                                              6 COMRAM     4     2      2
                           i2___wmul
 ---------------------------------------------------------------------------------
 (6) i2_setDutyPWM4                                        4     2      2     486
                                              6 COMRAM     4     2      2
                           i2___wmul
 ---------------------------------------------------------------------------------
 (6) i2_setDutyPWM2                                        4     2      2     486
                                              6 COMRAM     4     2      2
                           i2___wmul
 ---------------------------------------------------------------------------------
 (6) i2_setDutyPWM0                                        4     2      2     486
                                              6 COMRAM     4     2      2
                           i2___wmul
 ---------------------------------------------------------------------------------
 (7) i2___wmul                                             6     2      4     367
                                              0 COMRAM     6     2      4
 ---------------------------------------------------------------------------------
 (8) ___flsub                                              8     0      8    3953
                                             55 COMRAM     8     0      8
                            ___fladd
                         i2___xxtofl (ARG)
 ---------------------------------------------------------------------------------
 (8) ___fladd                                             16     8      8    3022
                                             39 COMRAM    16     8      8
                          i2___flmul (ARG)
                         i2___xxtofl (ARG)
 ---------------------------------------------------------------------------------
 (8) ___fleq                                              12     4      8     798
                                              0 COMRAM    12     4      8
 ---------------------------------------------------------------------------------
 (7) _configDA                                             8     8      0    4192
                                             79 COMRAM     8     8      0
                             ___flge
                         i2___xxtofl
                         i2_getAD_AN
 ---------------------------------------------------------------------------------
 (8) i2_getAD_AN                                           6     4      2    3201
                                             73 COMRAM     6     4      2
                          i2___fltol
                       i2_bitExtract
                        i2_readAD_AN
 ---------------------------------------------------------------------------------
 (9) i2_readAD_AN                                          8     4      4    2279
                                             39 COMRAM     8     4      4
                          i2___flmul
                         i2___xxtofl
 ---------------------------------------------------------------------------------
 (7) i2___xxtofl                                          14    10      4     478
                                              0 COMRAM    14    10      4
 ---------------------------------------------------------------------------------
 (7) i2___flmul                                           25    17      8    1778
                                             14 COMRAM    25    17      8
                         i2___xxtofl (ARG)
 ---------------------------------------------------------------------------------
 (9) i2_bitExtract                                        14     8      6     456
                                              0 COMRAM    14     8      6
 ---------------------------------------------------------------------------------
 (8) i2___fltol                                           10     6      4     307
                                             63 COMRAM    10     6      4
                            ___fladd (ARG)
                            ___flsub (ARG)
                         i2___xxtofl (ARG)
 ---------------------------------------------------------------------------------
 (8) ___flge                                              12     4      8     334
                                              0 COMRAM    12     4      8
 ---------------------------------------------------------------------------------
 (6) _setEstrategia                                        2     0      2     402
                                              0 COMRAM     2     0      2
 ---------------------------------------------------------------------------------
 (6) _ligaTimer0                                           0     0      0       0
 ---------------------------------------------------------------------------------
 Estimated maximum stack depth 9
 ---------------------------------------------------------------------------------

 Call Graph Graphs:

 _main (ROOT)
   _UARTReadChar
   _UARTSendChar
     _UARTWriteTest
   _UARTSendString
     _UARTSendChar
       _UARTWriteTest
     _UARTWriteTest
     _getAD_AN (ARG)
       ___fltol
       _bitExtract
       _readAD_AN
         ___flmul
           ___xxtofl (ARG)
         ___xxtofl
     _getAD_ANbit (ARG)
       _bitExtract
       _readAD_ANbit
     _valorConvUART (ARG)
       ___awdiv
       ___awmod
         ___awdiv (ARG)
       _getAD_AN (ARG)
         ___fltol
         _bitExtract
         _readAD_AN
           ___flmul
             ___xxtofl (ARG)
           ___xxtofl
     _valorConvUARTbit (ARG)
       ___awdiv
       ___awmod
         ___awdiv (ARG)
       _getAD_ANbit (ARG)
         _bitExtract
         _readAD_ANbit
   _configAD
   _configBits
   _configPWM
   _configUSART
   _initTimer0
   _myStrncmp
     _strlen
     _strncmp
       _strlen (ARG)
   _testeAD
     _UARTSendString
       _UARTSendChar
         _UARTWriteTest
       _UARTWriteTest
       _getAD_AN (ARG)
         ___fltol
         _bitExtract
         _readAD_AN
           ___flmul
             ___xxtofl (ARG)
           ___xxtofl
       _getAD_ANbit (ARG)
         _bitExtract
         _readAD_ANbit
       _valorConvUART (ARG)
         ___awdiv
         ___awmod
           ___awdiv (ARG)
         _getAD_AN (ARG)
           ___fltol
           _bitExtract
           _readAD_AN
             ___flmul
               ___xxtofl (ARG)
             ___xxtofl
       _valorConvUARTbit (ARG)
         ___awdiv
         ___awmod
           ___awdiv (ARG)
         _getAD_ANbit (ARG)
           _bitExtract
           _readAD_ANbit
     _getAD_AN
       ___fltol
       _bitExtract
       _readAD_AN
         ___flmul
           ___xxtofl (ARG)
         ___xxtofl
     _valorConvUART
       ___awdiv
       ___awmod
         ___awdiv (ARG)
       _getAD_AN (ARG)
         ___fltol
         _bitExtract
         _readAD_AN
           ___flmul
             ___xxtofl (ARG)
           ___xxtofl
   _testeADbit
     _UARTSendString
       _UARTSendChar
         _UARTWriteTest
       _UARTWriteTest
       _getAD_AN (ARG)
         ___fltol
         _bitExtract
         _readAD_AN
           ___flmul
             ___xxtofl (ARG)
           ___xxtofl
       _getAD_ANbit (ARG)
         _bitExtract
         _readAD_ANbit
       _valorConvUART (ARG)
         ___awdiv
         ___awmod
           ___awdiv (ARG)
         _getAD_AN (ARG)
           ___fltol
           _bitExtract
           _readAD_AN
             ___flmul
               ___xxtofl (ARG)
             ___xxtofl
       _valorConvUARTbit (ARG)
         ___awdiv
         ___awmod
           ___awdiv (ARG)
         _getAD_ANbit (ARG)
           _bitExtract
           _readAD_ANbit
     _getAD_ANbit
       _bitExtract
       _readAD_ANbit
     _valorConvUARTbit
       ___awdiv
       ___awmod
         ___awdiv (ARG)
       _getAD_ANbit (ARG)
         _bitExtract
         _readAD_ANbit
   _testeLampadas
     _bitExtract
     _myStrncmp
       _strlen
       _strncmp
         _strlen (ARG)
   _testeMotores
     _UARTSendString
       _UARTSendChar
         _UARTWriteTest
       _UARTWriteTest
       _getAD_AN (ARG)
         ___fltol
         _bitExtract
         _readAD_AN
           ___flmul
             ___xxtofl (ARG)
           ___xxtofl
       _getAD_ANbit (ARG)
         _bitExtract
         _readAD_ANbit
       _valorConvUART (ARG)
         ___awdiv
         ___awmod
           ___awdiv (ARG)
         _getAD_AN (ARG)
           ___fltol
           _bitExtract
           _readAD_AN
             ___flmul
               ___xxtofl (ARG)
             ___xxtofl
       _valorConvUARTbit (ARG)
         ___awdiv
         ___awmod
           ___awdiv (ARG)
         _getAD_ANbit (ARG)
           _bitExtract
           _readAD_ANbit
     _myStrncmp
       _strlen
       _strncmp
         _strlen (ARG)
     _setDutyPWM0
       ___wmul
     _setDutyPWM2
       ___wmul
     _setDutyPWM4
       ___wmul
     _setDutyPWM6
       ___wmul

 _ISR (ROOT)
   _ligaTimer0
   _setEstrategia
   _setPID
     ___fladd
       i2___flmul (ARG)
         i2___xxtofl (ARG)
       i2___xxtofl (ARG)
     ___fldiv
       ___flsub (ARG)
         ___fladd
           i2___flmul (ARG)
             i2___xxtofl (ARG)
           i2___xxtofl (ARG)
         i2___xxtofl (ARG)
       i2___flmul (ARG)
         i2___xxtofl (ARG)
       i2___xxtofl (ARG)
     ___flsub
       ___fladd
         i2___flmul (ARG)
           i2___xxtofl (ARG)
         i2___xxtofl (ARG)
       i2___xxtofl (ARG)
     _configDA
       ___flge
       i2___xxtofl
       i2_getAD_AN
         i2___fltol
           ___fladd (ARG)
             i2___flmul (ARG)
               i2___xxtofl (ARG)
             i2___xxtofl (ARG)
           ___flsub (ARG)
             ___fladd
               i2___flmul (ARG)
                 i2___xxtofl (ARG)
               i2___xxtofl (ARG)
             i2___xxtofl (ARG)
           i2___xxtofl (ARG)
         i2_bitExtract
         i2_readAD_AN
           i2___flmul
             i2___xxtofl (ARG)
           i2___xxtofl
     _moverMotor
       ___fladd
         i2___flmul (ARG)
           i2___xxtofl (ARG)
         i2___xxtofl (ARG)
       ___fleq
       ___flsub
         ___fladd
           i2___flmul (ARG)
             i2___xxtofl (ARG)
           i2___xxtofl (ARG)
         i2___xxtofl (ARG)
       _lados
         ___fladd (ARG)
           i2___flmul (ARG)
             i2___xxtofl (ARG)
           i2___xxtofl (ARG)
         ___flsub (ARG)
           ___fladd
             i2___flmul (ARG)
               i2___xxtofl (ARG)
             i2___xxtofl (ARG)
           i2___xxtofl (ARG)
         i2___fltol (ARG)
           ___fladd (ARG)
             i2___flmul (ARG)
               i2___xxtofl (ARG)
             i2___xxtofl (ARG)
           ___flsub (ARG)
             ___fladd
               i2___flmul (ARG)
                 i2___xxtofl (ARG)
               i2___xxtofl (ARG)
             i2___xxtofl (ARG)
           i2___xxtofl (ARG)
         i2___xxtofl (ARG)
         i2_setDutyPWM0 (ARG)
           i2___wmul
         i2_setDutyPWM2 (ARG)
           i2___wmul
         i2_setDutyPWM4 (ARG)
           i2___wmul
         i2_setDutyPWM6 (ARG)
           i2___wmul
       i2___fltol
         ___fladd (ARG)
           i2___flmul (ARG)
             i2___xxtofl (ARG)
           i2___xxtofl (ARG)
         ___flsub (ARG)
           ___fladd
             i2___flmul (ARG)
               i2___xxtofl (ARG)
             i2___xxtofl (ARG)
           i2___xxtofl (ARG)
         i2___xxtofl (ARG)
       i2___xxtofl
     _posicao
       ___fladd
         i2___flmul (ARG)
           i2___xxtofl (ARG)
         i2___xxtofl (ARG)
       ___fldiv
         ___flsub (ARG)
           ___fladd
             i2___flmul (ARG)
               i2___xxtofl (ARG)
             i2___xxtofl (ARG)
           i2___xxtofl (ARG)
         i2___flmul (ARG)
           i2___xxtofl (ARG)
         i2___xxtofl (ARG)
       ___fleq
     i2___flmul
       i2___xxtofl (ARG)
     i2___xxtofl
   i2_UARTSendString
     i2_UARTSendChar
       i2_UARTWriteTest
     i2_UARTWriteTest
   i2_setDutyPWM0
     i2___wmul
   i2_setDutyPWM2
     i2___wmul
   i2_setDutyPWM4
     i2___wmul
   i2_setDutyPWM6
     i2___wmul

 Address spaces:
Name               Size   Autos  Total    Cost      Usage
BIGRAM             2FF      0       0      10        0.0%
EEDATA             100      0       0       0        0.0%
BITBANK2           100      0       0       8        0.0%
BANK2              100      0       0       9        0.0%
BITBANK1           100      0       0       6        0.0%
BANK1              100     1C      7E       7       49.2%
BITBANK0            A0      0       0       4        0.0%
BANK0               A0     55      82       5       81.3%
BITCOMRAM           5E      0       0       0        0.0%
COMRAM              5E     5E      5E       1      100.0%
BITSFR               0      0       0     200        0.0%
SFR                  0      0       0     200        0.0%
STACK                0      0       0       2        0.0%
NULL                 0      0       0       0        0.0%
ABS                  0      0     15E       3        0.0%
DATA                 0      0     15E      11        0.0%
CODE                 0      0       0       0        0.0%


Microchip Technology PIC18 Macro Assembler V2.10 build 88905656 
Symbol Table                                                                                   Tue Oct 19 20:08:52 2021

                         _D 015E                           _I 00B9                           _P 00BD  
              ___fldiv@aexp 0058                ___fldiv@bexp 0057                ___fldiv@sign 0050  
              posicao@local 0060                posicao@total 0068                ___awdiv@sign 0083  
          i2getAD_AN@ANread 004C                          _de 014A                          _kd 014E  
                        _dt 00B5                          _ki 0152                          _kp 0156  
                        _tf 0146         ___wmul@multiplicand 0080                __CFG_CP0$OFF 000000  
              __CFG_CP1$OFF 000000                __CFG_CP2$OFF 000000                __CFG_CP3$OFF 000000  
               __CFG_OSC$HS 000000                 __CFG_LVP$ON 000000                         l202 395C  
                       l124 3496                         l142 2908                         l119 3BFC  
                       l151 2E7E                         l136 36A2                         l160 3AA4  
                       l240 0878                         l145 2948                         l129 3166  
                       l154 3BD8                         l171 3C3A                         l139 3C1C  
                       l163 3A7A                         l180 3C3C                         l148 2E5A  
                       l261 3C7E                         l157 3ACE                         l246 26E4  
                       l166 3A50                         l183 3C4A                         l192 3312  
                       l256 3074                         l177 3C88                         l249 1C50  
                       l186 3C68                         l195 3CA2                         l603 33D8  
                       l372 3AF6                         l364 2518                         l198 3854  
                       l616 3548                         l669 2C74                         l990 1164  
                       l993 0FF6                         l986 0E00                         l995 106E  
                       l996 105C                __CFG_CPB$OFF 000000                         _RC0 007C10  
                       _RC1 007C11                         _RC2 007C12                         _RC3 007C13  
                       _PID 015A                __CFG_CPD$OFF 000000                         _ISR 0008  
     __end_ofi2_setDutyPWM0 3B90       __end_ofi2_setDutyPWM2 3B6A       __end_ofi2_setDutyPWM4 3B44  
     __end_ofi2_setDutyPWM6 3B1E              testeLampadas@i 0093  i2UARTSendString@max_length 0004  
                i2_getAD_AN 294A                         _pos 00C5                ___awmod@sign 008B  
                i2___xxtofl 20D4                         wreg 000FE8                 i2___flmul@a 0013  
               i2___flmul@b 000F                __CFG_IESO$ON 000000                ___flmul@aexp 009D  
              ___flmul@bexp 009E                ___flmul@sign 0098                ___flmul@temp 00A3  
              ___flmul@prod 009F                        ?_ISR 0001                ___fltol@exp1 0087  
                      l1003 1126                        l1030 20D2                        l1041 206A  
                      l1034 200E                        l1027 1F76                        l1053 3246  
                      l1049 3A26                        l3200 0DB8                        l4010 3BE2  
                      l3210 0DF0                        l3202 0DBA                        l4012 3BE6  
                      l4020 3C22                        l3300 114A                        l3220 0E40  
                      l3212 0E10                        l3204 0DCA                        l4014 3BB6  
                      l4030 3C2C                        l4022 3C24                        l3302 1150  
                      l3230 0E90                        l3222 0E4A                        l3214 0E20  
                      l3206 0DDA                        l3310 1F32                        l4008 3BDA  
                      l4016 3BCA                        l4040 3C36                        l4032 3C2E  
                      l4024 3C26                        l3304 1154                        l3240 0ED2  
                      l3232 0E9C                        l3224 0E60                        l3208 0DEA  
                      l3320 1FB0                        l3312 1F40                        l5000 2FC6  
                      l4042 3C38                        l4034 3C30                        l4026 3C28  
                      l4018 3C1E                        l3250 0F34                        l3242 0EE2  
                      l3234 0EAA                        l3226 0E6C                        l3218 0E34  
                      l3330 2004                        l3322 1FB8                        l3314 1F86  
                      l5010 303C                        l5002 2FF4                        l4036 3C32  
                      l4028 3C2A                        l4300 3C7A                        l3260 0FDC  
                      l3252 0F50                        l3244 0EFC                        l3236 0EB6  
                      l3228 0E84                        l3180 0D48                        l3340 207A  
                      l3332 2040                        l3324 1FC4                        l3316 1F9C  
                      l3308 1F20                        l5012 3058                        l5004 300A  
                      l4046 3C80                        l4038 3C34                        l3270 1018  
                      l3262 0FE6                        l3254 0F7A                        l3246 0F0C  
                      l3238 0EC6                        l3190 0D88                        l3182 0D56  
                      l3350 20C2                        l3342 207E                        l3334 204C  
                      l3326 1FF6                        l5006 3020                        l4048 3C84  
                      l3280 108A                        l3272 1026                        l3264 0FF4  
                      l3256 0FB0                        l3248 0F28                        l3192 0D8E  
                      l3184 0D58                        l3344 20A2                        l3336 205A  
                      l3328 1FF8                        l3440 35FA                        l5008 3036  
                      l3290 10F4                        l3282 1098                        l3274 1054  
                      l3266 1006                        l3258 0FBE                        l3194 0D9E  
                      l3186 0D68                        l3178 0D3A                        l3346 20B2  
                      l3338 2078                        l3450 3692                        l3442 3602  
                      l5130 2436                        l5122 241A                        l3292 110E  
                      l3284 10C2                        l3268 1014                        l3196 0DA4  
                      l3188 0D78                        l3348 20C0                        l3444 3608  
                      l5140 244A                        l5132 243A                        l5124 242E  
                      l3294 112A                        l3278 107E                        l3286 10C6  
                      l3198 0DAA                        l3446 3610                        l5150 2458  
                      l5142 244C                        l5134 243E                        l5126 2430  
                      l4512 3C3C                        l3296 113A                        l3288 10E0  
                      l3448 365C                        l4600 33AC                        l4520 3C14  
                      l5160 246A                        l5152 245A                        l5144 2450  
                      l5136 2442                        l5128 2434                        l4530 3C64  
                      l3802 2C00                        l3298 1148                        l4602 33B2  
                      l4514 3BFE                        l5170 24BC                        l5162 2478  
                      l5154 245E                        l5146 2454                        l5138 2446  
                      l3820 2C64                        l3812 2C28                        l3804 2C0A  
                      l4524 37F6                        l4604 33B8                        l4620 34B8  
                      l4612 3498                        l4516 3C06                        l4700 2E58  
                      l4532 39EA                        l5180 254A                        l5172 24E6  
                      l5164 2482                        l5156 2462                        l5148 2456  
                      l3814 2C34                        l3806 2C14                        l4606 33C8  
                      l4630 34F0                        l4622 34C6                        l4614 349E  
                      l4518 3C0C                        l4702 2E68                        l4534 39F6  
                      l4550 31AE                        l4542 3168                        l4710 3AA6  
                      l5182 254E                        l5174 24EA                        l5166 248A  
                      l5158 2466                        l4528 3C60                        l3816 2C44  
                      l4608 33D0                        l4632 34FE                        l4640 3528  
                      l4624 34CE                        l4616 34AC                        l4704 2E74  
                      l4536 39FC                        l4552 31CA                        l4544 3194  
                      l4712 3AC4                        l4720 3A9E                        l4800 0462  
                      l5184 2578                        l5176 2514                        l5168 24B4  
                      l4298 3C76                        l3818 2C54                        l4570 331A  
                      l4642 3538                        l4634 3514                        l4626 34E0  
                      l4618 34B4                        l4650 33DA                        l4706 2E76  
                      l4538 3A18                        l4554 31E6                        l4562 3AD0  
                      l4714 3AC8                        l4722 3A52                        l4730 3A46  
                      l4810 04B6                        l4802 046E                        l5186 2580  
                      l5178 2542                        l4740 3278                        l3780 2B6E  
                      l4580 334A                        l4572 3328                        l4644 3540  
                      l4636 351C                        l4628 34E8                        l4660 3486  
                      l4652 3468                        l4556 31F8                        l4548 31A0  
                      l4564 3AEE                        l4716 3A7C                        l4724 3A70  
                      l4732 3A4A                        l4900 073E                        l4820 04EA  
                      l4812 04D2                        l4804 0482                        l5188 2596  
                      l4750 32F4                        l4734 3248                        l3790 2BC6  
                      l3782 2B86                        l4590 3378                        l4582 334E  
                      l4574 3330                        l4638 3522                        l4662 348C  
                      l4654 3474                        l4670 3144                        l4558 3222  
                      l4718 3A9A                        l4726 3A74                        l4910 079E  
                      l4902 0756                        l4830 053E                        l4822 04F6  
                      l4814 04E0                        l4744 32B8                        l4736 325A  
                      l3792 2BD6                        l4592 3386                        l4584 3356  
                      l4576 3334                        l4568 3314                        l4656 347C  
                      l4672 314C                        l4760 3954                        l4752 390C  
                      l4728 3A28                        l4920 07E0                        l4912 07BA  
                      l4904 076A                        l4840 0572                        l4832 055A  
                      l4824 050A                        l4808 04B0                        l4746 32EA  
                      l3794 2BDA                        l3786 2B9A                        l4690 292A  
                      l4682 282A                        l4594 338C                        l4586 3368  
                      l4578 3342                        l4658 3480                        l4674 3152  
                      l4666 3076                        l4754 3948                        l4930 0840  
                      l4922 07F8                        l4914 07D6                        l4850 05C6  
                      l4842 057E                        l4834 0568                        l4770 03A4  
                      l4748 32EE                        l3796 2BE8                        l3788 2BC4  
                      l4692 292C                        l4684 2904                        l4596 33A2  
                      l4588 3370                        l4676 3158                        l4668 3138  
                      l4940 25AC                        l4932 085C                        l4924 080C  
                      l4908 0798                        l4860 05FA                        l4852 05E2  
                      l4844 0592                        l4828 0538                        l4780 03D0  
                      l4772 03BA                        l4686 2906                        l4598 33AA  
                      l4950 192A                        l4678 315E                        l4942 267A  
                      l4934 25A2                        l4870 065A                        l4862 0612  
                      l4854 05F0                        l4790 0434                        l4782 03E4  
                      l4688 2916                        l4960 19F8                        l4952 1940  
                      l4696 2D7C                        l4928 083A                        l4880 069C  
                      l4872 0676                        l4864 0626                        l4848 05C0  
                      l4792 044A                        l4768 03A0                        l4970 1AE0  
                      l4962 1A28                        l4954 1970                        l4698 2E56  
                      l4946 26A8                        l4890 06FC                        l4882 06B4  
                      l4874 0692                        l4794 0458                        l4786 0412  
                      l4778 03C4                        l4980 1BAE                        l4972 1AF6  
                      l4964 1A3E                        l4956 1986                        l4948 26C2  
                      l4892 0718                        l4884 06C8                        l4868 0654  
                      l4788 0418                        l4982 1BC4                        l4974 1B0C  
                      l4966 1A54                        l4958 199C                        l4894 0734  
                      l4984 1C36                        l4976 1B68                        l4968 1AB0  
                      l4992 2F8E                        l4888 06F6                        l4978 1B98  
                      l4994 2F96                        l4986 2F84                        l4996 2F9C  
                      l4998 2FB0                        STR_1 039B                        STR_2 0310  
                      STR_3 038E                        STR_4 038E                        STR_5 0301  
                      STR_7 038E                        STR_9 038E                        u3200 0D56  
                      u3201 0D52                        u3210 0D68                        u3211 0D64  
                      u3300 1014                        u3220 0D78                        u3301 1010  
                      u3221 0D74                        u4110 2B86                        u3310 1026  
                      u3230 0DB8                        u4111 2B82                        u3311 1022  
                      u3231 0DB4                        u4120 2BBA                        u3320 1054  
                      u3240 0DCA                        u3400 1F40                        u5000 34AC  
                      u3321 1050                        u3241 0DC6                        u3401 1F3C  
                      u5001 34A8                        u4130 2BE8                        u3330 106A  
                      u3250 0DDA                        u3410 1F9C                        u5010 34C6  
                      u4131 2BE4                        u3331 1066                        u3251 0DD6  
                      u3411 1F98                        u5011 34C2                        u4140 2BFC  
                      u3340 107E                        u3260 0E10                        u3420 1FF2  
                      u5020 34E0                        u5100 2E68                        u4141 2BF8  
                      u4125 2BB0                        u3341 107A                        u3261 0E0C  
                      u3421 1FEE                        u5021 34DC                        u5101 2E64  
                      u5110 3274                        u4150 2C24                        u3350 1098  
                      u3270 0E20                        u3430 203C                        u5030 34FE  
                      u5111 3270                        u4151 2C20                        u3351 1094  
                      u3271 0E1C                        u3431 2038                        u5031 34FA  
                      u5120 32A4                        u4160 2C44                        u3360 10E0  
                      u3280 0F9A                        u3440 205A                        u5040 3514  
                      u5200 04D2                        u4161 2C40                        u3361 10DC  
                      u3441 2056                        u5041 3510                        u5201 04CE  
                      u5130 32B4                        u4170 2C54                        u3370 110E  
                      u3290 0FF4                        u3450 206A                        u5050 3538  
                      u5210 0534                        u5131 32B0                        u4171 2C50  
                      u3371 110A                        u3291 0FF0                        u3451 2066  
                      u5051 3534                        u5211 0530                        u5140 32E6  
                      u3380 1148                        u3460 2078                        u5300 07BA  
                      u5220 055A                        u3381 1144                        u3285 0F90  
                      u3461 2074                        u5301 07B6                        u5221 0556  
                      u5150 3312                        u3470 20B2                        u3390 1F32  
                      u5310 0836                        u5230 05BC                        u5151 330E  
                      u5127 329A                        u3471 20AE                        u3391 1F2E  
                      u5071 346E                        u5311 0832                        u5231 05B8  
                      u3480 20C0                        u5160 3948                        u5320 085C  
                      u5240 05E2                        u3481 20BC                        u5081 313E  
                      u5161 3944                        u5321 0858                        u5241 05DE  
                      u5090 2916                        u5410 26A4                        u5330 25DC  
                      u5250 0650                        u5170 040E                        u5147 32DC  
                      u5091 2912                        u5411 26A0                        u5331 25D6  
                      u5251 064C                        u5171 040A                        u5420 26E4  
                      u5260 0676                        u5180 0434                        u5421 26E0  
                      u5405 267A                        u5261 0672                        u5181 0430  
                      u5430 3058                        u5350 2610                        u5270 06F2  
                      u5190 04AC                        u5431 3054                        u5351 260A  
                      u5271 06EE                        u5191 04A8                        u5280 0718  
                      u5345 25DE                        u5281 0714                        u5370 2644  
                      u5290 0794                        u5610 24B4                        u5371 263E  
                      u5291 0790                        u5611 24B0                        u4900 31CA  
                      u5620 24E6                        u4901 31C6                        u5365 2612  
                      u5621 24E2                        u4910 31E6                        u5390 2678  
                      u5630 2514                        u4911 31E2                        u5391 2672  
                      u5631 2510                        u4920 31F8                        u5640 2542  
                      u4921 31F4                        u5385 2646                        u5641 253E  
                      u4850 3C4A                        u4930 3222                        u5650 2578  
                      u4851 3C46                        u4931 321E                        u5707 0586  
                      u5651 2574                        u4940 3328                        u4941 3324  
                      u5717 061A                        u4950 3342                        u4951 333E  
                      u5727 06BC                        u4864 3810                        u4960 3368  
                      u4880 3A18                        u4865 380A                        u4961 3364  
                      u4881 3A14                        u5737 075E                        u4874 3838  
                      u4970 3386                        u4890 3194                        u4875 3832  
                      u4971 3382                        u4891 3190                        u5747 0800  
                      u5667 2422                        u4980 33A2                        u4981 339E  
                      u5757 26B4                        u5677 03D8                        u4990 33C8  
                      u4991 33C4                        u5767 3064                        u5687 0476  
                      u5777 1C42                        u5697 04FE                        _TRMT 007D61  
             __CFG_FCMEN$ON 000000   __size_ofi2_UARTSendString 00B0                        _main 241A  
                      _erro 00C1                        fsr2h 000FDA                        indf2 000FDF  
                      fsr1l 000FE1                        fsr2l 000FD9                        btemp 005F  
             testeMotores@i 0178                        prodh 000FF4                        prodl 000FF3  
            i2_UARTSendChar 3C6A                        start 02B2             ??_testeLampadas 0091  
              i2___fltol@f1 0040             ___fldiv@new_exp 0051               __CFG_MCLRE$ON 000000  
              ___param_bank 000000            _valorConvUARTbit 3076                       ??_ISR 0076  
     __size_ofi2_bitExtract 005A               ?_readAD_ANbit 007E        __size_of_getAD_ANbit 0104  
             ___fltol@sign1 0086             i2UARTSendChar@c 0001             __end_of___fladd 0D3A  
                     ?_main 0001             __end_of___fldiv 192A             __end_of___awdiv 33DA  
                     STR_11 038E                       STR_21 038E                       STR_13 038E  
                     STR_30 0371                       STR_22 0359                       STR_31 039C  
                     STR_15 038E                       STR_23 039C                       STR_40 039C  
                     STR_32 0377                       STR_24 035F                       STR_41 039C  
                     STR_33 039C                       STR_25 039C                       STR_17 038E  
                     STR_42 0339                       STR_50 038E                       STR_34 037D  
                     STR_26 0365                       STR_43 039C                       STR_35 039C  
                     STR_27 039C                       STR_19 038E                       STR_51 0389  
                     STR_60 0397                       STR_52 039A                       STR_36 0383  
                     STR_28 036B                       STR_44 034F             __end_of___awmod 354A  
                     STR_37 039C                       STR_29 039C                       STR_45 032C  
                     STR_54 038E                       STR_62 0344                       STR_38 0339  
                     STR_46 031E                       STR_39 039C                       STR_47 0397  
                     STR_56 032C                       STR_48 0393                       STR_49 0344  
                     STR_58 031E             __end_of___flmul 1166             __end_of___flsub 39EA  
           __end_of___fltol 2C76                       _T0CON 000FD5             ___awdiv@divisor 0080  
                     _PDC0H 000F78                       _PDC1H 000F76                       _DTCON 000F6D  
                     _PDC0L 000F79                       _PDC2H 000F74                       _PDC1L 000F77  
                     _PDC3H 000F72                       _PDC2L 000F75                       _PDC3L 000F73  
                     i2l142 2A1C                       i2l136 37F4                       i2l160 3B68  
                     i2l320 2418                       i2l145 2A5C                       i2l313 2828  
                     i2l163 3B42                       i2l331 2B6C                       i2l180 3C4C  
                     i2l157 3B8E                       i2l174 3C92                       i2l166 3B1C  
                     i2l326 38B0                       i2l334 1F1A                       i2l319 2408  
                     i2l183 3C5A                       i2l192 35F8                       i2l345 0076  
                     i2l186 3C74                       i2l267 3CA0                       i2l372 3BB4  
                     i2l356 028E                       i2l198 390A                       i2l631 374C  
                     i2l642 2F82                       i2l900 0A68                       i2l637 2F3C  
                     i2l901 0A56                       i2l902 0A1C                       i2l669 2D7A  
                     i2l917 0B82                       i2l909 0D38                       i2l926 0C52  
                     i2l942 39E8                       i2l927 0C40                       i2l954 1928  
                     i2l956 1788             ___awdiv@counter 0082                       i2l965 17CE  
                     i2l990 158E                       i2l967 1846                       i2l959 174C  
                     i2l968 1834                       i2l993 1420                       i2l986 122A  
                     i2l995 1498                       i2l996 1486                       _RCREG 000FAE  
                     _TMR0L 000FD6                       _SPBRG 000FAF                       _PORTB 000F81  
                     _PORTC 000F82                       _PORTD 000F83                       _PORTE 000F84  
                     _TRISA 000F92                       _TRISB 000F93                       _TRISC 000F94  
                     _TRISD 000F95                       _TRISE 000F96                 i2_readAD_AN 374E  
                     _TXREG 000FAD               __CFG_WRT0$OFF 000000               __CFG_WRT1$OFF 000000  
             __CFG_WRT2$OFF 000000               __CFG_WRT3$OFF 000000              __CFG_EBTR0$OFF 000000  
            __CFG_EBTR1$OFF 000000              __CFG_EBTR2$OFF 000000              __CFG_EBTR3$OFF 000000  
             __CFG_WRTB$OFF 000000               __CFG_WRTC$OFF 000000               __CFG_WRTD$OFF 000000  
            __CFG_EBTRB$OFF 000000               getAD_AN@porta 00AD                       _lados 3856  
                     _erroi 0142                       _posin 00C9       __end_of_setEstrategia 3C94  
            __CFG_BOREN$OFF 000000                       tablat 000FF5             __end_of_testeAD 1C52  
           __end_of_posicao 241A            __end_ofi2___wmul 3BB6      __end_ofi2_UARTSendChar 3C76  
                     ttemp5 0060                       ttemp6 0063                       ttemp7 0067  
                     status 000FD8                       wtemp8 0060               i2___flmul@grs 001C  
           __end_of_strncmp 3248                i2_bitExtract 38B2          __size_ofi2___flmul 042A  
        __size_ofi2___fltol 0106            testeADbit@string 0179             __initialization 395E  
            __CFG_HPOL$HIGH 000000                __end_of_main 25A2              ??_readAD_ANbit 0080  
            __CFG_LPOL$HIGH 000000                      ??_main 017D              _readAD_AN$1570 00A9  
             __activetblptr 000002                ?_setDutyPWM0 0084                ?_setDutyPWM2 0084  
              ?_setDutyPWM4 0084                ?_setDutyPWM6 0084                 ?i2_getAD_AN 004A  
        valorConvUART@F3413 013D                 ?i2___xxtofl 0001               lados@porcVelo 004A  
                    _ADCON3 000F9A                      ?_lados 004A       i2setDutyPWM0@porcVelo 0007  
           i2_UARTWriteTest 3C4C                      _ADRESH 000FC4                      _ADRESL 000FC3  
          ___awdiv@dividend 007E              getAD_AN@ANread 00AF                      _ANSEL0 000FB8  
                    _ANSEL1 000FB9                      i2l1003 1550                      i2l1030 2286  
                    i2l1041 221E                      i2l1034 21C2                      i2l1027 212A  
                    i2l3000 08FA                      i2l3010 0930                      i2l3002 0900  
                    i2l3100 0AF6                      i2l3020 096C                      i2l3012 0940  
                    i2l3004 090E                      i2l3102 0B1C                      i2l3110 0B72  
                    i2l3030 098A                      i2l3022 097A                      i2l3014 0942  
                    i2l3006 0910                      i2l3120 0BC6                      i2l3112 0B98  
                    i2l3104 0B50                      i2l3040 099E                      i2l3032 098E  
                    i2l3024 097E                      i2l3008 0920                      i2l3016 094A  
                    i2l4000 2A90                      i2l3130 0BF0                      i2l3122 0BD4  
                    i2l3114 0BA8                      i2l3106 0B52                      i2l3050 09B2  
                    i2l3042 09A2                      i2l3034 0992                      i2l3026 0982  
                    i2l3018 095A                      i2l4002 2AB0                      i2l3140 0C22  
                    i2l3132 0C00                      i2l3124 0BD6                      i2l3108 0B62  
                    i2l3060 0A04                      i2l3052 09B6                      i2l3044 09A6  
                    i2l3036 0996                      i2l3028 0986                      i2l3150 0C7C  
                    i2l3142 0C38                      i2l3126 0BE4                      i2l3118 0BBC  
                    i2l3134 0C02                      i2l3070 0A48                      i2l3062 0A14  
                    i2l3046 09AA                      i2l3038 099A                      i2l3054 09BA  
                    i2l3160 0CF8                      i2l3152 0CB6                      i2l3128 0BEC  
                    i2l3136 0C10                      i2l3072 0A4A                      i2l3064 0A2A  
                    i2l3056 09BE                      i2l3048 09AE                      i2l3410 2CE0  
                    i2l3402 2CA0                      i2l3170 0D18                      i2l3162 0CFC  
                    i2l3146 0C62                      i2l3154 0CB8                      i2l3138 0C14  
                    i2l3090 0AD2                      i2l3082 0A9A                      i2l3074 0A54  
                    i2l3066 0A36                      i2l3058 09E8                      i2l4044 3C8A  
                    i2l3420 2D10                      i2l3412 2CEE                      i2l3404 2CCA  
                    i2l3172 0D26                      i2l3164 0D0A                      i2l3156 0CC8  
                    i2l3148 0C6E                      i2l3092 0AD6                      i2l3084 0AAA  
                    i2l3076 0A76                      i2l3068 0A3A                      i2l5020 357C  
                    i2l5100 022C                      i2l4302 3C9E                      i2l3430 2D3A  
                    i2l3422 2D1A                      i2l3406 2CCC                      i2l3174 0D28  
                    i2l3166 0D10                      i2l3158 0CD8                      i2l3094 0AE4  
                    i2l3086 0AB8                      i2l3078 0A86                      i2l3510 3898  
                    i2l3502 3858                      i2l4310 1C7A                      i2l5014 354A  
                    i2l5110 0270                      i2l5102 0240              __CFG_WDTEN$OFF 000000  
                    i2l3432 2D4A                      i2l3408 2CDC                      i2l2800 1172  
                    i2l3360 3764                      i2l3168 0D12                      i2l3096 0AE6  
                    i2l3088 0AC6                      i2l3504 385C                      i2l3600 1786  
                    i2l3520 159C                      i2l4320 1D86                      i2l4312 1CAE  
                    i2l4304 1C52                      i2l5024 35BC                      i2l5016 355A  
                    i2l5112 0272                      i2l5104 024C                      i2l5120 028C  
                    i2l5040 004C                      i2l5032 002A                      i2l3434 2D5A  
                    i2l3418 2D06                      i2l2810 11B2                      i2l2802 1180  
                    i2l3362 37B0                      i2l3354 374E                      i2l3098 0AF0  
                    i2l3370 3B86                      i2l3506 386E                      i2l3610 17CC  
                    i2l3602 1798                      i2l3530 15DC                      i2l3522 15AA  
                    i2l4330 1ED2                      i2l4322 1DBA                      i2l4314 1CE2  
                    i2l4306 1C56                      i2l5026 35EC                      i2l5114 0274  
                    i2l5106 0258                      i2l5050 0092                      i2l5042 005A  
                    i2l5034 0038                      i2l3436 2D6A                      i2l3428 2D2E  
                    i2l2900 14B4                      i2l2820 11E2                      i2l2812 11B8  
                    i2l2804 1182                      i2l3364 37E4                      i2l3356 3756  
                    i2l3372 3B8A                      i2l3380 3B1E                      i2l3508 3886  
                    i2l3620 182C                      i2l3604 17AE                      i2l3612 17DE  
                    i2l3540 1602                      i2l3532 15DE                      i2l3524 15AC  
                    i2l4332 1F06                      i2l4324 1DEE                      i2l4316 1CF2  
                    i2l4308 1C6A                      i2l5028 35F0                      i2l5116 0276  
                    i2l5108 0264                      i2l5060 00EA                      i2l5052 00A6  
                    i2l5044 0068                      i2l5036 003C                      i2l2910 151E  
                    i2l2902 14C2                      i2l2830 121A                      i2l2822 11E4  
                    i2l2814 11C8                      i2l2806 1192                      i2l3358 375C  
                    i2l3374 3B44                      i2l3382 3B3A                      i2l3390 3B18  
                    i2l3630 189A                      i2l3614 17EC                      i2l3606 17B4  
                    i2l3550 1642                      i2l3542 1610                      i2l3526 15BC  
                    i2l3534 15E6                      i2l3518 1590                      i2l4326 1E46  
                    i2l4318 1D60                      i2l5118 0278                      i2l5070 013C  
                    i2l5062 00F6                      i2l5054 00B8                      i2l5046 007C  
                    i2l5038 004A                      i2l3392 38B2                      i2l2920 1574  
                    i2l2912 1538                      i2l2904 14EC                      i2l2840 126A  
                    i2l2832 123A                      i2l2824 11F4                      i2l2816 11CE  
                    i2l2808 11A2                      i2l3368 3B6A                      i2l3376 3B60  
                    i2l3384 3B3E                      i2l3640 1904                      i2l3624 1856  
                    i2l3632 189E                      i2l3616 17F0                      i2l3608 17BE  
                    i2l3560 1682                      i2l3552 1644                      i2l3544 1612  
                    i2l3536 15F6                      i2l3528 15CC                      i2l4328 1E9E  
                    i2l5080 0184                      i2l5072 014E                      i2l5064 010A  
                    i2l5056 00C4                      i2l5048 008E                      i2l2914 1554  
                    i2l2922 157A                      i2l2906 14F0                      i2l2850 12BA  
                    i2l2842 1274                      i2l2834 124A                      i2l2826 1204  
                    i2l2818 11D4                      i2l2930 20E6                      i2l3378 3B64  
                    i2l3386 3AF8                      i2l3642 1908                      i2l3634 18B8  
                    i2l3626 1862                      i2l3618 17FE                      i2l3570 16B2  
                    i2l3562 168A                      i2l3546 1622                      i2l3554 164C  
                    i2l3538 15FC                      i2l5082 01A2                      i2l5074 0160  
                    i2l5090 01DC                      i2l5066 011C                      i2l5058 00D8  
                    i2l3396 2C76                      i2l2924 157E                      i2l2916 1564  
                    i2l2908 150A                      i2l2860 12FC                      i2l2852 12C6  
                    i2l2844 128A                      i2l2828 1214                      i2l2940 2164  
                    i2l2932 20F4                      i2l3388 3B14                      i2l3644 1916  
                    i2l3636 18CE                      i2l3628 1870                      i2l3580 16F0  
                    i2l3572 16B2                      i2l3564 168E                      i2l3556 165C  
                    i2l3548 1632                      i2l5092 01EE                      i2l5084 01B6  
                    i2l5068 0128                      i2l3398 2C8C                      i2l2918 1572  
                    i2l2870 135E                      i2l2862 130C                      i2l2854 12D4  
                    i2l2846 1296                      i2l2838 125E                      i2l2950 21B8  
                    i2l2942 216C                      i2l2934 213A                      i2l3830 2A2A  
                    i2l3750 3720                      i2l3742 36A4                      i2l3646 191C  
                    i2l3638 18E8                      i2l3590 173C                      i2l3582 1700  
                    i2l3558 1672                      i2l5094 01FA                      i2l5078 0180  
                    i2l3760 2EAE                      i2l2880 1406                      i2l2872 137A  
                    i2l2864 1326                      i2l2856 12E0                      i2l2848 12AE  
                    i2l2960 222E                      i2l2952 21F4                      i2l2944 2178  
                    i2l2936 2150                      i2l2928 20D6                      i2l3832 2A3E  
                    i2l3824 294A                      i2l3752 3744                      i2l3744 36D2  
                    i2l3656 39A4                      i2l2792 3B90                      i2l3648 191E  
                    i2l3592 174A                      i2l3584 1710                      i2l3576 16C6  
                    i2l3568 16A2                      i2l5096 020E                      i2l5088 01C8  
                    i2l3770 2F1C                      i2l3762 2EBE                      i2l2890 1442  
                    i2l2882 1410                      i2l2874 13A4                      i2l2866 1336  
                    i2l2858 12F0                      i2l2970 2276                      i2l2962 2232  
                    i2l2954 2200                      i2l2946 21AA                      i2l3834 2A40  
                    i2l3826 2A18                      i2l3754 374A                      i2l3746 36E2  
                    i2l3658 39B4                      i2l2794 3BAC                      i2l3594 1756  
                    i2l3586 1718                      i2l3578 16E0                      i2l5098 0220  
                    i2l3772 2F2A                      i2l3764 2EEC                      i2l2892 1450  
                    i2l2884 141E                      i2l2876 13DA                      i2l2868 1352  
                    i2l2964 2256                      i2l2956 220E                      i2l2948 21AC  
                    i2l3828 2A1A                      i2l3748 3710                      i2l2980 0894  
                    i2l3596 1774                      i2l3588 1728                      i2l3774 2F7A  
                    i2l3766 2EFC                      i2l3758 2E80                      i2l2894 147E  
                    i2l2886 1430                      i2l2878 13E8                      i2l2798 1166  
                    i2l2966 2266                      i2l2958 222C                      i2l2990 08C8  
                    i2l2982 0896                      i2l3598 1776                      i2l3776 2F80  
                    i2l3768 2F0A                      i2l2888 143E                      i2l2968 2274  
                    i2l3960 26EE                      i2l2984 08A6                      i2l2992 08D0  
                    i2l2976 087A                      i2l4648 3C4C                      i2l2898 14A8  
                    i2l3970 2808                      i2l3962 270C                      i2l3954 26E6  
                    i2l2994 08E0                      i2l2986 08B6                      i2l2978 0886  
                    i2l3972 280C                      i2l3964 2752                      i2l2996 08E6  
                    i2l2988 08C6                      i2l3980 22B2                      i2l4764 3C6C  
                    i2l3966 27A4                      i2l2998 08F8                      i2l3990 23C0  
                    i2l3982 2304                      i2l3974 2288                      i2l4766 3C70  
                    i2l3968 27D8                      i2l3992 23F4                      i2l3984 236C  
                    i2l3986 2372                      i2l3988 238E                      i2l3998 2A5E  
                    _PTCON0 000F7F                      _PTCON1 000F7E                      _TMR0IF 007F92  
            __CFG_WINEN$OFF 000000                      _TMR0ON 007EAF             ?i2_UARTSendChar 0001  
                    _PTPERH 000F7A                      _PTPERL 000F7B            __end_of_getAD_AN 294A  
        valorConvUART@valor 00B3            __end_of___xxtofl 20D4       i2setDutyPWM2@porcVelo 0007  
      __size_of_configUSART 001E            __end_of_configAD 3BFE            __end_of_configDA 282A  
                    ___flge 2E80                      ___fleq 36A4                   ??___fladd 0030  
                    ___wmul 3AD0       i2setDutyPWM4@porcVelo 0007                   ??___fldiv 0048  
                 ??___awdiv 0082              __CFG_STVREN$ON 000000                   ??___awmod 008A  
                 ??___flmul 0094                   ??___flsub 0040                   ??___fltol 0082  
    valorConvUARTbit@dezena 0096                      _bspeed 00DD       _valorConvUARTbit$1569 009A  
                    _setPID 1C52      valorConvUARTbit@milhar 0092                      _millis 00CD  
                    clear_0 3984                      clear_1 3990     __size_of_UARTSendString 00CC  
          ___awdiv@quotient 0084             ___awmod@divisor 0088                      _sensor 011C  
           ___awmod@counter 008A                      _strlen 39EA      valorConvUARTbit@string 009C  
     i2setDutyPWM6@porcVelo 0007           __end_ofi2___flmul 1590           __end_ofi2___fltol 2D7C  
              __mediumconst 0000                      tblptrh 000FF7                      tblptrl 000FF6  
                    tblptru 000FF8                   ??_testeAD 0177                   ??_posicao 005D  
            i2___flmul@aexp 0020              i2___flmul@bexp 0021                   ??_strncmp 0088  
            i2___flmul@sign 001B              i2___flmul@temp 0026              i2___flmul@prod 0022  
                ___flge@ff1 0001                  ___flge@ff2 0005                ___xxtofl@arg 0088  
              ___xxtofl@exp 0087                ___xxtofl@val 007E                  ___fleq@ff1 0001  
                ___fleq@ff2 0005            i2_UARTSendString 354A          _valorConvUART$1568 0168  
                __accesstop 0060     __end_of__initialization 3996              i2___fltol@exp1 0049  
             ___rparam_used 000001                  ___fltol@f1 007E           i2setDutyPWM0@velo 0009  
         i2setDutyPWM2@velo 0009           i2setDutyPWM4@velo 0009             __CFG_T1OSCMX$ON 000000  
       __size_ofi2_getAD_AN 0114           i2setDutyPWM6@velo 0009         __size_ofi2___xxtofl 01B4  
            __pcstackCOMRAM 0001                __pidataBANK0 3C94               __end_of_lados 38B2  
     __end_of_UARTWriteTest 3C4C       __end_of_valorConvUART 3498     __end_ofi2_UARTWriteTest 3C5C  
                 ?i2___wmul 0001    UARTSendString@max_length 0171          __size_of_configPWM 0024  
  __end_of_valorConvUARTbit 3168                     ??_lados 004C        __end_of_readAD_ANbit 3C1E  
        __size_of_readAD_AN 00AA                  __pbssBANK0 00B5                  __pbssBANK1 0100  
                _bitExtract 37F6                     ?___flge 0001                     ?___fleq 0001  
                   ?___wmul 007E             __CFG_WDPS$32768 000000                     ?_setPID 0001  
        __size_of_myStrncmp 0052                     ?_strlen 007E                  ??i2___wmul 0005  
                 ?_getAD_AN 00AD                ?i2_readAD_AN 0028                   ?___xxtofl 007E  
                _configBits 3CA2         valorConvUART@dezena 0164        __size_of_setDutyPWM0 002A  
      __size_of_setDutyPWM2 002A        __size_of_setDutyPWM4 002A        __size_of_setDutyPWM6 002A  
                   _OVDCOND 000F6B                     _OVDCONS 000F6A                     _PWMCON0 000F6F  
                   _PWMCON1 000F6E               ?_UARTReadChar 0001                   ?_configAD 0001  
                 ?_configDA 0001         setDutyPWM0@porcVelo 0084         valorConvUART@string 016A  
             ?_UARTSendChar 0001                   _ADCHSbits 000F99             __CFG_PWMPIN$OFF 000000  
                _ligaTimer0 3C9E         setDutyPWM2@porcVelo 0084             __CFG_PWRTEN$OFF 000000  
                   __Hparam 0000      __size_ofi2_setDutyPWM0 0026      __size_ofi2_setDutyPWM2 0026  
    __size_ofi2_setDutyPWM4 0026      __size_ofi2_setDutyPWM6 0026                     __Lparam 0000  
     __end_of_testeLampadas 26E6           __end_of_configPWM 3BDA           i2UARTSendString@i 0008  
             ??_getAD_ANbit 008E             __size_of___flge 0104             __size_of___fleq 00AA  
                   ___fladd 087A                     ___fldiv 1590                  _initTimer0 3C76  
                   ___awdiv 3314                     ___awmod 3498                     ___flmul 0D3A  
       setDutyPWM4@porcVelo 0084                     ___flsub 39A4                     ___fltol 2B6E  
           __size_of___wmul 0028                __psmallconst 0300              _UARTSendString 3248  
         __end_of_readAD_AN 36A4                     __pcinit 395E             __size_of_setPID 02CA  
                   __ramtop 0300     valorConvUARTbit@centena 0094                     __ptext0 241A  
                   __ptext1 03A0                     __ptext2 3A28                     __ptext3 3A52  
                   __ptext4 3A7C                     __ptext5 3AA6                     __ptext6 3AD0  
                   __ptext7 25A2                     __ptext8 390C                     __ptext9 3168  
                   _comando 00DF             __size_of_strlen 003E                __size_of_ISR 02AA  
          ?i2_UARTWriteTest 0001         setDutyPWM6@porcVelo 0084                ??i2_getAD_AN 004C  
                ??_getAD_AN 00AF                     _leitura 0100                ??i2___xxtofl 0005  
                ??___xxtofl 0082            ___awmod@dividend 0086                     _vdig_AN 00D7  
                   _testeAD 192A              ??_UARTReadChar 007E                     _posicao 2288  
          ??i2_UARTSendChar 0001     valorConvUARTbit@unidade 0098                  ??_configAD 007E  
                ??_configDA 0050                     _strncmp 3168        end_of_initialization 3996  
            ??_UARTSendChar 007E           __end_of_myStrncmp 395E               __Lmediumconst 0000  
       i2___wmul@multiplier 0001                 ?_bitExtract 007E              i2___xxtofl@arg 000B  
            i2___xxtofl@exp 000A              i2___xxtofl@val 0001            bitExtract@numero 007E  
             i2bitExtract@k 0003               i2bitExtract@p 0005                  _moverMotor 2A5E  
        __end_ofi2_getAD_AN 2A5E                   _RCSTAbits 000FAB          __end_ofi2___xxtofl 2288  
    __end_of_UARTSendString 3314                     postdec1 000FE5                     postdec2 000FDD  
               testeADbit@i 017B                     postinc0 000FEE                     postinc2 000FDE  
                _testeADbit 2F84               ?_testeMotores 0001                     strlen@a 0080  
                   strlen@s 007E      __size_of_setEstrategia 000A    __end_ofi2_UARTSendString 35FA  
                 _PORTBbits 000F81         __end_of_getAD_ANbit 2E80                 ___fladd@grs 0037  
               ?_configBits 0001               i2_setDutyPWM0 3B6A               i2_setDutyPWM2 3B44  
             i2_setDutyPWM4 3B1E               i2_setDutyPWM6 3AF8       __size_of_readAD_ANbit 0020  
             ___xxtofl@sign 0086                   _TRISCbits 000F94                 ___fldiv@grs 0053  
               ___fldiv@rem 004C             i2___fltol@sign1 0048                   i2___flmul 1166  
                 i2___fltol 2C76                 ___flmul@grs 0099               ??_configUSART 007E  
               ?_ligaTimer0 0001                   _TXSTAbits 000FAC             i2getAD_AN@porta 004A  
           UARTReadChar@ler 007E             ?_UARTSendString 016F                 ?_initTimer0 007E  
           testeADbit@F3478 00D5              ??_testeMotores 0177              __end_of___flge 2F84  
            __end_of___fleq 374E              __end_of___wmul 3AF8                _readAD_ANbit 3BFE  
            __end_of_setPID 1F1C      initTimer0@tempoInicial 007E            i2___wmul@product 0005  
            ?i2_setDutyPWM0 0007              ?i2_setDutyPWM2 0007              ?i2_setDutyPWM4 0007  
            ?i2_setDutyPWM6 0007         __size_of_bitExtract 0060              __end_of_strlen 3A28  
       start_initialization 395E                 __end_of_ISR 02B2           __size_ofi2___wmul 0026  
      __size_ofi2_readAD_AN 00A8           ?_valorConvUARTbit 0090                  ?i2___flmul 000F  
                ?i2___fltol 0040               _setEstrategia 3C8A          ??_valorConvUARTbit 0092  
     valorConvUARTbit@F3421 0138             setDutyPWM0@velo 0086             setDutyPWM2@velo 0086  
             myStrncmp@str1 008D               myStrncmp@str2 008F             setDutyPWM4@velo 0086  
           setDutyPWM6@velo 0086         __size_of_configBits 0002                 ?_moverMotor 004D  
                  ??___flge 0009                    ??___fleq 0009         __end_of_configUSART 3C3C  
      __end_of_UARTReadChar 3C8A                    ??___wmul 0082                 _getAD_ANbit 2D7C  
     valorConvUARTbit@valor 0090         i2UARTSendString@str 0002                 ?_testeADbit 0001  
               __pdataBANK0 00D9                    ??_setPID 005F        __end_of_UARTSendChar 3C6A  
                  ??_strlen 0080                   ___fladd@a 002C                   ___fladd@b 0028  
       __size_of_ligaTimer0 0004                   ___fldiv@a 0044                   ___fldiv@b 0040  
                 ___flmul@a 0090                   ___flmul@b 008C                   ___flsub@a 003C  
                 ___flsub@b 0038               __pcstackBANK0 0060               __pcstackBANK1 0162  
         __size_of_getAD_AN 0120           __size_of___xxtofl 01B8              ?_setEstrategia 0001  
       __size_of_initTimer0 000A           __size_of_configAD 0024           __size_of_configDA 0144  
    __size_of_UARTWriteTest 0010               ?i2_bitExtract 0001      __size_of_valorConvUART 00BE  
             UARTSendChar@c 007E                   __pintcode 0008                    ?___fladd 0028  
                  ?___fldiv 0040                    ?___awdiv 007E                    ?___awmod 0086  
                  ?___flmul 008C                    ?___flsub 0038                    ?___fltol 007E  
                 _configPWM 3BB6             ??i2_setDutyPWM0 0009             ??i2_setDutyPWM2 0009  
           ??i2_setDutyPWM4 0009             ??i2_setDutyPWM6 0009               ??_setDutyPWM0 0086  
             ??_setDutyPWM2 0086               ??_setDutyPWM4 0086               ??_setDutyPWM6 0086  
               __smallconst 0300                   _readAD_AN 35FA                    ?_testeAD 0001  
                  ?_posicao 0059         __size_of_moverMotor 0110              __size_of_lados 005C  
               ??i2___flmul 0017                 ??i2___fltol 0044                    ?_strncmp 0082  
      __end_of_testeMotores 087A         __size_of_testeADbit 00F2              ??i2_bitExtract 0007  
            ___wmul@product 0082                ??_bitExtract 0084                 _configUSART 3C1E  
                  _PIE1bits 000F9D             UARTSendString@i 0175                   _myStrncmp 390C  
      valorConvUART@centena 0162                    i2u300_40 0AE4                    i2u300_41 0AE0  
                  i2u301_40 0B1C                    i2u301_41 0B18                    i2u310_40 0C38  
                  i2u302_40 0B62                    i2u310_41 0C34                    i2u302_41 0B5E  
                  i2u311_40 0C4E                    i2u303_40 0B98                    i2u311_41 0C4A  
                  i2u303_41 0B94                    i2u312_40 0C62                    i2u304_40 0BA8  
                  i2u312_41 0C5E                    i2u304_41 0BA4                    i2u313_40 0C7C  
                  i2u305_40 0BD4                    i2u313_41 0C78                    i2u305_41 0BD0  
                  i2u410_40 2F7A                    i2u314_40 0CB6                    i2u306_40 0BE4  
                  i2u410_41 2F76                    i2u314_41 0CB2                    i2u306_41 0BE0  
                  i2u251_40 1180                    i2u403_40 36D2                    i2u315_40 0CC8  
                  i2u307_40 0C00                    i2u251_41 117C                    i2u403_41 36CE  
                  i2u315_41 0CC4                    i2u307_41 0BFC                    i2u260_40 141E  
                  i2u252_40 1192                    i2u404_40 3710                    i2u316_40 0CD8  
                  i2u308_40 0C10                    i2u260_41 141A                    i2u252_41 118E  
                  i2u404_41 370C                    i2u316_41 0CD4                    i2u308_41 0C0C  
                  i2u261_40 143E                    i2u253_40 11A2                    i2u405_40 3744  
                  i2u317_40 0CF8                    i2u309_40 0C22                    i2u261_41 143A  
                  i2u253_41 119E                    i2u405_41 3740                    i2u317_41 0CF4  
                  i2u309_41 0C1E                    i2u406_40 2EAE                    i2u262_40 1450  
                  i2u254_40 11E2                    i2u270_40 20E6                    i2u430_40 27A4  
                  i2u318_40 0D0A                    i2u406_41 2EAA                    i2u262_41 144C  
                  i2u254_41 11DE                    i2u270_41 20E2                    i2u430_41 27A0  
                  i2u318_41 0D06                    i2u350_44 38F0                    i2u350_45 38EA  
                  i2u407_40 2EEC                    i2u351_40 2C8C                    i2u263_40 147E  
                  i2u255_40 11F4                    i2u271_40 20F4                    i2u431_40 2828  
                  i2u319_40 0D26                    i2u407_41 2EE8                    i2u351_41 2C88  
                  i2u263_41 147A                    i2u255_41 11F0                    i2u271_41 20F0  
                  i2u431_41 2824                    i2u319_41 0D22                    i2u408_40 2F0A  
                  i2u352_40 2CC0                    i2u264_40 1494                    i2u256_40 1204  
                  i2u272_40 2150                    i2u432_40 2304                    i2u408_41 2F06  
                  i2u264_41 1490                    i2u256_41 1200                    i2u272_41 214C  
                  i2u432_41 2300                    i2u352_45 2CB6                    i2u409_40 2F2A  
                  i2u353_40 2CEE                    i2u265_40 14A8                    i2u257_40 123A  
                  i2u273_40 21A6                    i2u281_40 0894                    i2u433_40 238E  
                  i2u409_41 2F26                    i2u353_41 2CEA                    i2u265_41 14A4  
                  i2u257_41 1236                    i2u273_41 21A2                    i2u281_41 0890  
                  i2u433_41 238A                    _PIR1bits 000F9E                    i2u354_40 2D02  
                  i2u266_40 14C2                    i2u258_40 124A                    i2u274_40 21F0  
                  i2u418_40 2A2A                    i2u290_40 09E8                    i2u282_40 08A6  
                  i2u370_40 15CC                    i2u434_40 23C0                    i2u506_40 3C5A  
                  i2u354_41 2CFE                    i2u266_41 14BE                    i2u258_41 1246  
                  i2u274_41 21EC                    i2u418_41 2A26                    i2u290_41 09E4  
                  i2u282_41 08A2                    i2u370_41 15C8                    i2u434_41 23BC  
                  i2u506_41 3C56                    i2u355_40 2D2A                    i2u267_40 150A  
                  i2u259_40 13C4                    i2u275_40 220E                    i2u291_40 0A00  
                  i2u283_40 08B6                    i2u435_40 2A90                    i2u371_40 1610  
                  i2u355_41 2D26                    i2u267_41 1506                    i2u275_41 220A  
                  i2u291_41 09FA                    i2u283_41 08B2                    i2u435_41 2A8C  
                  i2u371_41 160C                    i2u259_45 13BA                    i2u356_40 2D4A  
                  i2u268_40 1538                    i2u276_40 221E                    i2u292_40 0A02  
                  i2u284_40 08F8                    i2u380_40 17AE                    i2u372_40 1622  
                  i2u356_41 2D46                    i2u268_41 1534                    i2u276_41 221A  
                  i2u284_41 08F4                    i2u380_41 17AA                    i2u372_41 161E  
                  i2u357_40 2D5A                    i2u269_40 1572                    i2u277_40 222C  
                  i2u293_40 0A2A                    i2u285_40 090E                    i2u381_40 17CC  
                  i2u373_40 1632                    i2u357_41 2D56                    i2u269_41 156E  
                  i2u277_41 2228                    i2u293_41 0A26                    i2u285_41 090A  
                  i2u381_41 17C8                    i2u373_41 162E                    i2u349_44 38CA  
                  i2u349_45 38C4                    i2u278_40 2266                    i2u294_40 0A48  
                  i2u286_40 0920                    i2u366_40 386E                    i2u390_40 1916  
                  i2u382_40 17EC                    i2u374_40 1672                    i2u550_40 0068  
                  i2u278_41 2262                    i2u294_41 0A44                    i2u286_41 091C  
                  i2u366_41 386A                    i2u390_41 1912                    i2u382_41 17E8  
                  i2u374_41 166E                    i2u550_41 0064                    i2u279_40 2274  
                  i2u295_40 0A68                    i2u287_40 0930                    i2u367_40 3898  
                  i2u383_40 17FE                    i2u375_40 16B2                    i2u551_40 0076  
                  i2u279_41 2270                    i2u295_41 0A64                    i2u287_41 092C  
                  i2u367_41 3894                    i2u383_41 17FA                    i2u375_41 16AE  
                  i2u551_41 0072                    i2u296_40 0A76                    i2u288_40 096C  
                  i2u384_40 182C                    i2u376_40 1728                    i2u368_40 15AA  
                  i2u544_40 3578                    i2u560_40 0220                    i2u552_40 008E  
                  i2u296_41 0A72                    i2u288_41 0968                    i2u384_41 1828  
                  i2u376_41 1724                    i2u368_41 15A6                    i2u544_41 3574  
                  i2u560_41 021C                    i2u552_41 008A                    i2u297_40 0A86  
                  i2u289_40 097A                    i2u385_40 1842                    i2u377_40 174A  
                  i2u369_40 15BC                    i2u545_40 35A8                    i2u553_40 00B8  
                  i2u297_41 0A82                    i2u289_41 0976                    i2u385_41 183E  
                  i2u377_41 1746                    i2u369_41 15B8                    i2u553_41 00B4  
                  i2u545_47 359E                    i2u298_40 0AB8                    i2u386_40 1856  
                  i2u378_40 1774                    i2u546_40 35B8                    i2u554_40 00EA  
                  i2u298_41 0AB4                    i2u386_41 1852                    i2u378_41 1770  
                  i2u546_41 35B4                    i2u554_41 00E6                    i2u299_40 0AC6  
                  i2u387_40 1870                    i2u379_40 1798                    i2u547_40 35E8  
                  i2u555_40 011C                    i2u299_41 0AC2                    i2u387_41 186C  
                  i2u379_41 1794                    i2u555_41 0118                    i2u547_47 35DE  
                  i2u388_40 18B8                    i2u556_40 014E                    i2u548_40 0038  
                  i2u388_41 18B4                    i2u556_41 014A                    i2u548_41 0034  
                  i2u389_40 18E8                    i2u557_40 017C                    i2u549_40 005A  
                  i2u389_41 18E4                    i2u557_41 0178                    i2u549_41 0056  
                  i2u558_40 01A2                    i2u558_41 019E                    i2u559_40 01EE  
                  i2u559_41 01EA               moverMotor@PID 004D                  ?_configPWM 0001  
      valorConvUART@unidade 0166                   configDA@i 0056                  _ADCON0bits 000FC2  
                posicao@pos 0064                  _ADCON1bits 000FC1                  _ADCON2bits 000FC0  
         ?i2_UARTSendString 0002               _UARTWriteTest 3C3C           ___wmul@multiplier 007E  
                  i2___wmul 3B90               _valorConvUART 33DA                   lados@lado 004C  
                ?_readAD_AN 00A5                ??_configBits 007E          ??i2_UARTSendString 0006  
        __end_of_bitExtract 3856             ??_setEstrategia 0003      __size_of_testeLampadas 0144  
       __end_of_setDutyPWM0 3AD0         __end_of_setDutyPWM2 3AA6         __end_of_setDutyPWM4 3A7C  
       __end_of_setDutyPWM6 3A52                   copy_data0 3972    __size_ofi2_UARTWriteTest 0010  
              ??_ligaTimer0 0001            ??_UARTSendString 0173       __size_of_UARTReadChar 000A  
                ?_myStrncmp 008D                    __Hrparam 0000       __size_of_UARTSendChar 000E  
                  __Lrparam 0000          __end_of_configBits 3CA4                ??_initTimer0 0080  
        i2bitExtract@numero 0001            __size_of___fladd 04C0            __size_of___fldiv 039A  
          __size_of___awdiv 00C6            __size_of___awmod 00B2            __size_of___flmul 042C  
          __size_of___flsub 0046            __size_of___fltol 0108       i2___wmul@multiplicand 0003  
               _setPID$1573 006E                 _setPID$1692 0072              ?_UARTWriteTest 0001  
            ?_valorConvUART 00B3                    _getAD_AN 282A          __end_of_ligaTimer0 3CA2  
                  ___xxtofl 1F1C                    __ptext10 39EA                    __ptext11 2F84  
                  __ptext20 35FA                    __ptext12 3076                    __ptext21 1F1C  
                  __ptext13 2D7C                    __ptext30 3BB6                    __ptext22 0D3A  
                  __ptext14 3BFE                    __ptext31 3CA2                    __ptext23 37F6  
                  __ptext15 192A                    __ptext40 1590                    __ptext32 3BDA  
                  __ptext24 2B6E                    __ptext16 33DA                    __ptext41 2A5E  
                  __ptext33 3C80                    __ptext25 3248                    __ptext17 3498  
                  __ptext50 36A4                    __ptext42 3856                    __ptext26 3C5C  
                  __ptext18 3314                    __ptext51 26E6                    __ptext43 3AF8  
                  __ptext35 354A                    __ptext27 3C3C                    __ptext19 282A  
                  __ptext60 3C9E                    __ptext52 294A                    __ptext44 3B1E  
                  __ptext36 3C6A                    __ptext28 3C76                    __ptext53 374E  
                  __ptext45 3B44                    __ptext37 3C4C                    __ptext29 3C1E  
                  __ptext54 20D4                    __ptext46 3B6A                    __ptext38 1C52  
                  __ptext55 1166                    __ptext47 3B90                    __ptext39 2288  
                  __ptext56 38B2                    __ptext48 39A4                    __ptext57 2C76  
                  __ptext49 087A                    __ptext58 2E80                    __ptext59 3C8A  
          __size_of_testeAD 0328                    _configAD 3BDA                    _configDA 26E6  
          __size_of_posicao 0192                _UARTReadChar 3C80               _configDA$1691 0052  
          __size_of_strncmp 00E0          __end_of_initTimer0 3C80                _UARTSendChar 3C5C  
             __size_of_main 0188                    _recebido 00E1                 bitExtract@k 0080  
               bitExtract@p 0082              setEstrategia@c 0001     __size_ofi2_UARTSendChar 000C  
                  _vanal_AN 00D1           getAD_ANbit@ANread 008E                ??_moverMotor 0051  
 __size_of_valorConvUARTbit 00F2               _testeLampadas 25A2                ?_getAD_ANbit 008C  
                  _setpoint 00D9                    int$flags 005F                ??_testeADbit 0177  
               ??_configPWM 007E        __end_ofi2_bitExtract 390C                 _setDutyPWM0 3AA6  
               _setDutyPWM2 3A7C                 _setDutyPWM4 3A52                 _setDutyPWM6 3A28  
             ??i2_readAD_AN 002C                 ??_readAD_AN 00A9                  _INTCONbits 000FF2  
     __size_of_testeMotores 04DA          __end_of_moverMotor 2B6E           UARTSendString@str 016F  
                  intlevel2 0000             i2___xxtofl@sign 0009          __end_of_testeADbit 3076  
               ??_myStrncmp 0091           ??i2_UARTWriteTest 0001                   strncmp@_l 0082  
                 strncmp@_r 0084              ?_testeLampadas 0001                    posicao@i 006C  
           ??_UARTWriteTest 007E                _testeMotores 03A0             ??_valorConvUART 00B5  
          getAD_ANbit@porta 008C                    strncmp@l 0089                    strncmp@n 0086  
                  strncmp@r 008B               ___fladd@signs 0034         __end_ofi2_readAD_AN 37F6  
              ___fladd@aexp 0035                ___fladd@bexp 0036                ?_configUSART 0001  
          i2_readAD_AN$1693 002C  
